---
triple:          'arm64-apple-darwin'
binary-path:     '/Users/serban.cercelescu/Library/CloudStorage/OneDrive-QuantinuumLLC/Desktop/Qubitserf/old'
relocations:
  - { offsetInCU: 0x5C, offset: 0x5C, size: 0x8, addend: 0x0, symName: __ZNSt3__1L19piecewise_constructE, symObjAddr: 0x14739, symBinAddr: 0x100016EE5, symSize: 0x0 }
  - { offsetInCU: 0x99FC, offset: 0x99FC, size: 0x8, addend: 0x0, symName: '__ZNSt3__110__function10__not_nullB8ue170006IZ12combinationsiiNS_8functionIFvNS_6vectorIbNS_9allocatorIbEEEEEEEE3$_0EEbRKT_', symObjAddr: 0x7AC4, symBinAddr: 0x100009EB0, symSize: 0x18 }
  - { offsetInCU: 0x9A2D, offset: 0x9A2D, size: 0x8, addend: 0x0, symName: '__ZNSt3__110__function10__not_nullB8ue170006IZ7subsetsiNS_8functionIFvNS_6vectorIbNS_9allocatorIbEEEEEEEE3$_1EEbRKT_', symObjAddr: 0xB998, symBinAddr: 0x10000DD84, symSize: 0x18 }
  - { offsetInCU: 0x9A5E, offset: 0x9A5E, size: 0x8, addend: 0x0, symName: '__ZNSt3__110__function10__not_nullB8ue170006IZ36brouwer_zimmerman_meet_in_the_middleRKNS_6vectorINS_4pairI6MatrixiEENS_9allocatorIS5_EEEEE3$_2EEbRKT_', symObjAddr: 0xF3AC, symBinAddr: 0x100011798, symSize: 0x18 }
  - { offsetInCU: 0x9A8F, offset: 0x9A8F, size: 0x8, addend: 0x0, symName: '__ZNSt3__110__function10__not_nullB8ue170006IZ20brute_force_distance6MatrixE3$_3EEbRKT_', symObjAddr: 0x117F8, symBinAddr: 0x100013BE4, symSize: 0x18 }
  - { offsetInCU: 0xF9F4, offset: 0xF9F4, size: 0x8, addend: 0x0, symName: __ZNSt3__124__put_character_sequenceB8ue170006IcNS_11char_traitsIcEEEERNS_13basic_ostreamIT_T0_EES7_PKS4_m, symObjAddr: 0x13240, symBinAddr: 0x10001562C, symSize: 0x1EC }
  - { offsetInCU: 0x1176A, offset: 0x1176A, size: 0x8, addend: 0x0, symName: __ZNSt3__1neB8ue170006IP3GF4EEbRKNS_11__wrap_iterIT_EES7_, symObjAddr: 0xA48, symBinAddr: 0x100002E34, symSize: 0x34 }
  - { offsetInCU: 0x117AD, offset: 0x117AD, size: 0x8, addend: 0x0, symName: __ZNSt3__1neB8ue170006IPKNS_4pairI6MatrixiEEEEbRKNS_11__wrap_iterIT_EESA_, symObjAddr: 0x1024, symBinAddr: 0x100003410, symSize: 0x34 }
  - { offsetInCU: 0x117F0, offset: 0x117F0, size: 0x8, addend: 0x0, symName: __ZNSt3__14endlB8ue170006IcNS_11char_traitsIcEEEERNS_13basic_ostreamIT_T0_EES7_, symObjAddr: 0x1630, symBinAddr: 0x100003A1C, symSize: 0x58 }
  - { offsetInCU: 0x11831, offset: 0x11831, size: 0x8, addend: 0x0, symName: __ZNSt3__14swapB8ue170006I3GF4NS_9allocatorIS1_EEEEvRNS_6vectorIT_T0_EES8_, symObjAddr: 0x16D8, symBinAddr: 0x100003AC4, symSize: 0x2C }
  - { offsetInCU: 0x1187C, offset: 0x1187C, size: 0x8, addend: 0x0, symName: __ZNSt3__14swapB8ue170006IP3GF4EENS_9enable_ifIXaasr21is_move_constructibleIT_EE5valuesr18is_move_assignableIS4_EE5valueEvE4typeERS4_S7_, symObjAddr: 0x1788, symBinAddr: 0x100003B74, symSize: 0x3C }
  - { offsetInCU: 0x118CD, offset: 0x118CD, size: 0x8, addend: 0x0, symName: __ZNSt3__116__swap_allocatorB8ue170006INS_9allocatorI3GF4EEEEvRT_S5_NS_17integral_constantIbLb0EEE, symObjAddr: 0x17EC, symBinAddr: 0x100003BD8, symSize: 0x14 }
  - { offsetInCU: 0x1190F, offset: 0x1190F, size: 0x8, addend: 0x0, symName: __ZNSt3__14swapB8ue170006I3GF4EENS_9enable_ifIXaasr21is_move_constructibleIT_EE5valuesr18is_move_assignableIS3_EE5valueEvE4typeERS3_S6_, symObjAddr: 0x1898, symBinAddr: 0x100003C84, symSize: 0x3C }
  - { offsetInCU: 0x1195F, offset: 0x1195F, size: 0x8, addend: 0x0, symName: __ZNSt3__1eqB8ue170006IP3GF4EEbRKNS_11__wrap_iterIT_EES7_, symObjAddr: 0x1B0C, symBinAddr: 0x100003EF8, symSize: 0x48 }
  - { offsetInCU: 0x119A2, offset: 0x119A2, size: 0x8, addend: 0x0, symName: __ZNSt3__1eqB8ue170006IPKNS_4pairI6MatrixiEEEEbRKNS_11__wrap_iterIT_EESA_, symObjAddr: 0x1B6C, symBinAddr: 0x100003F58, symSize: 0x48 }
  - { offsetInCU: 0x119E5, offset: 0x119E5, size: 0x8, addend: 0x0, symName: __ZNSt3__122__make_exception_guardB8ue170006INS_6vectorINS1_I3GF4NS_9allocatorIS2_EEEENS3_IS5_EEE16__destroy_vectorEEENS_28__exception_guard_exceptionsIT_EESA_, symObjAddr: 0x1F44, symBinAddr: 0x100004330, symSize: 0x40 }
  - { offsetInCU: 0x11A1A, offset: 0x11A1A, size: 0x8, addend: 0x0, symName: __ZNSt3__119__allocate_at_leastB8ue170006INS_9allocatorINS_6vectorI3GF4NS1_IS3_EEEEEEEENS_19__allocation_resultINS_16allocator_traitsIT_E7pointerEEERS9_m, symObjAddr: 0x2234, symBinAddr: 0x100004620, symSize: 0x40 }
  - { offsetInCU: 0x11A5D, offset: 0x11A5D, size: 0x8, addend: 0x0, symName: __ZNSt3__13minB8ue170006ImEERKT_S3_S3_, symObjAddr: 0x238C, symBinAddr: 0x100004778, symSize: 0x2C }
  - { offsetInCU: 0x11CAB, offset: 0x11CAB, size: 0x8, addend: 0x0, symName: __ZNSt3__13minB8ue170006ImNS_6__lessIvvEEEERKT_S5_S5_T0_, symObjAddr: 0x23FC, symBinAddr: 0x1000047E8, symSize: 0x54 }
  - { offsetInCU: 0x11D7E, offset: 0x11D7E, size: 0x8, addend: 0x0, symName: __ZNSt3__120__throw_length_errorB8ue170006EPKc, symObjAddr: 0x24A4, symBinAddr: 0x100004890, symSize: 0x64 }
  - { offsetInCU: 0x11DA8, offset: 0x11DA8, size: 0x8, addend: 0x0, symName: __ZNSt3__117__libcpp_allocateB8ue170006Emm, symObjAddr: 0x2618, symBinAddr: 0x100004A04, symSize: 0x28 }
  - { offsetInCU: 0x11DE5, offset: 0x11DE5, size: 0x8, addend: 0x0, symName: __ZNSt3__121__libcpp_operator_newB8ue170006IJmEEEPvDpT_, symObjAddr: 0x2640, symBinAddr: 0x100004A2C, symSize: 0x24 }
  - { offsetInCU: 0x11E1F, offset: 0x11E1F, size: 0x8, addend: 0x0, symName: __ZNSt3__112__to_addressB8ue170006INS_6vectorI3GF4NS_9allocatorIS2_EEEEEEPT_S7_, symObjAddr: 0x275C, symBinAddr: 0x100004B48, symSize: 0x14 }
  - { offsetInCU: 0x11E53, offset: 0x11E53, size: 0x8, addend: 0x0, symName: __ZNSt3__130__uninitialized_allocator_copyB8ue170006INS_9allocatorINS_6vectorI3GF4NS1_IS3_EEEEEEPS5_S7_S7_EET2_RT_T0_T1_S8_, symObjAddr: 0x280C, symBinAddr: 0x100004BF8, symSize: 0x80 }
  - { offsetInCU: 0x11EF0, offset: 0x11EF0, size: 0x8, addend: 0x0, symName: __ZNSt3__114__unwrap_rangeB8ue170006IPNS_6vectorI3GF4NS_9allocatorIS2_EEEES6_EENS_4pairIT0_S8_EET_SA_, symObjAddr: 0x2904, symBinAddr: 0x100004CF0, symSize: 0x60 }
  - { offsetInCU: 0x11F3C, offset: 0x11F3C, size: 0x8, addend: 0x0, symName: __ZNSt3__135__uninitialized_allocator_copy_implB8ue170006INS_9allocatorINS_6vectorI3GF4NS1_IS3_EEEEEEPS5_S7_S7_EET2_RT_T0_T1_S8_, symObjAddr: 0x2964, symBinAddr: 0x100004D50, symSize: 0xF4 }
  - { offsetInCU: 0x11FDA, offset: 0x11FDA, size: 0x8, addend: 0x0, symName: __ZNSt3__113__unwrap_iterB8ue170006IPNS_6vectorI3GF4NS_9allocatorIS2_EEEENS_18__unwrap_iter_implIS6_Lb1EEELi0EEEDTclsrT0_8__unwrapclsr3stdE7declvalIT_EEEESA_, symObjAddr: 0x2A58, symBinAddr: 0x100004E44, symSize: 0x24 }
  - { offsetInCU: 0x1201E, offset: 0x1201E, size: 0x8, addend: 0x0, symName: __ZNSt3__113__rewrap_iterB8ue170006IPNS_6vectorI3GF4NS_9allocatorIS2_EEEES6_NS_18__unwrap_iter_implIS6_Lb1EEEEET_S9_T0_, symObjAddr: 0x2A7C, symBinAddr: 0x100004E68, symSize: 0x3C }
  - { offsetInCU: 0x12073, offset: 0x12073, size: 0x8, addend: 0x0, symName: __ZNSt3__19make_pairB8ue170006IPNS_6vectorI3GF4NS_9allocatorIS2_EEEES6_EENS_4pairINS_18__unwrap_ref_decayIT_E4typeENS8_IT0_E4typeEEEOS9_OSC_, symObjAddr: 0x2AB8, symBinAddr: 0x100004EA4, symSize: 0x38 }
  - { offsetInCU: 0x12196, offset: 0x12196, size: 0x8, addend: 0x0, symName: __ZNSt3__122__make_exception_guardB8ue170006INS_29_AllocatorDestroyRangeReverseINS_9allocatorINS_6vectorI3GF4NS2_IS4_EEEEEEPS6_EEEENS_28__exception_guard_exceptionsIT_EESB_, symObjAddr: 0x2B60, symBinAddr: 0x100004F4C, symSize: 0x4C }
  - { offsetInCU: 0x121CC, offset: 0x121CC, size: 0x8, addend: 0x0, symName: __ZNSt3__122__make_exception_guardB8ue170006INS_6vectorI3GF4NS_9allocatorIS2_EEE16__destroy_vectorEEENS_28__exception_guard_exceptionsIT_EES8_, symObjAddr: 0x2FFC, symBinAddr: 0x1000053E8, symSize: 0x40 }
  - { offsetInCU: 0x12201, offset: 0x12201, size: 0x8, addend: 0x0, symName: __ZNSt3__119__allocate_at_leastB8ue170006INS_9allocatorI3GF4EEEENS_19__allocation_resultINS_16allocator_traitsIT_E7pointerEEERS6_m, symObjAddr: 0x32E4, symBinAddr: 0x1000056D0, symSize: 0x40 }
  - { offsetInCU: 0x12245, offset: 0x12245, size: 0x8, addend: 0x0, symName: __ZNSt3__112__to_addressB8ue170006I3GF4EEPT_S3_, symObjAddr: 0x34E0, symBinAddr: 0x1000058CC, symSize: 0x14 }
  - { offsetInCU: 0x12279, offset: 0x12279, size: 0x8, addend: 0x0, symName: __ZNSt3__130__uninitialized_allocator_copyB8ue170006INS_9allocatorI3GF4EEPS2_S4_S4_EET2_RT_T0_T1_S5_, symObjAddr: 0x3590, symBinAddr: 0x10000597C, symSize: 0x80 }
  - { offsetInCU: 0x12316, offset: 0x12316, size: 0x8, addend: 0x0, symName: __ZNSt3__114__unwrap_rangeB8ue170006IP3GF4S2_EENS_4pairIT0_S4_EET_S6_, symObjAddr: 0x3680, symBinAddr: 0x100005A6C, symSize: 0x60 }
  - { offsetInCU: 0x12362, offset: 0x12362, size: 0x8, addend: 0x0, symName: __ZNSt3__135__uninitialized_allocator_copy_implB8ue170006INS_9allocatorI3GF4EES2_S2_S2_LPv0EEEPT2_RT_PT0_SA_S6_, symObjAddr: 0x36E0, symBinAddr: 0x100005ACC, symSize: 0x38 }
  - { offsetInCU: 0x123E4, offset: 0x123E4, size: 0x8, addend: 0x0, symName: __ZNSt3__113__unwrap_iterB8ue170006IP3GF4NS_18__unwrap_iter_implIS2_Lb1EEELi0EEEDTclsrT0_8__unwrapclsr3stdE7declvalIT_EEEES6_, symObjAddr: 0x3718, symBinAddr: 0x100005B04, symSize: 0x24 }
  - { offsetInCU: 0x12428, offset: 0x12428, size: 0x8, addend: 0x0, symName: __ZNSt3__113__rewrap_iterB8ue170006IP3GF4S2_NS_18__unwrap_iter_implIS2_Lb1EEEEET_S5_T0_, symObjAddr: 0x373C, symBinAddr: 0x100005B28, symSize: 0x3C }
  - { offsetInCU: 0x1247D, offset: 0x1247D, size: 0x8, addend: 0x0, symName: __ZNSt3__19make_pairB8ue170006IP3GF4S2_EENS_4pairINS_18__unwrap_ref_decayIT_E4typeENS4_IT0_E4typeEEEOS5_OS8_, symObjAddr: 0x3778, symBinAddr: 0x100005B64, symSize: 0x38 }
  - { offsetInCU: 0x125CF, offset: 0x125CF, size: 0x8, addend: 0x0, symName: __ZNSt3__14copyB8ue170006IP3GF4S2_EET0_T_S4_S3_, symObjAddr: 0x3820, symBinAddr: 0x100005C0C, symSize: 0x40 }
  - { offsetInCU: 0x12629, offset: 0x12629, size: 0x8, addend: 0x0, symName: __ZNSt3__16__copyB8ue170006INS_17_ClassicAlgPolicyEP3GF4S3_S3_EENS_4pairIT0_T2_EES5_T1_S6_, symObjAddr: 0x3860, symBinAddr: 0x100005C4C, symSize: 0x44 }
  - { offsetInCU: 0x12695, offset: 0x12695, size: 0x8, addend: 0x0, symName: __ZNSt3__123__dispatch_copy_or_moveB8ue170006INS_17_ClassicAlgPolicyENS_11__copy_loopIS1_EENS_14__copy_trivialEP3GF4S6_S6_EENS_4pairIT2_T4_EES8_T3_S9_, symObjAddr: 0x38A4, symBinAddr: 0x100005C90, symSize: 0x44 }
  - { offsetInCU: 0x12713, offset: 0x12713, size: 0x8, addend: 0x0, symName: __ZNSt3__121__unwrap_and_dispatchB8ue170006INS_10__overloadINS_11__copy_loopINS_17_ClassicAlgPolicyEEENS_14__copy_trivialEEEP3GF4S8_S8_Li0EEENS_4pairIT0_T2_EESA_T1_SB_, symObjAddr: 0x38E8, symBinAddr: 0x100005CD4, symSize: 0xB4 }
  - { offsetInCU: 0x127E7, offset: 0x127E7, size: 0x8, addend: 0x0, symName: __ZNSt3__114__rewrap_rangeB8ue170006IP3GF4S2_EET_S3_T0_, symObjAddr: 0x39E4, symBinAddr: 0x100005DD0, symSize: 0x2C }
  - { offsetInCU: 0x12833, offset: 0x12833, size: 0x8, addend: 0x0, symName: __ZNSt3__119__copy_trivial_implB8ue170006I3GF4S1_EENS_4pairIPT_PT0_EES4_S4_S6_, symObjAddr: 0x3A10, symBinAddr: 0x100005DFC, symSize: 0x78 }
  - { offsetInCU: 0x1289B, offset: 0x1289B, size: 0x8, addend: 0x0, symName: __ZNSt3__119__constexpr_memmoveB8ue170006I3GF4S1_Li0EEEPT_S3_PT0_NS_15__element_countE, symObjAddr: 0x3A88, symBinAddr: 0x100005E74, symSize: 0x64 }
  - { offsetInCU: 0x12909, offset: 0x12909, size: 0x8, addend: 0x0, symName: __ZNSt3__19make_pairB8ue170006IRP3GF4S2_EENS_4pairINS_18__unwrap_ref_decayIT_E4typeENS5_IT0_E4typeEEEOS6_OS9_, symObjAddr: 0x3AEC, symBinAddr: 0x100005ED8, symSize: 0x38 }
  - { offsetInCU: 0x129AC, offset: 0x129AC, size: 0x8, addend: 0x0, symName: __ZNSt3__119__libcpp_deallocateB8ue170006EPvmm, symObjAddr: 0x3F20, symBinAddr: 0x10000630C, symSize: 0x30 }
  - { offsetInCU: 0x129F4, offset: 0x129F4, size: 0x8, addend: 0x0, symName: __ZNSt3__127__do_deallocate_handle_sizeB8ue170006IJEEEvPvmDpT_, symObjAddr: 0x3F50, symBinAddr: 0x10000633C, symSize: 0x28 }
  - { offsetInCU: 0x12A32, offset: 0x12A32, size: 0x8, addend: 0x0, symName: __ZNSt3__124__libcpp_operator_deleteB8ue170006IJPvEEEvDpT_, symObjAddr: 0x3F78, symBinAddr: 0x100006364, symSize: 0x24 }
  - { offsetInCU: 0x12A67, offset: 0x12A67, size: 0x8, addend: 0x0, symName: __ZNSt3__119__allocator_destroyB8ue170006INS_9allocatorINS_6vectorI3GF4NS1_IS3_EEEEEENS_16reverse_iteratorIPS5_EES9_EEvRT_T0_T1_, symObjAddr: 0x4054, symBinAddr: 0x100006440, symSize: 0x70 }
  - { offsetInCU: 0x12AC9, offset: 0x12AC9, size: 0x8, addend: 0x0, symName: __ZNSt3__1neB8ue170006IPNS_6vectorI3GF4NS_9allocatorIS2_EEEES6_EEbRKNS_16reverse_iteratorIT_EERKNS7_IT0_EE, symObjAddr: 0x40F8, symBinAddr: 0x1000064E4, symSize: 0x48 }
  - { offsetInCU: 0x12B15, offset: 0x12B15, size: 0x8, addend: 0x0, symName: __ZNSt3__112__to_addressB8ue170006INS_16reverse_iteratorIPNS_6vectorI3GF4NS_9allocatorIS3_EEEEEEvEEu7__decayIDTclsr19__to_address_helperIT_EE6__callclsr3stdE7declvalIRKS9_EEEEESB_, symObjAddr: 0x416C, symBinAddr: 0x100006558, symSize: 0x24 }
  - { offsetInCU: 0x12BC8, offset: 0x12BC8, size: 0x8, addend: 0x0, symName: __ZNSt3__1neB8ue170006IPNS_6vectorI3GF4NS_9allocatorIS2_EEEEEEbRKNS_11__wrap_iterIT_EESB_, symObjAddr: 0x492C, symBinAddr: 0x100006D18, symSize: 0x34 }
  - { offsetInCU: 0x12C0B, offset: 0x12C0B, size: 0x8, addend: 0x0, symName: __ZNSt3__13maxB8ue170006ImEERKT_S3_S3_, symObjAddr: 0x5218, symBinAddr: 0x100007604, symSize: 0x2C }
  - { offsetInCU: 0x12C4E, offset: 0x12C4E, size: 0x8, addend: 0x0, symName: __ZNSt3__13maxB8ue170006ImNS_6__lessIvvEEEERKT_S5_S5_T0_, symObjAddr: 0x5244, symBinAddr: 0x100007630, symSize: 0x54 }
  - { offsetInCU: 0x12CA8, offset: 0x12CA8, size: 0x8, addend: 0x0, symName: __ZNSt3__142__uninitialized_allocator_move_if_noexceptB8ue170006INS_9allocatorINS_6vectorI3GF4NS1_IS3_EEEEEENS_16reverse_iteratorIPS5_EES9_S9_EET2_RT_T0_T1_SA_, symObjAddr: 0x55A4, symBinAddr: 0x100007990, symSize: 0x11C }
  - { offsetInCU: 0x12D49, offset: 0x12D49, size: 0x8, addend: 0x0, symName: __ZNSt3__14swapB8ue170006IPNS_6vectorI3GF4NS_9allocatorIS2_EEEEEENS_9enable_ifIXaasr21is_move_constructibleIT_EE5valuesr18is_move_assignableIS8_EE5valueEvE4typeERS8_SB_, symObjAddr: 0x56C0, symBinAddr: 0x100007AAC, symSize: 0x3C }
  - { offsetInCU: 0x12D99, offset: 0x12D99, size: 0x8, addend: 0x0, symName: __ZNSt3__122__make_exception_guardB8ue170006INS_29_AllocatorDestroyRangeReverseINS_9allocatorINS_6vectorI3GF4NS2_IS4_EEEEEENS_16reverse_iteratorIPS6_EEEEEENS_28__exception_guard_exceptionsIT_EESD_, symObjAddr: 0x56FC, symBinAddr: 0x100007AE8, symSize: 0x4C }
  - { offsetInCU: 0x12DD0, offset: 0x12DD0, size: 0x8, addend: 0x0, symName: __ZNSt3__119__allocator_destroyB8ue170006INS_9allocatorINS_6vectorI3GF4NS1_IS3_EEEEEENS_16reverse_iteratorINS7_IPS5_EEEESA_EEvRT_T0_T1_, symObjAddr: 0x5AD0, symBinAddr: 0x100007EBC, symSize: 0x70 }
  - { offsetInCU: 0x12E34, offset: 0x12E34, size: 0x8, addend: 0x0, symName: __ZNSt3__1neB8ue170006INS_16reverse_iteratorIPNS_6vectorI3GF4NS_9allocatorIS3_EEEEEES8_EEbRKNS1_IT_EERKNS1_IT0_EE, symObjAddr: 0x5B7C, symBinAddr: 0x100007F68, symSize: 0x60 }
  - { offsetInCU: 0x12E80, offset: 0x12E80, size: 0x8, addend: 0x0, symName: __ZNSt3__112__to_addressB8ue170006INS_16reverse_iteratorINS1_IPNS_6vectorI3GF4NS_9allocatorIS3_EEEEEEEEvEEu7__decayIDTclsr19__to_address_helperIT_EE6__callclsr3stdE7declvalIRKSA_EEEEESC_, symObjAddr: 0x5BDC, symBinAddr: 0x100007FC8, symSize: 0x24 }
  - { offsetInCU: 0x12EE0, offset: 0x12EE0, size: 0x8, addend: 0x0, symName: __ZNSt3__1eqB8ue170006IPNS_6vectorI3GF4NS_9allocatorIS2_EEEEEEbRKNS_11__wrap_iterIT_EESB_, symObjAddr: 0x6070, symBinAddr: 0x10000845C, symSize: 0x48 }
  - { offsetInCU: 0x12F23, offset: 0x12F23, size: 0x8, addend: 0x0, symName: __ZNSt3__142__uninitialized_allocator_move_if_noexceptB8ue170006INS_9allocatorI3GF4EENS_16reverse_iteratorIPS2_EES6_S2_vEET1_RT_T0_SA_S7_, symObjAddr: 0x695C, symBinAddr: 0x100008D48, symSize: 0x78 }
  - { offsetInCU: 0x12FA1, offset: 0x12FA1, size: 0x8, addend: 0x0, symName: __ZNSt3__14moveB8ue170006INS_16reverse_iteratorIP3GF4EES4_EET0_T_S6_S5_, symObjAddr: 0x6A20, symBinAddr: 0x100008E0C, symSize: 0x78 }
  - { offsetInCU: 0x12FFB, offset: 0x12FFB, size: 0x8, addend: 0x0, symName: __ZNSt3__16__moveB8ue170006INS_17_ClassicAlgPolicyENS_16reverse_iteratorIP3GF4EES5_S5_EENS_4pairIT0_T2_EES7_T1_S8_, symObjAddr: 0x6A98, symBinAddr: 0x100008E84, symSize: 0x64 }
  - { offsetInCU: 0x13067, offset: 0x13067, size: 0x8, addend: 0x0, symName: __ZNSt3__123__dispatch_copy_or_moveB8ue170006INS_17_ClassicAlgPolicyENS_11__move_loopIS1_EENS_14__move_trivialENS_16reverse_iteratorIP3GF4EES8_S8_EENS_4pairIT2_T4_EESA_T3_SB_, symObjAddr: 0x6AFC, symBinAddr: 0x100008EE8, symSize: 0x64 }
  - { offsetInCU: 0x130E5, offset: 0x130E5, size: 0x8, addend: 0x0, symName: __ZNSt3__121__unwrap_and_dispatchB8ue170006INS_10__overloadINS_11__move_loopINS_17_ClassicAlgPolicyEEENS_14__move_trivialEEENS_16reverse_iteratorIP3GF4EESA_SA_Li0EEENS_4pairIT0_T2_EESC_T1_SD_, symObjAddr: 0x6B60, symBinAddr: 0x100008F4C, symSize: 0x12C }
  - { offsetInCU: 0x13175, offset: 0x13175, size: 0x8, addend: 0x0, symName: __ZNSt3__114__unwrap_rangeB8ue170006INS_16reverse_iteratorIP3GF4EES4_EENS_4pairIT0_S6_EET_S8_, symObjAddr: 0x6C8C, symBinAddr: 0x100009078, symSize: 0x84 }
  - { offsetInCU: 0x132F0, offset: 0x132F0, size: 0x8, addend: 0x0, symName: __ZNSt3__113__unwrap_iterB8ue170006INS_16reverse_iteratorIP3GF4EENS_18__unwrap_iter_implIS4_Lb0EEELi0EEEDTclsrT0_8__unwrapclsr3stdE7declvalIT_EEEES8_, symObjAddr: 0x6DB0, symBinAddr: 0x10000919C, symSize: 0x44 }
  - { offsetInCU: 0x13334, offset: 0x13334, size: 0x8, addend: 0x0, symName: __ZNSt3__19make_pairB8ue170006INS_16reverse_iteratorIP3GF4EES4_EENS_4pairINS_18__unwrap_ref_decayIT_E4typeENS6_IT0_E4typeEEEOS7_OSA_, symObjAddr: 0x6DF4, symBinAddr: 0x1000091E0, symSize: 0x38 }
  - { offsetInCU: 0x13383, offset: 0x13383, size: 0x8, addend: 0x0, symName: __ZNSt3__114__rewrap_rangeB8ue170006INS_16reverse_iteratorIP3GF4EES4_EET_S5_T0_, symObjAddr: 0x6E2C, symBinAddr: 0x100009218, symSize: 0x5C }
  - { offsetInCU: 0x133CF, offset: 0x133CF, size: 0x8, addend: 0x0, symName: __ZNSt3__113__rewrap_iterB8ue170006INS_16reverse_iteratorIP3GF4EES4_NS_18__unwrap_iter_implIS4_Lb0EEEEET_S7_T0_, symObjAddr: 0x6E88, symBinAddr: 0x100009274, symSize: 0x74 }
  - { offsetInCU: 0x13424, offset: 0x13424, size: 0x8, addend: 0x0, symName: __ZNSt3__1neB8ue170006IP3GF4S2_EEbRKNS_16reverse_iteratorIT_EERKNS3_IT0_EE, symObjAddr: 0x6EFC, symBinAddr: 0x1000092E8, symSize: 0x48 }
  - { offsetInCU: 0x13523, offset: 0x13523, size: 0x8, addend: 0x0, symName: __ZNSt3__125__throw_bad_function_callB8ue170006Ev, symObjAddr: 0x7750, symBinAddr: 0x100009B3C, symSize: 0x38 }
  - { offsetInCU: 0x13BBD, offset: 0x13BBD, size: 0x8, addend: 0x0, symName: '__ZNSt3__116forward_as_tupleB8ue170006IJZ12combinationsiiNS_8functionIFvNS_6vectorIbNS_9allocatorIbEEEEEEEE3$_0EEENS_5tupleIJDpOT_EEESC_', symObjAddr: 0x8300, symBinAddr: 0x10000A6EC, symSize: 0x2C }
  - { offsetInCU: 0x13BF7, offset: 0x13BF7, size: 0x8, addend: 0x0, symName: '__ZNSt3__116forward_as_tupleB8ue170006IJNS_9allocatorIZ12combinationsiiNS_8functionIFvNS_6vectorIbNS1_IbEEEEEEEE3$_0EEEEENS_5tupleIJDpOT_EEESD_', symObjAddr: 0x832C, symBinAddr: 0x10000A718, symSize: 0x2C }
  - { offsetInCU: 0x13C76, offset: 0x13C76, size: 0x8, addend: 0x0, symName: '__ZNSt3__13getB8ue170006ILm0EJOZ12combinationsiiNS_8functionIFvNS_6vectorIbNS_9allocatorIbEEEEEEEE3$_0EEERNS_13tuple_elementIXT_ENS_5tupleIJDpT0_EEEE4typeERSE_', symObjAddr: 0x864C, symBinAddr: 0x10000AA38, symSize: 0x24 }
  - { offsetInCU: 0x13CB9, offset: 0x13CB9, size: 0x8, addend: 0x0, symName: '__ZNSt3__13getB8ue170006ILm0EJONS_9allocatorIZ12combinationsiiNS_8functionIFvNS_6vectorIbNS1_IbEEEEEEEE3$_0EEEEERNS_13tuple_elementIXT_ENS_5tupleIJDpT0_EEEE4typeERSF_', symObjAddr: 0x8688, symBinAddr: 0x10000AA74, symSize: 0x24 }
  - { offsetInCU: 0x13E89, offset: 0x13E89, size: 0x8, addend: 0x0, symName: '__ZNSt3__116forward_as_tupleB8ue170006IJRKZ12combinationsiiNS_8functionIFvNS_6vectorIbNS_9allocatorIbEEEEEEEE3$_0EEENS_5tupleIJDpOT_EEESE_', symObjAddr: 0x8A84, symBinAddr: 0x10000AE70, symSize: 0x2C }
  - { offsetInCU: 0x13ED8, offset: 0x13ED8, size: 0x8, addend: 0x0, symName: '__ZNSt3__13getB8ue170006ILm0EJRKZ12combinationsiiNS_8functionIFvNS_6vectorIbNS_9allocatorIbEEEEEEEE3$_0EEERNS_13tuple_elementIXT_ENS_5tupleIJDpT0_EEEE4typeERSF_', symObjAddr: 0x8C7C, symBinAddr: 0x10000B068, symSize: 0x24 }
  - { offsetInCU: 0x13F1B, offset: 0x13F1B, size: 0x8, addend: 0x0, symName: '__ZNSt3__116forward_as_tupleB8ue170006IJRKNS_9allocatorIZ12combinationsiiNS_8functionIFvNS_6vectorIbNS1_IbEEEEEEEE3$_0EEEEENS_5tupleIJDpOT_EEESF_', symObjAddr: 0x8FDC, symBinAddr: 0x10000B3C8, symSize: 0x2C }
  - { offsetInCU: 0x13F6A, offset: 0x13F6A, size: 0x8, addend: 0x0, symName: '__ZNSt3__13getB8ue170006ILm0EJRKNS_9allocatorIZ12combinationsiiNS_8functionIFvNS_6vectorIbNS1_IbEEEEEEEE3$_0EEEEERNS_13tuple_elementIXT_ENS_5tupleIJDpT0_EEEE4typeERSG_', symObjAddr: 0x91C0, symBinAddr: 0x10000B5AC, symSize: 0x24 }
  - { offsetInCU: 0x14055, offset: 0x14055, size: 0x8, addend: 0x0, symName: '__ZNSt3__18__invokeB8ue170006IRZ12combinationsiiNS_8functionIFvNS_6vectorIbNS_9allocatorIbEEEEEEEE3$_0JiEEEDTclclsr3stdE7declvalIT_EEspclsr3stdE7declvalIT0_EEEEOSA_DpOSB_', symObjAddr: 0x928C, symBinAddr: 0x10000B678, symSize: 0x30 }
  - { offsetInCU: 0x140A2, offset: 0x140A2, size: 0x8, addend: 0x0, symName: __ZNSt3__119__allocate_at_leastB8ue170006INS_9allocatorImEEEENS_19__allocation_resultINS_16allocator_traitsIT_E7pointerEEERS5_m, symObjAddr: 0x9A64, symBinAddr: 0x10000BE50, symSize: 0x40 }
  - { offsetInCU: 0x142F1, offset: 0x142F1, size: 0x8, addend: 0x0, symName: __ZNSt3__16__copyB8ue170006INS_17_ClassicAlgPolicyENS_14__bit_iteratorINS_6vectorIbNS_9allocatorIbEEEELb1ELm0EEES7_NS2_IS6_Lb0ELm0EEEEENS_4pairIT0_T2_EESA_T1_SB_, symObjAddr: 0x9B8C, symBinAddr: 0x10000BF78, symSize: 0x7C }
  - { offsetInCU: 0x1435E, offset: 0x1435E, size: 0x8, addend: 0x0, symName: __ZNSt3__123__dispatch_copy_or_moveB8ue170006INS_17_ClassicAlgPolicyENS_11__copy_loopIS1_EENS_14__copy_trivialENS_14__bit_iteratorINS_6vectorIbNS_9allocatorIbEEEELb1ELm0EEESA_NS5_IS9_Lb0ELm0EEEEENS_4pairIT2_T4_EESD_T3_SE_, symObjAddr: 0x9C6C, symBinAddr: 0x10000C058, symSize: 0x7C }
  - { offsetInCU: 0x143DD, offset: 0x143DD, size: 0x8, addend: 0x0, symName: __ZNSt3__121__unwrap_and_dispatchB8ue170006INS_10__overloadINS_11__copy_loopINS_17_ClassicAlgPolicyEEENS_14__copy_trivialEEENS_14__bit_iteratorINS_6vectorIbNS_9allocatorIbEEEELb1ELm0EEESC_NS7_ISB_Lb0ELm0EEELi0EEENS_4pairIT0_T2_EESF_T1_SG_, symObjAddr: 0x9D1C, symBinAddr: 0x10000C108, symSize: 0x150 }
  - { offsetInCU: 0x1446E, offset: 0x1446E, size: 0x8, addend: 0x0, symName: __ZNSt3__114__unwrap_rangeB8ue170006INS_14__bit_iteratorINS_6vectorIbNS_9allocatorIbEEEELb1ELm0EEES6_EENS_4pairIT0_S8_EET_SA_, symObjAddr: 0x9E6C, symBinAddr: 0x10000C258, symSize: 0x84 }
  - { offsetInCU: 0x1461F, offset: 0x1461F, size: 0x8, addend: 0x0, symName: __ZNSt3__113__unwrap_iterB8ue170006INS_14__bit_iteratorINS_6vectorIbNS_9allocatorIbEEEELb0ELm0EEENS_18__unwrap_iter_implIS6_Lb0EEELi0EEEDTclsrT0_8__unwrapclsr3stdE7declvalIT_EEEESA_, symObjAddr: 0x9FB4, symBinAddr: 0x10000C3A0, symSize: 0x44 }
  - { offsetInCU: 0x14664, offset: 0x14664, size: 0x8, addend: 0x0, symName: __ZNSt3__19make_pairB8ue170006INS_14__bit_iteratorINS_6vectorIbNS_9allocatorIbEEEELb1ELm0EEENS1_IS5_Lb0ELm0EEEEENS_4pairINS_18__unwrap_ref_decayIT_E4typeENS9_IT0_E4typeEEEOSA_OSD_, symObjAddr: 0x9FF8, symBinAddr: 0x10000C3E4, symSize: 0x40 }
  - { offsetInCU: 0x146B3, offset: 0x146B3, size: 0x8, addend: 0x0, symName: __ZNSt3__114__rewrap_rangeB8ue170006INS_14__bit_iteratorINS_6vectorIbNS_9allocatorIbEEEELb1ELm0EEES6_EET_S7_T0_, symObjAddr: 0xA038, symBinAddr: 0x10000C424, symSize: 0x5C }
  - { offsetInCU: 0x146FF, offset: 0x146FF, size: 0x8, addend: 0x0, symName: __ZNSt3__113__rewrap_iterB8ue170006INS_14__bit_iteratorINS_6vectorIbNS_9allocatorIbEEEELb0ELm0EEES6_NS_18__unwrap_iter_implIS6_Lb0EEEEET_S9_T0_, symObjAddr: 0xA094, symBinAddr: 0x10000C480, symSize: 0x74 }
  - { offsetInCU: 0x14756, offset: 0x14756, size: 0x8, addend: 0x0, symName: __ZNSt3__19make_pairB8ue170006INS_14__bit_iteratorINS_6vectorIbNS_9allocatorIbEEEELb1ELm0EEES6_EENS_4pairINS_18__unwrap_ref_decayIT_E4typeENS8_IT0_E4typeEEEOS9_OSC_, symObjAddr: 0xA108, symBinAddr: 0x10000C4F4, symSize: 0x38 }
  - { offsetInCU: 0x147A5, offset: 0x147A5, size: 0x8, addend: 0x0, symName: __ZNSt3__113__unwrap_iterB8ue170006INS_14__bit_iteratorINS_6vectorIbNS_9allocatorIbEEEELb1ELm0EEENS_18__unwrap_iter_implIS6_Lb0EEELi0EEEDTclsrT0_8__unwrapclsr3stdE7declvalIT_EEEESA_, symObjAddr: 0xA140, symBinAddr: 0x10000C52C, symSize: 0x44 }
  - { offsetInCU: 0x14905, offset: 0x14905, size: 0x8, addend: 0x0, symName: __ZNSt3__1neB8ue170006ERKNS_14__bit_iteratorINS_6vectorIbNS_9allocatorIbEEEELb1ELm0EEES7_, symObjAddr: 0xA218, symBinAddr: 0x10000C604, symSize: 0x34 }
  - { offsetInCU: 0x14943, offset: 0x14943, size: 0x8, addend: 0x0, symName: __ZNSt3__1eqB8ue170006ERKNS_14__bit_iteratorINS_6vectorIbNS_9allocatorIbEEEELb1ELm0EEES7_, symObjAddr: 0xA424, symBinAddr: 0x10000C810, symSize: 0x64 }
  - { offsetInCU: 0x149C8, offset: 0x149C8, size: 0x8, addend: 0x0, symName: __ZNSt3__113__rewrap_iterB8ue170006INS_14__bit_iteratorINS_6vectorIbNS_9allocatorIbEEEELb1ELm0EEES6_NS_18__unwrap_iter_implIS6_Lb0EEEEET_S9_T0_, symObjAddr: 0xA614, symBinAddr: 0x10000CA00, symSize: 0x74 }
  - { offsetInCU: 0x14A1D, offset: 0x14A1D, size: 0x8, addend: 0x0, symName: __ZNSt3__16__copyB8ue170006INS_17_ClassicAlgPolicyENS_14__bit_iteratorINS_6vectorIbNS_9allocatorIbEEEELb0ELm0EEES7_S7_EENS_4pairIT0_T2_EES9_T1_SA_, symObjAddr: 0xB0B8, symBinAddr: 0x10000D4A4, symSize: 0x88 }
  - { offsetInCU: 0x14A8C, offset: 0x14A8C, size: 0x8, addend: 0x0, symName: __ZNSt3__123__dispatch_copy_or_moveB8ue170006INS_17_ClassicAlgPolicyENS_11__copy_loopIS1_EENS_14__copy_trivialENS_14__bit_iteratorINS_6vectorIbNS_9allocatorIbEEEELb0ELm0EEESA_SA_EENS_4pairIT2_T4_EESC_T3_SD_, symObjAddr: 0xB140, symBinAddr: 0x10000D52C, symSize: 0x88 }
  - { offsetInCU: 0x14B0D, offset: 0x14B0D, size: 0x8, addend: 0x0, symName: __ZNSt3__121__unwrap_and_dispatchB8ue170006INS_10__overloadINS_11__copy_loopINS_17_ClassicAlgPolicyEEENS_14__copy_trivialEEENS_14__bit_iteratorINS_6vectorIbNS_9allocatorIbEEEELb0ELm0EEESC_SC_Li0EEENS_4pairIT0_T2_EESE_T1_SF_, symObjAddr: 0xB1C8, symBinAddr: 0x10000D5B4, symSize: 0x15C }
  - { offsetInCU: 0x14BA0, offset: 0x14BA0, size: 0x8, addend: 0x0, symName: __ZNSt3__114__unwrap_rangeB8ue170006INS_14__bit_iteratorINS_6vectorIbNS_9allocatorIbEEEELb0ELm0EEES6_EENS_4pairIT0_S8_EET_SA_, symObjAddr: 0xB324, symBinAddr: 0x10000D710, symSize: 0x8C }
  - { offsetInCU: 0x14CC2, offset: 0x14CC2, size: 0x8, addend: 0x0, symName: __ZNSt3__19make_pairB8ue170006INS_14__bit_iteratorINS_6vectorIbNS_9allocatorIbEEEELb0ELm0EEES6_EENS_4pairINS_18__unwrap_ref_decayIT_E4typeENS8_IT0_E4typeEEEOS9_OSC_, symObjAddr: 0xB468, symBinAddr: 0x10000D854, symSize: 0x40 }
  - { offsetInCU: 0x14D11, offset: 0x14D11, size: 0x8, addend: 0x0, symName: __ZNSt3__114__rewrap_rangeB8ue170006INS_14__bit_iteratorINS_6vectorIbNS_9allocatorIbEEEELb0ELm0EEES6_EET_S7_T0_, symObjAddr: 0xB4A8, symBinAddr: 0x10000D894, symSize: 0x6C }
  - { offsetInCU: 0x14D5F, offset: 0x14D5F, size: 0x8, addend: 0x0, symName: __ZNSt3__1neB8ue170006ERKNS_14__bit_iteratorINS_6vectorIbNS_9allocatorIbEEEELb0ELm0EEES7_, symObjAddr: 0xB514, symBinAddr: 0x10000D900, symSize: 0x34 }
  - { offsetInCU: 0x14D9D, offset: 0x14D9D, size: 0x8, addend: 0x0, symName: __ZNSt3__1eqB8ue170006ERKNS_14__bit_iteratorINS_6vectorIbNS_9allocatorIbEEEELb0ELm0EEES7_, symObjAddr: 0xB588, symBinAddr: 0x10000D974, symSize: 0x64 }
  - { offsetInCU: 0x14DDB, offset: 0x14DDB, size: 0x8, addend: 0x0, symName: __ZNSt3__14swapB8ue170006IPmEENS_9enable_ifIXaasr21is_move_constructibleIT_EE5valuesr18is_move_assignableIS3_EE5valueEvE4typeERS3_S6_, symObjAddr: 0xB69C, symBinAddr: 0x10000DA88, symSize: 0x3C }
  - { offsetInCU: 0x14E2C, offset: 0x14E2C, size: 0x8, addend: 0x0, symName: __ZNSt3__14swapB8ue170006ImEENS_9enable_ifIXaasr21is_move_constructibleIT_EE5valuesr18is_move_assignableIS2_EE5valueEvE4typeERS2_S5_, symObjAddr: 0xB6D8, symBinAddr: 0x10000DAC4, symSize: 0x3C }
  - { offsetInCU: 0x14E7D, offset: 0x14E7D, size: 0x8, addend: 0x0, symName: __ZNSt3__116__swap_allocatorB8ue170006INS_9allocatorImEEEEvRT_S4_NS_17integral_constantIbLb0EEE, symObjAddr: 0xB714, symBinAddr: 0x10000DB00, symSize: 0x14 }
  - { offsetInCU: 0x15507, offset: 0x15507, size: 0x8, addend: 0x0, symName: '__ZNSt3__116forward_as_tupleB8ue170006IJZ7subsetsiNS_8functionIFvNS_6vectorIbNS_9allocatorIbEEEEEEEE3$_1EEENS_5tupleIJDpOT_EEESC_', symObjAddr: 0xC1CC, symBinAddr: 0x10000E5B8, symSize: 0x2C }
  - { offsetInCU: 0x15541, offset: 0x15541, size: 0x8, addend: 0x0, symName: '__ZNSt3__116forward_as_tupleB8ue170006IJNS_9allocatorIZ7subsetsiNS_8functionIFvNS_6vectorIbNS1_IbEEEEEEEE3$_1EEEEENS_5tupleIJDpOT_EEESD_', symObjAddr: 0xC1F8, symBinAddr: 0x10000E5E4, symSize: 0x2C }
  - { offsetInCU: 0x155A5, offset: 0x155A5, size: 0x8, addend: 0x0, symName: '__ZNSt3__13getB8ue170006ILm0EJOZ7subsetsiNS_8functionIFvNS_6vectorIbNS_9allocatorIbEEEEEEEE3$_1EEERNS_13tuple_elementIXT_ENS_5tupleIJDpT0_EEEE4typeERSE_', symObjAddr: 0xC518, symBinAddr: 0x10000E904, symSize: 0x24 }
  - { offsetInCU: 0x155E8, offset: 0x155E8, size: 0x8, addend: 0x0, symName: '__ZNSt3__13getB8ue170006ILm0EJONS_9allocatorIZ7subsetsiNS_8functionIFvNS_6vectorIbNS1_IbEEEEEEEE3$_1EEEEERNS_13tuple_elementIXT_ENS_5tupleIJDpT0_EEEE4typeERSF_', symObjAddr: 0xC554, symBinAddr: 0x10000E940, symSize: 0x24 }
  - { offsetInCU: 0x157B8, offset: 0x157B8, size: 0x8, addend: 0x0, symName: '__ZNSt3__116forward_as_tupleB8ue170006IJRKZ7subsetsiNS_8functionIFvNS_6vectorIbNS_9allocatorIbEEEEEEEE3$_1EEENS_5tupleIJDpOT_EEESE_', symObjAddr: 0xC950, symBinAddr: 0x10000ED3C, symSize: 0x2C }
  - { offsetInCU: 0x15807, offset: 0x15807, size: 0x8, addend: 0x0, symName: '__ZNSt3__13getB8ue170006ILm0EJRKZ7subsetsiNS_8functionIFvNS_6vectorIbNS_9allocatorIbEEEEEEEE3$_1EEERNS_13tuple_elementIXT_ENS_5tupleIJDpT0_EEEE4typeERSF_', symObjAddr: 0xCB48, symBinAddr: 0x10000EF34, symSize: 0x24 }
  - { offsetInCU: 0x1584A, offset: 0x1584A, size: 0x8, addend: 0x0, symName: '__ZNSt3__116forward_as_tupleB8ue170006IJRKNS_9allocatorIZ7subsetsiNS_8functionIFvNS_6vectorIbNS1_IbEEEEEEEE3$_1EEEEENS_5tupleIJDpOT_EEESF_', symObjAddr: 0xCEA8, symBinAddr: 0x10000F294, symSize: 0x2C }
  - { offsetInCU: 0x15899, offset: 0x15899, size: 0x8, addend: 0x0, symName: '__ZNSt3__13getB8ue170006ILm0EJRKNS_9allocatorIZ7subsetsiNS_8functionIFvNS_6vectorIbNS1_IbEEEEEEEE3$_1EEEEERNS_13tuple_elementIXT_ENS_5tupleIJDpT0_EEEE4typeERSG_', symObjAddr: 0xD08C, symBinAddr: 0x10000F478, symSize: 0x24 }
  - { offsetInCU: 0x158DC, offset: 0x158DC, size: 0x8, addend: 0x0, symName: '__ZNSt3__18__invokeB8ue170006IRZ7subsetsiNS_8functionIFvNS_6vectorIbNS_9allocatorIbEEEEEEEE3$_1JEEEDTclclsr3stdE7declvalIT_EEspclsr3stdE7declvalIT0_EEEEOSA_DpOSB_', symObjAddr: 0xD148, symBinAddr: 0x10000F534, symSize: 0x24 }
  - { offsetInCU: 0x15915, offset: 0x15915, size: 0x8, addend: 0x0, symName: __ZNSt3__112__to_addressB8ue170006INS_4pairI6MatrixiEEEEPT_S5_, symObjAddr: 0xD95C, symBinAddr: 0x10000FD48, symSize: 0x14 }
  - { offsetInCU: 0x15949, offset: 0x15949, size: 0x8, addend: 0x0, symName: __ZNSt3__119__allocate_at_leastB8ue170006INS_9allocatorINS_4pairI6MatrixiEEEEEENS_19__allocation_resultINS_16allocator_traitsIT_E7pointerEEERS8_m, symObjAddr: 0xE2EC, symBinAddr: 0x1000106D8, symSize: 0x40 }
  - { offsetInCU: 0x1598C, offset: 0x1598C, size: 0x8, addend: 0x0, symName: __ZNSt3__142__uninitialized_allocator_move_if_noexceptB8ue170006INS_9allocatorINS_4pairI6MatrixiEEEENS_16reverse_iteratorIPS4_EES8_S8_EET2_RT_T0_T1_S9_, symObjAddr: 0xE4A4, symBinAddr: 0x100010890, symSize: 0x12C }
  - { offsetInCU: 0x15A2D, offset: 0x15A2D, size: 0x8, addend: 0x0, symName: __ZNSt3__14swapB8ue170006IPNS_4pairI6MatrixiEEEENS_9enable_ifIXaasr21is_move_constructibleIT_EE5valuesr18is_move_assignableIS6_EE5valueEvE4typeERS6_S9_, symObjAddr: 0xE61C, symBinAddr: 0x100010A08, symSize: 0x3C }
  - { offsetInCU: 0x15A7D, offset: 0x15A7D, size: 0x8, addend: 0x0, symName: __ZNSt3__122__make_exception_guardB8ue170006INS_29_AllocatorDestroyRangeReverseINS_9allocatorINS_4pairI6MatrixiEEEENS_16reverse_iteratorIPS5_EEEEEENS_28__exception_guard_exceptionsIT_EESC_, symObjAddr: 0xE720, symBinAddr: 0x100010B0C, symSize: 0x4C }
  - { offsetInCU: 0x15AB3, offset: 0x15AB3, size: 0x8, addend: 0x0, symName: __ZNSt3__1neB8ue170006IPNS_4pairI6MatrixiEES4_EEbRKNS_16reverse_iteratorIT_EERKNS5_IT0_EE, symObjAddr: 0xE7B0, symBinAddr: 0x100010B9C, symSize: 0x48 }
  - { offsetInCU: 0x15AFF, offset: 0x15AFF, size: 0x8, addend: 0x0, symName: __ZNSt3__112__to_addressB8ue170006INS_16reverse_iteratorIPNS_4pairI6MatrixiEEEEvEEu7__decayIDTclsr19__to_address_helperIT_EE6__callclsr3stdE7declvalIRKS7_EEEEES9_, symObjAddr: 0xE82C, symBinAddr: 0x100010C18, symSize: 0x24 }
  - { offsetInCU: 0x15B60, offset: 0x15B60, size: 0x8, addend: 0x0, symName: __ZNSt3__119__allocator_destroyB8ue170006INS_9allocatorINS_4pairI6MatrixiEEEENS_16reverse_iteratorINS6_IPS4_EEEES9_EEvRT_T0_T1_, symObjAddr: 0xECEC, symBinAddr: 0x1000110D8, symSize: 0x70 }
  - { offsetInCU: 0x15BC4, offset: 0x15BC4, size: 0x8, addend: 0x0, symName: __ZNSt3__1neB8ue170006INS_16reverse_iteratorIPNS_4pairI6MatrixiEEEES6_EEbRKNS1_IT_EERKNS1_IT0_EE, symObjAddr: 0xED98, symBinAddr: 0x100011184, symSize: 0x60 }
  - { offsetInCU: 0x15C10, offset: 0x15C10, size: 0x8, addend: 0x0, symName: __ZNSt3__112__to_addressB8ue170006INS_16reverse_iteratorINS1_IPNS_4pairI6MatrixiEEEEEEvEEu7__decayIDTclsr19__to_address_helperIT_EE6__callclsr3stdE7declvalIRKS8_EEEEESA_, symObjAddr: 0xEDF8, symBinAddr: 0x1000111E4, symSize: 0x24 }
  - { offsetInCU: 0x15DD4, offset: 0x15DD4, size: 0x8, addend: 0x0, symName: '__ZNSt3__116forward_as_tupleB8ue170006IJZ36brouwer_zimmerman_meet_in_the_middleRKNS_6vectorINS_4pairI6MatrixiEENS_9allocatorIS4_EEEEE3$_2EEENS_5tupleIJDpOT_EEESE_', symObjAddr: 0xF92C, symBinAddr: 0x100011D18, symSize: 0x2C }
  - { offsetInCU: 0x15E0E, offset: 0x15E0E, size: 0x8, addend: 0x0, symName: '__ZNSt3__116forward_as_tupleB8ue170006IJNS_9allocatorIZ36brouwer_zimmerman_meet_in_the_middleRKNS_6vectorINS_4pairI6MatrixiEENS1_IS5_EEEEE3$_2EEEEENS_5tupleIJDpOT_EEESF_', symObjAddr: 0xF958, symBinAddr: 0x100011D44, symSize: 0x2C }
  - { offsetInCU: 0x15E72, offset: 0x15E72, size: 0x8, addend: 0x0, symName: '__ZNSt3__13getB8ue170006ILm0EJOZ36brouwer_zimmerman_meet_in_the_middleRKNS_6vectorINS_4pairI6MatrixiEENS_9allocatorIS4_EEEEE3$_2EEERNS_13tuple_elementIXT_ENS_5tupleIJDpT0_EEEE4typeERSG_', symObjAddr: 0xFC70, symBinAddr: 0x10001205C, symSize: 0x24 }
  - { offsetInCU: 0x15EB5, offset: 0x15EB5, size: 0x8, addend: 0x0, symName: '__ZNSt3__13getB8ue170006ILm0EJONS_9allocatorIZ36brouwer_zimmerman_meet_in_the_middleRKNS_6vectorINS_4pairI6MatrixiEENS1_IS5_EEEEE3$_2EEEEERNS_13tuple_elementIXT_ENS_5tupleIJDpT0_EEEE4typeERSH_', symObjAddr: 0xFCAC, symBinAddr: 0x100012098, symSize: 0x24 }
  - { offsetInCU: 0x163DD, offset: 0x163DD, size: 0x8, addend: 0x0, symName: '__ZNSt3__116forward_as_tupleB8ue170006IJRKZ36brouwer_zimmerman_meet_in_the_middleRKNS_6vectorINS_4pairI6MatrixiEENS_9allocatorIS4_EEEEE3$_2EEENS_5tupleIJDpOT_EEESG_', symObjAddr: 0x10248, symBinAddr: 0x100012634, symSize: 0x2C }
  - { offsetInCU: 0x1642C, offset: 0x1642C, size: 0x8, addend: 0x0, symName: '__ZNSt3__13getB8ue170006ILm0EJRKZ36brouwer_zimmerman_meet_in_the_middleRKNS_6vectorINS_4pairI6MatrixiEENS_9allocatorIS4_EEEEE3$_2EEERNS_13tuple_elementIXT_ENS_5tupleIJDpT0_EEEE4typeERSH_', symObjAddr: 0x10438, symBinAddr: 0x100012824, symSize: 0x24 }
  - { offsetInCU: 0x1646F, offset: 0x1646F, size: 0x8, addend: 0x0, symName: '__ZNSt3__116forward_as_tupleB8ue170006IJRKNS_9allocatorIZ36brouwer_zimmerman_meet_in_the_middleRKNS_6vectorINS_4pairI6MatrixiEENS1_IS5_EEEEE3$_2EEEEENS_5tupleIJDpOT_EEESH_', symObjAddr: 0x10798, symBinAddr: 0x100012B84, symSize: 0x2C }
  - { offsetInCU: 0x164BE, offset: 0x164BE, size: 0x8, addend: 0x0, symName: '__ZNSt3__13getB8ue170006ILm0EJRKNS_9allocatorIZ36brouwer_zimmerman_meet_in_the_middleRKNS_6vectorINS_4pairI6MatrixiEENS1_IS5_EEEEE3$_2EEEEERNS_13tuple_elementIXT_ENS_5tupleIJDpT0_EEEE4typeERSI_', symObjAddr: 0x1097C, symBinAddr: 0x100012D68, symSize: 0x24 }
  - { offsetInCU: 0x16501, offset: 0x16501, size: 0x8, addend: 0x0, symName: '__ZNSt3__18__invokeB8ue170006IRZ36brouwer_zimmerman_meet_in_the_middleRKNS_6vectorINS_4pairI6MatrixiEENS_9allocatorIS4_EEEEE3$_2JNS1_IbNS5_IbEEEEEEEDTclclsr3stdE7declvalIT_EEspclsr3stdE7declvalIT0_EEEEOSE_DpOSF_', symObjAddr: 0x10A48, symBinAddr: 0x100012E34, symSize: 0x2C }
  - { offsetInCU: 0x1654E, offset: 0x1654E, size: 0x8, addend: 0x0, symName: __ZNSt3__13minB8ue170006IiEERKT_S3_S3_, symObjAddr: 0x10E68, symBinAddr: 0x100013254, symSize: 0x2C }
  - { offsetInCU: 0x16591, offset: 0x16591, size: 0x8, addend: 0x0, symName: __ZNSt3__13minB8ue170006IiNS_6__lessIvvEEEERKT_S5_S5_T0_, symObjAddr: 0x11454, symBinAddr: 0x100013840, symSize: 0x54 }
  - { offsetInCU: 0x16C34, offset: 0x16C34, size: 0x8, addend: 0x0, symName: '__ZNSt3__116forward_as_tupleB8ue170006IJZ20brute_force_distance6MatrixE3$_3EEENS_5tupleIJDpOT_EEES6_', symObjAddr: 0x11FD4, symBinAddr: 0x1000143C0, symSize: 0x2C }
  - { offsetInCU: 0x16C6E, offset: 0x16C6E, size: 0x8, addend: 0x0, symName: '__ZNSt3__116forward_as_tupleB8ue170006IJNS_9allocatorIZ20brute_force_distance6MatrixE3$_3EEEEENS_5tupleIJDpOT_EEES8_', symObjAddr: 0x12000, symBinAddr: 0x1000143EC, symSize: 0x2C }
  - { offsetInCU: 0x16CD2, offset: 0x16CD2, size: 0x8, addend: 0x0, symName: '__ZNSt3__13getB8ue170006ILm0EJOZ20brute_force_distance6MatrixE3$_3EEERNS_13tuple_elementIXT_ENS_5tupleIJDpT0_EEEE4typeERS8_', symObjAddr: 0x12320, symBinAddr: 0x10001470C, symSize: 0x24 }
  - { offsetInCU: 0x16D15, offset: 0x16D15, size: 0x8, addend: 0x0, symName: '__ZNSt3__13getB8ue170006ILm0EJONS_9allocatorIZ20brute_force_distance6MatrixE3$_3EEEEERNS_13tuple_elementIXT_ENS_5tupleIJDpT0_EEEE4typeERSA_', symObjAddr: 0x1235C, symBinAddr: 0x100014748, symSize: 0x24 }
  - { offsetInCU: 0x16EE5, offset: 0x16EE5, size: 0x8, addend: 0x0, symName: '__ZNSt3__116forward_as_tupleB8ue170006IJRKZ20brute_force_distance6MatrixE3$_3EEENS_5tupleIJDpOT_EEES8_', symObjAddr: 0x12758, symBinAddr: 0x100014B44, symSize: 0x2C }
  - { offsetInCU: 0x16F34, offset: 0x16F34, size: 0x8, addend: 0x0, symName: '__ZNSt3__13getB8ue170006ILm0EJRKZ20brute_force_distance6MatrixE3$_3EEERNS_13tuple_elementIXT_ENS_5tupleIJDpT0_EEEE4typeERS9_', symObjAddr: 0x12950, symBinAddr: 0x100014D3C, symSize: 0x24 }
  - { offsetInCU: 0x16F77, offset: 0x16F77, size: 0x8, addend: 0x0, symName: '__ZNSt3__116forward_as_tupleB8ue170006IJRKNS_9allocatorIZ20brute_force_distance6MatrixE3$_3EEEEENS_5tupleIJDpOT_EEESA_', symObjAddr: 0x12CAC, symBinAddr: 0x100015098, symSize: 0x2C }
  - { offsetInCU: 0x16FC6, offset: 0x16FC6, size: 0x8, addend: 0x0, symName: '__ZNSt3__13getB8ue170006ILm0EJRKNS_9allocatorIZ20brute_force_distance6MatrixE3$_3EEEEERNS_13tuple_elementIXT_ENS_5tupleIJDpT0_EEEE4typeERSB_', symObjAddr: 0x12E90, symBinAddr: 0x10001527C, symSize: 0x24 }
  - { offsetInCU: 0x17009, offset: 0x17009, size: 0x8, addend: 0x0, symName: '__ZNSt3__18__invokeB8ue170006IRZ20brute_force_distance6MatrixE3$_3JNS_6vectorIbNS_9allocatorIbEEEEEEEDTclclsr3stdE7declvalIT_EEspclsr3stdE7declvalIT0_EEEEOS8_DpOS9_', symObjAddr: 0x12F5C, symBinAddr: 0x100015348, symSize: 0x70 }
  - { offsetInCU: 0x17056, offset: 0x17056, size: 0x8, addend: 0x0, symName: __ZNSt3__1lsB8ue170006INS_11char_traitsIcEEEERNS_13basic_ostreamIcT_EES6_c, symObjAddr: 0x131C4, symBinAddr: 0x1000155B0, symSize: 0x34 }
  - { offsetInCU: 0x1709C, offset: 0x1709C, size: 0x8, addend: 0x0, symName: __ZNSt3__1lsB8ue170006INS_11char_traitsIcEEEERNS_13basic_ostreamIcT_EES6_PKc, symObjAddr: 0x131F8, symBinAddr: 0x1000155E4, symSize: 0x48 }
  - { offsetInCU: 0x170E2, offset: 0x170E2, size: 0x8, addend: 0x0, symName: __ZNSt3__116__pad_and_outputB8ue170006IcNS_11char_traitsIcEEEENS_19ostreambuf_iteratorIT_T0_EES6_PKS4_S8_S8_RNS_8ios_baseES4_, symObjAddr: 0x13448, symBinAddr: 0x100015834, symSize: 0x240 }
  - { offsetInCU: 0x171B2, offset: 0x171B2, size: 0x8, addend: 0x0, symName: __ZNSt3__112__to_addressB8ue170006IKcEEPT_S3_, symObjAddr: 0x139B0, symBinAddr: 0x100015D9C, symSize: 0x14 }
  - { offsetInCU: 0x17219, offset: 0x17219, size: 0x8, addend: 0x0, symName: __ZNSt3__19use_facetB8ue170006INS_5ctypeIcEEEERKT_RKNS_6localeE, symObjAddr: 0x13C30, symBinAddr: 0x10001601C, symSize: 0x2C }
  - { offsetInCU: 0x176E7, offset: 0x176E7, size: 0x8, addend: 0x0, symName: __ZNSt3__118__constexpr_strlenB8ue170006EPKc, symObjAddr: 0x13CFC, symBinAddr: 0x1000160E8, symSize: 0x24 }
  - { offsetInCU: 0x18082, offset: 0x18082, size: 0x8, addend: 0x0, symName: __ZSt28__throw_bad_array_new_lengthB8ue170006v, symObjAddr: 0x25E4, symBinAddr: 0x1000049D0, symSize: 0x34 }
  - { offsetInCU: 0x18894, offset: 0x18894, size: 0x8, addend: 0x0, symName: __ZNSt3__16vectorINS0_I3GF4NS_9allocatorIS1_EEEENS2_IS4_EEE26__swap_out_circular_bufferERNS_14__split_bufferIS4_RS5_EE, symObjAddr: 0x4F28, symBinAddr: 0x100007314, symSize: 0x110 }
  - { offsetInCU: 0x1891C, offset: 0x1891C, size: 0x8, addend: 0x0, symName: __ZNSt3__16vectorI3GF4NS_9allocatorIS1_EEE26__swap_out_circular_bufferERNS_14__split_bufferIS1_RS3_EE, symObjAddr: 0x6490, symBinAddr: 0x10000887C, symSize: 0x110 }
  - { offsetInCU: 0x18B44, offset: 0x18B44, size: 0x8, addend: 0x0, symName: __Z12combinationsiiNSt3__18functionIFvNS_6vectorIbNS_9allocatorIbEEEEEEE, symObjAddr: 0x4B4, symBinAddr: 0x1000028A0, symSize: 0x10C }
  - { offsetInCU: 0x18FA0, offset: 0x18FA0, size: 0x8, addend: 0x0, symName: __Z7subsetsiNSt3__18functionIFvNS_6vectorIbNS_9allocatorIbEEEEEEE, symObjAddr: 0x7C0, symBinAddr: 0x100002BAC, symSize: 0x104 }
  - { offsetInCU: 0x19601, offset: 0x19601, size: 0x8, addend: 0x0, symName: __ZNSt3__16vectorINS_4pairI6MatrixiEENS_9allocatorIS3_EEE26__swap_out_circular_bufferERNS_14__split_bufferIS3_RS5_EE, symObjAddr: 0xDF7C, symBinAddr: 0x100010368, symSize: 0x110 }
  - { offsetInCU: 0x1969F, offset: 0x1969F, size: 0x8, addend: 0x0, symName: __Z36brouwer_zimmerman_meet_in_the_middleRKNSt3__16vectorINS_4pairI6MatrixiEENS_9allocatorIS3_EEEE, symObjAddr: 0xCEC, symBinAddr: 0x1000030D8, symSize: 0x2AC }
  - { offsetInCU: 0x19A7B, offset: 0x19A7B, size: 0x8, addend: 0x0, symName: __Z20brute_force_distance6Matrix, symObjAddr: 0x1258, symBinAddr: 0x100003644, symSize: 0xE4 }
  - { offsetInCU: 0x1C1D7, offset: 0x1C1D7, size: 0x8, addend: 0x0, symName: __Z31restricted_gaussian_eliminationR6Matrixiiii, symObjAddr: 0x0, symBinAddr: 0x1000023EC, symSize: 0x250 }
  - { offsetInCU: 0x1C2E9, offset: 0x1C2E9, size: 0x8, addend: 0x0, symName: __ZN6Matrix3getEii, symObjAddr: 0x250, symBinAddr: 0x10000263C, symSize: 0x44 }
  - { offsetInCU: 0x1C32B, offset: 0x1C32B, size: 0x8, addend: 0x0, symName: __ZN6Matrix8row_swapEii, symObjAddr: 0x294, symBinAddr: 0x100002680, symSize: 0x54 }
  - { offsetInCU: 0x1C36D, offset: 0x1C36D, size: 0x8, addend: 0x0, symName: __ZN6Matrix8col_swapEii, symObjAddr: 0x2E8, symBinAddr: 0x1000026D4, symSize: 0xA0 }
  - { offsetInCU: 0x1C3CC, offset: 0x1C3CC, size: 0x8, addend: 0x0, symName: __ZN6Matrix7row_addEii3GF4, symObjAddr: 0x388, symBinAddr: 0x100002774, symSize: 0xCC }
  - { offsetInCU: 0x1C439, offset: 0x1C439, size: 0x8, addend: 0x0, symName: __Zdv3GF4S_, symObjAddr: 0x454, symBinAddr: 0x100002840, symSize: 0x60 }
  - { offsetInCU: 0x1C474, offset: 0x1C474, size: 0x8, addend: 0x0, symName: __ZNSt3__16vectorIbNS_9allocatorIbEEEC1B8ue170006Ev, symObjAddr: 0x5C0, symBinAddr: 0x1000029AC, symSize: 0x2C }
  - { offsetInCU: 0x1C4A0, offset: 0x1C4A0, size: 0x8, addend: 0x0, symName: '__ZNSt3__18functionIFviEEC1IZ12combinationsiiNS0_IFvNS_6vectorIbNS_9allocatorIbEEEEEEEE3$_0vEET_', symObjAddr: 0x5EC, symBinAddr: 0x1000029D8, symSize: 0x34 }
  - { offsetInCU: 0x1C4E6, offset: 0x1C4E6, size: 0x8, addend: 0x0, symName: __ZNSt3__16vectorIbNS_9allocatorIbEEE7reserveEm, symObjAddr: 0x620, symBinAddr: 0x100002A0C, symSize: 0x118 }
  - { offsetInCU: 0x1C532, offset: 0x1C532, size: 0x8, addend: 0x0, symName: __ZNKSt3__18functionIFviEEclEi, symObjAddr: 0x738, symBinAddr: 0x100002B24, symSize: 0x30 }
  - { offsetInCU: 0x1C569, offset: 0x1C569, size: 0x8, addend: 0x0, symName: __ZNSt3__18functionIFviEED1Ev, symObjAddr: 0x768, symBinAddr: 0x100002B54, symSize: 0x2C }
  - { offsetInCU: 0x1C595, offset: 0x1C595, size: 0x8, addend: 0x0, symName: __ZNSt3__16vectorIbNS_9allocatorIbEEED1B8ue170006Ev, symObjAddr: 0x794, symBinAddr: 0x100002B80, symSize: 0x2C }
  - { offsetInCU: 0x1C5BF, offset: 0x1C5BF, size: 0x8, addend: 0x0, symName: '__ZNSt3__18functionIFvvEEC1IZ7subsetsiNS0_IFvNS_6vectorIbNS_9allocatorIbEEEEEEEE3$_1vEET_', symObjAddr: 0x8C4, symBinAddr: 0x100002CB0, symSize: 0x34 }
  - { offsetInCU: 0x1C605, offset: 0x1C605, size: 0x8, addend: 0x0, symName: __ZNKSt3__18functionIFvvEEclEv, symObjAddr: 0x8F8, symBinAddr: 0x100002CE4, symSize: 0x24 }
  - { offsetInCU: 0x1C62D, offset: 0x1C62D, size: 0x8, addend: 0x0, symName: __ZNSt3__18functionIFvvEED1Ev, symObjAddr: 0x91C, symBinAddr: 0x100002D08, symSize: 0x2C }
  - { offsetInCU: 0x1C658, offset: 0x1C658, size: 0x8, addend: 0x0, symName: __Z6weightNSt3__16vectorI3GF4NS_9allocatorIS1_EEEE, symObjAddr: 0x948, symBinAddr: 0x100002D34, symSize: 0xA0 }
  - { offsetInCU: 0x1C6E7, offset: 0x1C6E7, size: 0x8, addend: 0x0, symName: __ZNSt3__16vectorI3GF4NS_9allocatorIS1_EEE5beginB8ue170006Ev, symObjAddr: 0x9E8, symBinAddr: 0x100002DD4, symSize: 0x30 }
  - { offsetInCU: 0x1C70F, offset: 0x1C70F, size: 0x8, addend: 0x0, symName: __ZNSt3__16vectorI3GF4NS_9allocatorIS1_EEE3endB8ue170006Ev, symObjAddr: 0xA18, symBinAddr: 0x100002E04, symSize: 0x30 }
  - { offsetInCU: 0x1C737, offset: 0x1C737, size: 0x8, addend: 0x0, symName: __ZNKSt3__111__wrap_iterIP3GF4EdeB8ue170006Ev, symObjAddr: 0xA7C, symBinAddr: 0x100002E68, symSize: 0x18 }
  - { offsetInCU: 0x1C75D, offset: 0x1C75D, size: 0x8, addend: 0x0, symName: __ZNSt3__111__wrap_iterIP3GF4EppB8ue170006Ev, symObjAddr: 0xA94, symBinAddr: 0x100002E80, symSize: 0x20 }
  - { offsetInCU: 0x1C782, offset: 0x1C782, size: 0x8, addend: 0x0, symName: __Z26brouwer_zimmerman_matrices6Matrix, symObjAddr: 0xAB4, symBinAddr: 0x100002EA0, symSize: 0x168 }
  - { offsetInCU: 0x1C80B, offset: 0x1C80B, size: 0x8, addend: 0x0, symName: __ZNSt3__16vectorINS_4pairI6MatrixiEENS_9allocatorIS3_EEEC1B8ue170006Ev, symObjAddr: 0xC1C, symBinAddr: 0x100003008, symSize: 0x2C }
  - { offsetInCU: 0x1C835, offset: 0x1C835, size: 0x8, addend: 0x0, symName: __ZNSt3__16vectorINS_4pairI6MatrixiEENS_9allocatorIS3_EEE12emplace_backIJRS2_RiEEEvDpOT_, symObjAddr: 0xC48, symBinAddr: 0x100003034, symSize: 0x78 }
  - { offsetInCU: 0x1C88B, offset: 0x1C88B, size: 0x8, addend: 0x0, symName: __ZNSt3__16vectorINS_4pairI6MatrixiEENS_9allocatorIS3_EEED1B8ue170006Ev, symObjAddr: 0xCC0, symBinAddr: 0x1000030AC, symSize: 0x2C }
  - { offsetInCU: 0x1C8B5, offset: 0x1C8B5, size: 0x8, addend: 0x0, symName: __ZNKSt3__16vectorINS_4pairI6MatrixiEENS_9allocatorIS3_EEEixB8ue170006Em, symObjAddr: 0xF98, symBinAddr: 0x100003384, symSize: 0x2C }
  - { offsetInCU: 0x1C8EC, offset: 0x1C8EC, size: 0x8, addend: 0x0, symName: __ZNKSt3__16vectorINS_4pairI6MatrixiEENS_9allocatorIS3_EEE5beginB8ue170006Ev, symObjAddr: 0xFC4, symBinAddr: 0x1000033B0, symSize: 0x30 }
  - { offsetInCU: 0x1C914, offset: 0x1C914, size: 0x8, addend: 0x0, symName: __ZNKSt3__16vectorINS_4pairI6MatrixiEENS_9allocatorIS3_EEE3endB8ue170006Ev, symObjAddr: 0xFF4, symBinAddr: 0x1000033E0, symSize: 0x30 }
  - { offsetInCU: 0x1C93C, offset: 0x1C93C, size: 0x8, addend: 0x0, symName: __ZNKSt3__111__wrap_iterIPKNS_4pairI6MatrixiEEEdeB8ue170006Ev, symObjAddr: 0x1058, symBinAddr: 0x100003444, symSize: 0x18 }
  - { offsetInCU: 0x1C962, offset: 0x1C962, size: 0x8, addend: 0x0, symName: __ZNSt3__14pairI6MatrixiEC1B8ue170006ERKS2_, symObjAddr: 0x1070, symBinAddr: 0x10000345C, symSize: 0x34 }
  - { offsetInCU: 0x1C996, offset: 0x1C996, size: 0x8, addend: 0x0, symName: '__ZNSt3__18functionIFvNS_6vectorIbNS_9allocatorIbEEEEEEC1IZ36brouwer_zimmerman_meet_in_the_middleRKNS1_INS_4pairI6MatrixiEENS2_ISA_EEEEE3$_2vEET_', symObjAddr: 0x10A4, symBinAddr: 0x100003490, symSize: 0x3C }
  - { offsetInCU: 0x1C9DB, offset: 0x1C9DB, size: 0x8, addend: 0x0, symName: __ZNSt3__18functionIFvNS_6vectorIbNS_9allocatorIbEEEEEED1Ev, symObjAddr: 0x10E0, symBinAddr: 0x1000034CC, symSize: 0x2C }
  - { offsetInCU: 0x1CA07, offset: 0x1CA07, size: 0x8, addend: 0x0, symName: __ZNSt3__14pairI6MatrixiED1Ev, symObjAddr: 0x110C, symBinAddr: 0x1000034F8, symSize: 0x2C }
  - { offsetInCU: 0x1CA33, offset: 0x1CA33, size: 0x8, addend: 0x0, symName: __ZNSt3__111__wrap_iterIPKNS_4pairI6MatrixiEEEppB8ue170006Ev, symObjAddr: 0x1138, symBinAddr: 0x100003524, symSize: 0x20 }
  - { offsetInCU: 0x1CA58, offset: 0x1CA58, size: 0x8, addend: 0x0, symName: __Z17brouwer_zimmerman6Matrix, symObjAddr: 0x1158, symBinAddr: 0x100003544, symSize: 0xA0 }
  - { offsetInCU: 0x1CA88, offset: 0x1CA88, size: 0x8, addend: 0x0, symName: __ZN6MatrixC1ERKS_, symObjAddr: 0x11F8, symBinAddr: 0x1000035E4, symSize: 0x34 }
  - { offsetInCU: 0x1CABD, offset: 0x1CABD, size: 0x8, addend: 0x0, symName: __ZN6MatrixD1Ev, symObjAddr: 0x122C, symBinAddr: 0x100003618, symSize: 0x2C }
  - { offsetInCU: 0x1CAE9, offset: 0x1CAE9, size: 0x8, addend: 0x0, symName: '__ZNSt3__18functionIFvNS_6vectorIbNS_9allocatorIbEEEEEEC1IZ20brute_force_distance6MatrixE3$_3vEET_', symObjAddr: 0x133C, symBinAddr: 0x100003728, symSize: 0x34 }
  - { offsetInCU: 0x1CB2E, offset: 0x1CB2E, size: 0x8, addend: 0x0, symName: __Z11steane_codev, symObjAddr: 0x1370, symBinAddr: 0x10000375C, symSize: 0x198 }
  - { offsetInCU: 0x1CB98, offset: 0x1CB98, size: 0x8, addend: 0x0, symName: __ZN6MatrixC1Eii, symObjAddr: 0x1508, symBinAddr: 0x1000038F4, symSize: 0x3C }
  - { offsetInCU: 0x1CBDE, offset: 0x1CBDE, size: 0x8, addend: 0x0, symName: __ZN6Matrix3setEii3GF4, symObjAddr: 0x1544, symBinAddr: 0x100003930, symSize: 0x48 }
  - { offsetInCU: 0x1CC2E, offset: 0x1CC2E, size: 0x8, addend: 0x0, symName: __ZN3GF4C1Ei, symObjAddr: 0x158C, symBinAddr: 0x100003978, symSize: 0x34 }
  - { offsetInCU: 0x1CC66, offset: 0x1CC66, size: 0x8, addend: 0x0, symName: _main, symObjAddr: 0x15C0, symBinAddr: 0x1000039AC, symSize: 0x44 }
  - { offsetInCU: 0x1CC81, offset: 0x1CC81, size: 0x8, addend: 0x0, symName: __ZNSt3__113basic_ostreamIcNS_11char_traitsIcEEElsB8ue170006EPFRS3_S4_E, symObjAddr: 0x1604, symBinAddr: 0x1000039F0, symSize: 0x2C }
  - { offsetInCU: 0x1CCB5, offset: 0x1CCB5, size: 0x8, addend: 0x0, symName: __ZNSt3__16vectorINS0_I3GF4NS_9allocatorIS1_EEEENS2_IS4_EEEixB8ue170006Em, symObjAddr: 0x1688, symBinAddr: 0x100003A74, symSize: 0x2C }
  - { offsetInCU: 0x1CCEC, offset: 0x1CCEC, size: 0x8, addend: 0x0, symName: __ZNSt3__16vectorI3GF4NS_9allocatorIS1_EEEixB8ue170006Em, symObjAddr: 0x16B4, symBinAddr: 0x100003AA0, symSize: 0x24 }
  - { offsetInCU: 0x1CD23, offset: 0x1CD23, size: 0x8, addend: 0x0, symName: __ZNSt3__16vectorI3GF4NS_9allocatorIS1_EEE4swapERS4_, symObjAddr: 0x1704, symBinAddr: 0x100003AF0, symSize: 0x84 }
  - { offsetInCU: 0x1CD5A, offset: 0x1CD5A, size: 0x8, addend: 0x0, symName: __ZNSt3__16vectorI3GF4NS_9allocatorIS1_EEE9__end_capB8ue170006Ev, symObjAddr: 0x17C4, symBinAddr: 0x100003BB0, symSize: 0x28 }
  - { offsetInCU: 0x1CD80, offset: 0x1CD80, size: 0x8, addend: 0x0, symName: __ZNSt3__16vectorI3GF4NS_9allocatorIS1_EEE7__allocB8ue170006Ev, symObjAddr: 0x1800, symBinAddr: 0x100003BEC, symSize: 0x28 }
  - { offsetInCU: 0x1CDA6, offset: 0x1CDA6, size: 0x8, addend: 0x0, symName: __ZNSt3__117__compressed_pairIP3GF4NS_9allocatorIS1_EEE5firstB8ue170006Ev, symObjAddr: 0x1828, symBinAddr: 0x100003C14, symSize: 0x24 }
  - { offsetInCU: 0x1CDCC, offset: 0x1CDCC, size: 0x8, addend: 0x0, symName: __ZNSt3__122__compressed_pair_elemIP3GF4Li0ELb0EE5__getB8ue170006Ev, symObjAddr: 0x184C, symBinAddr: 0x100003C38, symSize: 0x14 }
  - { offsetInCU: 0x1CDF2, offset: 0x1CDF2, size: 0x8, addend: 0x0, symName: __ZNSt3__117__compressed_pairIP3GF4NS_9allocatorIS1_EEE6secondB8ue170006Ev, symObjAddr: 0x1860, symBinAddr: 0x100003C4C, symSize: 0x24 }
  - { offsetInCU: 0x1CE18, offset: 0x1CE18, size: 0x8, addend: 0x0, symName: __ZNSt3__122__compressed_pair_elemINS_9allocatorI3GF4EELi1ELb1EE5__getB8ue170006Ev, symObjAddr: 0x1884, symBinAddr: 0x100003C70, symSize: 0x14 }
  - { offsetInCU: 0x1CE3E, offset: 0x1CE3E, size: 0x8, addend: 0x0, symName: __ZpLR3GF4S_, symObjAddr: 0x18D4, symBinAddr: 0x100003CC0, symSize: 0x5C }
  - { offsetInCU: 0x1CE75, offset: 0x1CE75, size: 0x8, addend: 0x0, symName: __Zml3GF4S_, symObjAddr: 0x1930, symBinAddr: 0x100003D1C, symSize: 0xE8 }
  - { offsetInCU: 0x1CF04, offset: 0x1CF04, size: 0x8, addend: 0x0, symName: __Zpl3GF4S_, symObjAddr: 0x1A18, symBinAddr: 0x100003E04, symSize: 0x40 }
  - { offsetInCU: 0x1CF3F, offset: 0x1CF3F, size: 0x8, addend: 0x0, symName: __ZN3GF43invEv, symObjAddr: 0x1A58, symBinAddr: 0x100003E44, symSize: 0xA4 }
  - { offsetInCU: 0x1CF65, offset: 0x1CF65, size: 0x8, addend: 0x0, symName: __ZNKSt3__111__wrap_iterIP3GF4E4baseB8ue170006Ev, symObjAddr: 0x1B54, symBinAddr: 0x100003F40, symSize: 0x18 }
  - { offsetInCU: 0x1CF8B, offset: 0x1CF8B, size: 0x8, addend: 0x0, symName: __ZNKSt3__111__wrap_iterIPKNS_4pairI6MatrixiEEE4baseB8ue170006Ev, symObjAddr: 0x1BB4, symBinAddr: 0x100003FA0, symSize: 0x18 }
  - { offsetInCU: 0x1CFB1, offset: 0x1CFB1, size: 0x8, addend: 0x0, symName: __ZNSt3__14pairI6MatrixiEC2B8ue170006ERKS2_, symObjAddr: 0x1BCC, symBinAddr: 0x100003FB8, symSize: 0x40 }
  - { offsetInCU: 0x1CFE5, offset: 0x1CFE5, size: 0x8, addend: 0x0, symName: __ZNSt3__14pairI6MatrixiED2Ev, symObjAddr: 0x1C0C, symBinAddr: 0x100003FF8, symSize: 0x2C }
  - { offsetInCU: 0x1D011, offset: 0x1D011, size: 0x8, addend: 0x0, symName: __ZN6MatrixC2ERKS_, symObjAddr: 0x1C38, symBinAddr: 0x100004024, symSize: 0x40 }
  - { offsetInCU: 0x1D046, offset: 0x1D046, size: 0x8, addend: 0x0, symName: __ZNSt3__16vectorINS0_I3GF4NS_9allocatorIS1_EEEENS2_IS4_EEEC1ERKS6_, symObjAddr: 0x1C78, symBinAddr: 0x100004064, symSize: 0x34 }
  - { offsetInCU: 0x1D081, offset: 0x1D081, size: 0x8, addend: 0x0, symName: __ZNSt3__16vectorINS0_I3GF4NS_9allocatorIS1_EEEENS2_IS4_EEEC2ERKS6_, symObjAddr: 0x1CAC, symBinAddr: 0x100004098, symSize: 0x94 }
  - { offsetInCU: 0x1D0C7, offset: 0x1D0C7, size: 0x8, addend: 0x0, symName: __ZNSt3__116allocator_traitsINS_9allocatorINS_6vectorI3GF4NS1_IS3_EEEEEEE37select_on_container_copy_constructionB8ue170006IS6_vvEES6_RKS6_, symObjAddr: 0x1D40, symBinAddr: 0x10000412C, symSize: 0x10 }
  - { offsetInCU: 0x1D0F6, offset: 0x1D0F6, size: 0x8, addend: 0x0, symName: __ZNKSt3__16vectorINS0_I3GF4NS_9allocatorIS1_EEEENS2_IS4_EEE7__allocB8ue170006Ev, symObjAddr: 0x1D50, symBinAddr: 0x10000413C, symSize: 0x28 }
  - { offsetInCU: 0x1D128, offset: 0x1D128, size: 0x8, addend: 0x0, symName: __ZNSt3__117__compressed_pairIPNS_6vectorI3GF4NS_9allocatorIS2_EEEENS3_IS5_EEEC1B8ue170006IDnS7_EEOT_OT0_, symObjAddr: 0x1D78, symBinAddr: 0x100004164, symSize: 0x3C }
  - { offsetInCU: 0x1D180, offset: 0x1D180, size: 0x8, addend: 0x0, symName: __ZNSt3__16vectorINS0_I3GF4NS_9allocatorIS1_EEEENS2_IS4_EEE16__init_with_sizeB8ue170006IPS4_S8_EEvT_T0_m, symObjAddr: 0x1DB4, symBinAddr: 0x1000041A0, symSize: 0xB8 }
  - { offsetInCU: 0x1D1F4, offset: 0x1D1F4, size: 0x8, addend: 0x0, symName: __ZNKSt3__16vectorINS0_I3GF4NS_9allocatorIS1_EEEENS2_IS4_EEE4sizeB8ue170006Ev, symObjAddr: 0x1E6C, symBinAddr: 0x100004258, symSize: 0x28 }
  - { offsetInCU: 0x1D21A, offset: 0x1D21A, size: 0x8, addend: 0x0, symName: __ZNKSt3__117__compressed_pairIPNS_6vectorI3GF4NS_9allocatorIS2_EEEENS3_IS5_EEE6secondB8ue170006Ev, symObjAddr: 0x1E94, symBinAddr: 0x100004280, symSize: 0x24 }
  - { offsetInCU: 0x1D240, offset: 0x1D240, size: 0x8, addend: 0x0, symName: __ZNKSt3__122__compressed_pair_elemINS_9allocatorINS_6vectorI3GF4NS1_IS3_EEEEEELi1ELb1EE5__getB8ue170006Ev, symObjAddr: 0x1EB8, symBinAddr: 0x1000042A4, symSize: 0x14 }
  - { offsetInCU: 0x1D266, offset: 0x1D266, size: 0x8, addend: 0x0, symName: __ZNSt3__117__compressed_pairIPNS_6vectorI3GF4NS_9allocatorIS2_EEEENS3_IS5_EEEC2B8ue170006IDnS7_EEOT_OT0_, symObjAddr: 0x1ECC, symBinAddr: 0x1000042B8, symSize: 0x44 }
  - { offsetInCU: 0x1D2BE, offset: 0x1D2BE, size: 0x8, addend: 0x0, symName: __ZNSt3__122__compressed_pair_elemIPNS_6vectorI3GF4NS_9allocatorIS2_EEEELi0ELb0EEC2B8ue170006IDnvEEOT_, symObjAddr: 0x1F10, symBinAddr: 0x1000042FC, symSize: 0x1C }
  - { offsetInCU: 0x1D300, offset: 0x1D300, size: 0x8, addend: 0x0, symName: __ZNSt3__122__compressed_pair_elemINS_9allocatorINS_6vectorI3GF4NS1_IS3_EEEEEELi1ELb1EEC2B8ue170006IS6_vEEOT_, symObjAddr: 0x1F2C, symBinAddr: 0x100004318, symSize: 0x18 }
  - { offsetInCU: 0x1D342, offset: 0x1D342, size: 0x8, addend: 0x0, symName: __ZNSt3__16vectorINS0_I3GF4NS_9allocatorIS1_EEEENS2_IS4_EEE16__destroy_vectorC1B8ue170006ERS6_, symObjAddr: 0x1F84, symBinAddr: 0x100004370, symSize: 0x34 }
  - { offsetInCU: 0x1D37B, offset: 0x1D37B, size: 0x8, addend: 0x0, symName: __ZNSt3__16vectorINS0_I3GF4NS_9allocatorIS1_EEEENS2_IS4_EEE11__vallocateB8ue170006Em, symObjAddr: 0x1FB8, symBinAddr: 0x1000043A4, symSize: 0xB4 }
  - { offsetInCU: 0x1D3BF, offset: 0x1D3BF, size: 0x8, addend: 0x0, symName: __ZNSt3__16vectorINS0_I3GF4NS_9allocatorIS1_EEEENS2_IS4_EEE18__construct_at_endIPS4_S8_EEvT_T0_m, symObjAddr: 0x206C, symBinAddr: 0x100004458, symSize: 0x8C }
  - { offsetInCU: 0x1D435, offset: 0x1D435, size: 0x8, addend: 0x0, symName: __ZNSt3__128__exception_guard_exceptionsINS_6vectorINS1_I3GF4NS_9allocatorIS2_EEEENS3_IS5_EEE16__destroy_vectorEE10__completeB8ue170006Ev, symObjAddr: 0x20F8, symBinAddr: 0x1000044E4, symSize: 0x1C }
  - { offsetInCU: 0x1D45B, offset: 0x1D45B, size: 0x8, addend: 0x0, symName: __ZNSt3__128__exception_guard_exceptionsINS_6vectorINS1_I3GF4NS_9allocatorIS2_EEEENS3_IS5_EEE16__destroy_vectorEED1B8ue170006Ev, symObjAddr: 0x2114, symBinAddr: 0x100004500, symSize: 0x2C }
  - { offsetInCU: 0x1D485, offset: 0x1D485, size: 0x8, addend: 0x0, symName: __ZNSt3__128__exception_guard_exceptionsINS_6vectorINS1_I3GF4NS_9allocatorIS2_EEEENS3_IS5_EEE16__destroy_vectorEEC1B8ue170006ES8_, symObjAddr: 0x2140, symBinAddr: 0x10000452C, symSize: 0x34 }
  - { offsetInCU: 0x1D4BD, offset: 0x1D4BD, size: 0x8, addend: 0x0, symName: __ZNSt3__128__exception_guard_exceptionsINS_6vectorINS1_I3GF4NS_9allocatorIS2_EEEENS3_IS5_EEE16__destroy_vectorEEC2B8ue170006ES8_, symObjAddr: 0x2174, symBinAddr: 0x100004560, symSize: 0x24 }
  - { offsetInCU: 0x1D4F5, offset: 0x1D4F5, size: 0x8, addend: 0x0, symName: __ZNSt3__16vectorINS0_I3GF4NS_9allocatorIS1_EEEENS2_IS4_EEE16__destroy_vectorC2B8ue170006ERS6_, symObjAddr: 0x2198, symBinAddr: 0x100004584, symSize: 0x20 }
  - { offsetInCU: 0x1D52E, offset: 0x1D52E, size: 0x8, addend: 0x0, symName: __ZNKSt3__16vectorINS0_I3GF4NS_9allocatorIS1_EEEENS2_IS4_EEE8max_sizeEv, symObjAddr: 0x21B8, symBinAddr: 0x1000045A4, symSize: 0x60 }
  - { offsetInCU: 0x1D556, offset: 0x1D556, size: 0x8, addend: 0x0, symName: __ZNKSt3__16vectorINS0_I3GF4NS_9allocatorIS1_EEEENS2_IS4_EEE20__throw_length_errorB8ue170006Ev, symObjAddr: 0x2218, symBinAddr: 0x100004604, symSize: 0x1C }
  - { offsetInCU: 0x1D57C, offset: 0x1D57C, size: 0x8, addend: 0x0, symName: __ZNSt3__16vectorINS0_I3GF4NS_9allocatorIS1_EEEENS2_IS4_EEE7__allocB8ue170006Ev, symObjAddr: 0x2274, symBinAddr: 0x100004660, symSize: 0x28 }
  - { offsetInCU: 0x1D5A2, offset: 0x1D5A2, size: 0x8, addend: 0x0, symName: __ZNSt3__16vectorINS0_I3GF4NS_9allocatorIS1_EEEENS2_IS4_EEE9__end_capB8ue170006Ev, symObjAddr: 0x229C, symBinAddr: 0x100004688, symSize: 0x28 }
  - { offsetInCU: 0x1D5C8, offset: 0x1D5C8, size: 0x8, addend: 0x0, symName: __ZNKSt3__16vectorINS0_I3GF4NS_9allocatorIS1_EEEENS2_IS4_EEE14__annotate_newB8ue170006Em, symObjAddr: 0x22C4, symBinAddr: 0x1000046B0, symSize: 0xC8 }
  - { offsetInCU: 0x1D5FD, offset: 0x1D5FD, size: 0x8, addend: 0x0, symName: __ZNSt3__116allocator_traitsINS_9allocatorINS_6vectorI3GF4NS1_IS3_EEEEEEE8max_sizeB8ue170006IS6_vEEmRKS6_, symObjAddr: 0x23B8, symBinAddr: 0x1000047A4, symSize: 0x24 }
  - { offsetInCU: 0x1D62B, offset: 0x1D62B, size: 0x8, addend: 0x0, symName: __ZNSt3__114numeric_limitsIlE3maxB8ue170006Ev, symObjAddr: 0x23DC, symBinAddr: 0x1000047C8, symSize: 0x14 }
  - { offsetInCU: 0x1D64A, offset: 0x1D64A, size: 0x8, addend: 0x0, symName: __ZNKSt3__16__lessIvvEclB8ue170006ImmEEbRKT_RKT0_, symObjAddr: 0x2450, symBinAddr: 0x10000483C, symSize: 0x34 }
  - { offsetInCU: 0x1D69E, offset: 0x1D69E, size: 0x8, addend: 0x0, symName: __ZNKSt3__19allocatorINS_6vectorI3GF4NS0_IS2_EEEEE8max_sizeB8ue170006Ev, symObjAddr: 0x2484, symBinAddr: 0x100004870, symSize: 0x18 }
  - { offsetInCU: 0x1D6C4, offset: 0x1D6C4, size: 0x8, addend: 0x0, symName: __ZNSt3__123__libcpp_numeric_limitsIlLb1EE3maxB8ue170006Ev, symObjAddr: 0x249C, symBinAddr: 0x100004888, symSize: 0x8 }
  - { offsetInCU: 0x1D6D8, offset: 0x1D6D8, size: 0x8, addend: 0x0, symName: __ZNSt12length_errorC1B8ue170006EPKc, symObjAddr: 0x2508, symBinAddr: 0x1000048F4, symSize: 0x34 }
  - { offsetInCU: 0x1D710, offset: 0x1D710, size: 0x8, addend: 0x0, symName: __ZNSt12length_errorC2B8ue170006EPKc, symObjAddr: 0x253C, symBinAddr: 0x100004928, symSize: 0x4C }
  - { offsetInCU: 0x1D748, offset: 0x1D748, size: 0x8, addend: 0x0, symName: __ZNSt3__19allocatorINS_6vectorI3GF4NS0_IS2_EEEEE8allocateB8ue170006Em, symObjAddr: 0x2588, symBinAddr: 0x100004974, symSize: 0x5C }
  - { offsetInCU: 0x1D77C, offset: 0x1D77C, size: 0x8, addend: 0x0, symName: __ZNSt3__117__compressed_pairIPNS_6vectorI3GF4NS_9allocatorIS2_EEEENS3_IS5_EEE6secondB8ue170006Ev, symObjAddr: 0x2664, symBinAddr: 0x100004A50, symSize: 0x24 }
  - { offsetInCU: 0x1D7A2, offset: 0x1D7A2, size: 0x8, addend: 0x0, symName: __ZNSt3__122__compressed_pair_elemINS_9allocatorINS_6vectorI3GF4NS1_IS3_EEEEEELi1ELb1EE5__getB8ue170006Ev, symObjAddr: 0x2688, symBinAddr: 0x100004A74, symSize: 0x14 }
  - { offsetInCU: 0x1D7C8, offset: 0x1D7C8, size: 0x8, addend: 0x0, symName: __ZNSt3__117__compressed_pairIPNS_6vectorI3GF4NS_9allocatorIS2_EEEENS3_IS5_EEE5firstB8ue170006Ev, symObjAddr: 0x269C, symBinAddr: 0x100004A88, symSize: 0x24 }
  - { offsetInCU: 0x1D7EE, offset: 0x1D7EE, size: 0x8, addend: 0x0, symName: __ZNSt3__122__compressed_pair_elemIPNS_6vectorI3GF4NS_9allocatorIS2_EEEELi0ELb0EE5__getB8ue170006Ev, symObjAddr: 0x26C0, symBinAddr: 0x100004AAC, symSize: 0x14 }
  - { offsetInCU: 0x1D814, offset: 0x1D814, size: 0x8, addend: 0x0, symName: __ZNKSt3__16vectorINS0_I3GF4NS_9allocatorIS1_EEEENS2_IS4_EEE31__annotate_contiguous_containerB8ue170006EPKvS8_S8_S8_, symObjAddr: 0x26D4, symBinAddr: 0x100004AC0, symSize: 0x20 }
  - { offsetInCU: 0x1D86A, offset: 0x1D86A, size: 0x8, addend: 0x0, symName: __ZNKSt3__16vectorINS0_I3GF4NS_9allocatorIS1_EEEENS2_IS4_EEE4dataB8ue170006Ev, symObjAddr: 0x26F4, symBinAddr: 0x100004AE0, symSize: 0x28 }
  - { offsetInCU: 0x1D890, offset: 0x1D890, size: 0x8, addend: 0x0, symName: __ZNKSt3__16vectorINS0_I3GF4NS_9allocatorIS1_EEEENS2_IS4_EEE8capacityB8ue170006Ev, symObjAddr: 0x271C, symBinAddr: 0x100004B08, symSize: 0x40 }
  - { offsetInCU: 0x1D8B6, offset: 0x1D8B6, size: 0x8, addend: 0x0, symName: __ZNKSt3__16vectorINS0_I3GF4NS_9allocatorIS1_EEEENS2_IS4_EEE9__end_capB8ue170006Ev, symObjAddr: 0x2770, symBinAddr: 0x100004B5C, symSize: 0x28 }
  - { offsetInCU: 0x1D8DC, offset: 0x1D8DC, size: 0x8, addend: 0x0, symName: __ZNKSt3__117__compressed_pairIPNS_6vectorI3GF4NS_9allocatorIS2_EEEENS3_IS5_EEE5firstB8ue170006Ev, symObjAddr: 0x2798, symBinAddr: 0x100004B84, symSize: 0x24 }
  - { offsetInCU: 0x1D902, offset: 0x1D902, size: 0x8, addend: 0x0, symName: __ZNKSt3__122__compressed_pair_elemIPNS_6vectorI3GF4NS_9allocatorIS2_EEEELi0ELb0EE5__getB8ue170006Ev, symObjAddr: 0x27BC, symBinAddr: 0x100004BA8, symSize: 0x14 }
  - { offsetInCU: 0x1D944, offset: 0x1D944, size: 0x8, addend: 0x0, symName: __ZNSt3__16vectorINS0_I3GF4NS_9allocatorIS1_EEEENS2_IS4_EEE21_ConstructTransactionC1B8ue170006ERS6_m, symObjAddr: 0x27D0, symBinAddr: 0x100004BBC, symSize: 0x3C }
  - { offsetInCU: 0x1D98C, offset: 0x1D98C, size: 0x8, addend: 0x0, symName: __ZNSt3__16vectorINS0_I3GF4NS_9allocatorIS1_EEEENS2_IS4_EEE21_ConstructTransactionD1B8ue170006Ev, symObjAddr: 0x288C, symBinAddr: 0x100004C78, symSize: 0x2C }
  - { offsetInCU: 0x1D9B6, offset: 0x1D9B6, size: 0x8, addend: 0x0, symName: __ZNSt3__16vectorINS0_I3GF4NS_9allocatorIS1_EEEENS2_IS4_EEE21_ConstructTransactionC2B8ue170006ERS6_m, symObjAddr: 0x28B8, symBinAddr: 0x100004CA4, symSize: 0x4C }
  - { offsetInCU: 0x1DA21, offset: 0x1DA21, size: 0x8, addend: 0x0, symName: __ZNSt3__14pairIPNS_6vectorI3GF4NS_9allocatorIS2_EEEES6_EC1B8ue170006IS6_S6_LPv0EEEOT_OT0_, symObjAddr: 0x2AF0, symBinAddr: 0x100004EDC, symSize: 0x3C }
  - { offsetInCU: 0x1DA7F, offset: 0x1DA7F, size: 0x8, addend: 0x0, symName: __ZNSt3__14pairIPNS_6vectorI3GF4NS_9allocatorIS2_EEEES6_EC2B8ue170006IS6_S6_LPv0EEEOT_OT0_, symObjAddr: 0x2B2C, symBinAddr: 0x100004F18, symSize: 0x34 }
  - { offsetInCU: 0x1DADD, offset: 0x1DADD, size: 0x8, addend: 0x0, symName: __ZNSt3__129_AllocatorDestroyRangeReverseINS_9allocatorINS_6vectorI3GF4NS1_IS3_EEEEEEPS5_EC1B8ue170006ERS6_RS7_SA_, symObjAddr: 0x2BAC, symBinAddr: 0x100004F98, symSize: 0x44 }
  - { offsetInCU: 0x1DB34, offset: 0x1DB34, size: 0x8, addend: 0x0, symName: __ZNSt3__116allocator_traitsINS_9allocatorINS_6vectorI3GF4NS1_IS3_EEEEEEE9constructB8ue170006IS5_JRS5_EvEEvRS6_PT_DpOT0_, symObjAddr: 0x2BF0, symBinAddr: 0x100004FDC, symSize: 0x34 }
  - { offsetInCU: 0x1DB8B, offset: 0x1DB8B, size: 0x8, addend: 0x0, symName: __ZNSt3__128__exception_guard_exceptionsINS_29_AllocatorDestroyRangeReverseINS_9allocatorINS_6vectorI3GF4NS2_IS4_EEEEEEPS6_EEE10__completeB8ue170006Ev, symObjAddr: 0x2C24, symBinAddr: 0x100005010, symSize: 0x1C }
  - { offsetInCU: 0x1DBB1, offset: 0x1DBB1, size: 0x8, addend: 0x0, symName: __ZNSt3__128__exception_guard_exceptionsINS_29_AllocatorDestroyRangeReverseINS_9allocatorINS_6vectorI3GF4NS2_IS4_EEEEEEPS6_EEED1B8ue170006Ev, symObjAddr: 0x2C40, symBinAddr: 0x10000502C, symSize: 0x2C }
  - { offsetInCU: 0x1DBDB, offset: 0x1DBDB, size: 0x8, addend: 0x0, symName: __ZNSt3__128__exception_guard_exceptionsINS_29_AllocatorDestroyRangeReverseINS_9allocatorINS_6vectorI3GF4NS2_IS4_EEEEEEPS6_EEEC1B8ue170006ES9_, symObjAddr: 0x2C6C, symBinAddr: 0x100005058, symSize: 0x34 }
  - { offsetInCU: 0x1DC14, offset: 0x1DC14, size: 0x8, addend: 0x0, symName: __ZNSt3__128__exception_guard_exceptionsINS_29_AllocatorDestroyRangeReverseINS_9allocatorINS_6vectorI3GF4NS2_IS4_EEEEEEPS6_EEEC2B8ue170006ES9_, symObjAddr: 0x2CA0, symBinAddr: 0x10000508C, symSize: 0x30 }
  - { offsetInCU: 0x1DC4D, offset: 0x1DC4D, size: 0x8, addend: 0x0, symName: __ZNSt3__129_AllocatorDestroyRangeReverseINS_9allocatorINS_6vectorI3GF4NS1_IS3_EEEEEEPS5_EC2B8ue170006ERS6_RS7_SA_, symObjAddr: 0x2CD0, symBinAddr: 0x1000050BC, symSize: 0x38 }
  - { offsetInCU: 0x1DCA4, offset: 0x1DCA4, size: 0x8, addend: 0x0, symName: __ZNSt3__19allocatorINS_6vectorI3GF4NS0_IS2_EEEEE9constructB8ue170006IS4_JRS4_EEEvPT_DpOT0_, symObjAddr: 0x2D08, symBinAddr: 0x1000050F4, symSize: 0x30 }
  - { offsetInCU: 0x1DCFA, offset: 0x1DCFA, size: 0x8, addend: 0x0, symName: __ZNSt3__16vectorI3GF4NS_9allocatorIS1_EEEC1ERKS4_, symObjAddr: 0x2D38, symBinAddr: 0x100005124, symSize: 0x34 }
  - { offsetInCU: 0x1DD35, offset: 0x1DD35, size: 0x8, addend: 0x0, symName: __ZNSt3__16vectorI3GF4NS_9allocatorIS1_EEEC2ERKS4_, symObjAddr: 0x2D6C, symBinAddr: 0x100005158, symSize: 0x94 }
  - { offsetInCU: 0x1DD7B, offset: 0x1DD7B, size: 0x8, addend: 0x0, symName: __ZNSt3__116allocator_traitsINS_9allocatorI3GF4EEE37select_on_container_copy_constructionB8ue170006IS3_vvEES3_RKS3_, symObjAddr: 0x2E00, symBinAddr: 0x1000051EC, symSize: 0x10 }
  - { offsetInCU: 0x1DDAA, offset: 0x1DDAA, size: 0x8, addend: 0x0, symName: __ZNKSt3__16vectorI3GF4NS_9allocatorIS1_EEE7__allocB8ue170006Ev, symObjAddr: 0x2E10, symBinAddr: 0x1000051FC, symSize: 0x28 }
  - { offsetInCU: 0x1DDD6, offset: 0x1DDD6, size: 0x8, addend: 0x0, symName: __ZNSt3__117__compressed_pairIP3GF4NS_9allocatorIS1_EEEC1B8ue170006IDnS4_EEOT_OT0_, symObjAddr: 0x2E38, symBinAddr: 0x100005224, symSize: 0x3C }
  - { offsetInCU: 0x1DE2E, offset: 0x1DE2E, size: 0x8, addend: 0x0, symName: __ZNSt3__16vectorI3GF4NS_9allocatorIS1_EEE16__init_with_sizeB8ue170006IPS1_S6_EEvT_T0_m, symObjAddr: 0x2E74, symBinAddr: 0x100005260, symSize: 0xB8 }
  - { offsetInCU: 0x1DEA2, offset: 0x1DEA2, size: 0x8, addend: 0x0, symName: __ZNKSt3__16vectorI3GF4NS_9allocatorIS1_EEE4sizeB8ue170006Ev, symObjAddr: 0x2F2C, symBinAddr: 0x100005318, symSize: 0x20 }
  - { offsetInCU: 0x1DEC8, offset: 0x1DEC8, size: 0x8, addend: 0x0, symName: __ZNKSt3__117__compressed_pairIP3GF4NS_9allocatorIS1_EEE6secondB8ue170006Ev, symObjAddr: 0x2F4C, symBinAddr: 0x100005338, symSize: 0x24 }
  - { offsetInCU: 0x1DEEE, offset: 0x1DEEE, size: 0x8, addend: 0x0, symName: __ZNKSt3__122__compressed_pair_elemINS_9allocatorI3GF4EELi1ELb1EE5__getB8ue170006Ev, symObjAddr: 0x2F70, symBinAddr: 0x10000535C, symSize: 0x14 }
  - { offsetInCU: 0x1DF14, offset: 0x1DF14, size: 0x8, addend: 0x0, symName: __ZNSt3__117__compressed_pairIP3GF4NS_9allocatorIS1_EEEC2B8ue170006IDnS4_EEOT_OT0_, symObjAddr: 0x2F84, symBinAddr: 0x100005370, symSize: 0x44 }
  - { offsetInCU: 0x1DF6C, offset: 0x1DF6C, size: 0x8, addend: 0x0, symName: __ZNSt3__122__compressed_pair_elemIP3GF4Li0ELb0EEC2B8ue170006IDnvEEOT_, symObjAddr: 0x2FC8, symBinAddr: 0x1000053B4, symSize: 0x1C }
  - { offsetInCU: 0x1DFAE, offset: 0x1DFAE, size: 0x8, addend: 0x0, symName: __ZNSt3__122__compressed_pair_elemINS_9allocatorI3GF4EELi1ELb1EEC2B8ue170006IS3_vEEOT_, symObjAddr: 0x2FE4, symBinAddr: 0x1000053D0, symSize: 0x18 }
  - { offsetInCU: 0x1DFF0, offset: 0x1DFF0, size: 0x8, addend: 0x0, symName: __ZNSt3__16vectorI3GF4NS_9allocatorIS1_EEE16__destroy_vectorC1B8ue170006ERS4_, symObjAddr: 0x303C, symBinAddr: 0x100005428, symSize: 0x34 }
  - { offsetInCU: 0x1E029, offset: 0x1E029, size: 0x8, addend: 0x0, symName: __ZNSt3__16vectorI3GF4NS_9allocatorIS1_EEE11__vallocateB8ue170006Em, symObjAddr: 0x3070, symBinAddr: 0x10000545C, symSize: 0xAC }
  - { offsetInCU: 0x1E06D, offset: 0x1E06D, size: 0x8, addend: 0x0, symName: __ZNSt3__16vectorI3GF4NS_9allocatorIS1_EEE18__construct_at_endIPS1_S6_EEvT_T0_m, symObjAddr: 0x311C, symBinAddr: 0x100005508, symSize: 0x8C }
  - { offsetInCU: 0x1E0E3, offset: 0x1E0E3, size: 0x8, addend: 0x0, symName: __ZNSt3__128__exception_guard_exceptionsINS_6vectorI3GF4NS_9allocatorIS2_EEE16__destroy_vectorEE10__completeB8ue170006Ev, symObjAddr: 0x31A8, symBinAddr: 0x100005594, symSize: 0x1C }
  - { offsetInCU: 0x1E109, offset: 0x1E109, size: 0x8, addend: 0x0, symName: __ZNSt3__128__exception_guard_exceptionsINS_6vectorI3GF4NS_9allocatorIS2_EEE16__destroy_vectorEED1B8ue170006Ev, symObjAddr: 0x31C4, symBinAddr: 0x1000055B0, symSize: 0x2C }
  - { offsetInCU: 0x1E133, offset: 0x1E133, size: 0x8, addend: 0x0, symName: __ZNSt3__128__exception_guard_exceptionsINS_6vectorI3GF4NS_9allocatorIS2_EEE16__destroy_vectorEEC1B8ue170006ES6_, symObjAddr: 0x31F0, symBinAddr: 0x1000055DC, symSize: 0x34 }
  - { offsetInCU: 0x1E16B, offset: 0x1E16B, size: 0x8, addend: 0x0, symName: __ZNSt3__128__exception_guard_exceptionsINS_6vectorI3GF4NS_9allocatorIS2_EEE16__destroy_vectorEEC2B8ue170006ES6_, symObjAddr: 0x3224, symBinAddr: 0x100005610, symSize: 0x24 }
  - { offsetInCU: 0x1E1A3, offset: 0x1E1A3, size: 0x8, addend: 0x0, symName: __ZNSt3__16vectorI3GF4NS_9allocatorIS1_EEE16__destroy_vectorC2B8ue170006ERS4_, symObjAddr: 0x3248, symBinAddr: 0x100005634, symSize: 0x20 }
  - { offsetInCU: 0x1E1DC, offset: 0x1E1DC, size: 0x8, addend: 0x0, symName: __ZNKSt3__16vectorI3GF4NS_9allocatorIS1_EEE8max_sizeEv, symObjAddr: 0x3268, symBinAddr: 0x100005654, symSize: 0x60 }
  - { offsetInCU: 0x1E204, offset: 0x1E204, size: 0x8, addend: 0x0, symName: __ZNKSt3__16vectorI3GF4NS_9allocatorIS1_EEE20__throw_length_errorB8ue170006Ev, symObjAddr: 0x32C8, symBinAddr: 0x1000056B4, symSize: 0x1C }
  - { offsetInCU: 0x1E22A, offset: 0x1E22A, size: 0x8, addend: 0x0, symName: __ZNKSt3__16vectorI3GF4NS_9allocatorIS1_EEE14__annotate_newB8ue170006Em, symObjAddr: 0x3324, symBinAddr: 0x100005710, symSize: 0xAC }
  - { offsetInCU: 0x1E25F, offset: 0x1E25F, size: 0x8, addend: 0x0, symName: __ZNSt3__116allocator_traitsINS_9allocatorI3GF4EEE8max_sizeB8ue170006IS3_vEEmRKS3_, symObjAddr: 0x33D0, symBinAddr: 0x1000057BC, symSize: 0x24 }
  - { offsetInCU: 0x1E28D, offset: 0x1E28D, size: 0x8, addend: 0x0, symName: __ZNKSt3__19allocatorI3GF4E8max_sizeB8ue170006Ev, symObjAddr: 0x33F4, symBinAddr: 0x1000057E0, symSize: 0x14 }
  - { offsetInCU: 0x1E2B3, offset: 0x1E2B3, size: 0x8, addend: 0x0, symName: __ZNSt3__19allocatorI3GF4E8allocateB8ue170006Em, symObjAddr: 0x3408, symBinAddr: 0x1000057F4, symSize: 0x58 }
  - { offsetInCU: 0x1E2E7, offset: 0x1E2E7, size: 0x8, addend: 0x0, symName: __ZNKSt3__16vectorI3GF4NS_9allocatorIS1_EEE31__annotate_contiguous_containerB8ue170006EPKvS6_S6_S6_, symObjAddr: 0x3460, symBinAddr: 0x10000584C, symSize: 0x20 }
  - { offsetInCU: 0x1E33D, offset: 0x1E33D, size: 0x8, addend: 0x0, symName: __ZNKSt3__16vectorI3GF4NS_9allocatorIS1_EEE4dataB8ue170006Ev, symObjAddr: 0x3480, symBinAddr: 0x10000586C, symSize: 0x28 }
  - { offsetInCU: 0x1E363, offset: 0x1E363, size: 0x8, addend: 0x0, symName: __ZNKSt3__16vectorI3GF4NS_9allocatorIS1_EEE8capacityB8ue170006Ev, symObjAddr: 0x34A8, symBinAddr: 0x100005894, symSize: 0x38 }
  - { offsetInCU: 0x1E389, offset: 0x1E389, size: 0x8, addend: 0x0, symName: __ZNKSt3__16vectorI3GF4NS_9allocatorIS1_EEE9__end_capB8ue170006Ev, symObjAddr: 0x34F4, symBinAddr: 0x1000058E0, symSize: 0x28 }
  - { offsetInCU: 0x1E3AF, offset: 0x1E3AF, size: 0x8, addend: 0x0, symName: __ZNKSt3__117__compressed_pairIP3GF4NS_9allocatorIS1_EEE5firstB8ue170006Ev, symObjAddr: 0x351C, symBinAddr: 0x100005908, symSize: 0x24 }
  - { offsetInCU: 0x1E3D5, offset: 0x1E3D5, size: 0x8, addend: 0x0, symName: __ZNKSt3__122__compressed_pair_elemIP3GF4Li0ELb0EE5__getB8ue170006Ev, symObjAddr: 0x3540, symBinAddr: 0x10000592C, symSize: 0x14 }
  - { offsetInCU: 0x1E417, offset: 0x1E417, size: 0x8, addend: 0x0, symName: __ZNSt3__16vectorI3GF4NS_9allocatorIS1_EEE21_ConstructTransactionC1B8ue170006ERS4_m, symObjAddr: 0x3554, symBinAddr: 0x100005940, symSize: 0x3C }
  - { offsetInCU: 0x1E45F, offset: 0x1E45F, size: 0x8, addend: 0x0, symName: __ZNSt3__16vectorI3GF4NS_9allocatorIS1_EEE21_ConstructTransactionD1B8ue170006Ev, symObjAddr: 0x3610, symBinAddr: 0x1000059FC, symSize: 0x2C }
  - { offsetInCU: 0x1E489, offset: 0x1E489, size: 0x8, addend: 0x0, symName: __ZNSt3__16vectorI3GF4NS_9allocatorIS1_EEE21_ConstructTransactionC2B8ue170006ERS4_m, symObjAddr: 0x363C, symBinAddr: 0x100005A28, symSize: 0x44 }
  - { offsetInCU: 0x1E4F4, offset: 0x1E4F4, size: 0x8, addend: 0x0, symName: __ZNSt3__14pairIP3GF4S2_EC1B8ue170006IS2_S2_LPv0EEEOT_OT0_, symObjAddr: 0x37B0, symBinAddr: 0x100005B9C, symSize: 0x3C }
  - { offsetInCU: 0x1E552, offset: 0x1E552, size: 0x8, addend: 0x0, symName: __ZNSt3__14pairIP3GF4S2_EC2B8ue170006IS2_S2_LPv0EEEOT_OT0_, symObjAddr: 0x37EC, symBinAddr: 0x100005BD8, symSize: 0x34 }
  - { offsetInCU: 0x1E5BB, offset: 0x1E5BB, size: 0x8, addend: 0x0, symName: __ZNKSt3__114__copy_trivialclB8ue170006I3GF4S2_Li0EEENS_4pairIPT_PT0_EES5_S5_S7_, symObjAddr: 0x399C, symBinAddr: 0x100005D88, symSize: 0x48 }
  - { offsetInCU: 0x1E623, offset: 0x1E623, size: 0x8, addend: 0x0, symName: __ZNSt3__14pairIP3GF4S2_EC1B8ue170006IRS2_S2_LPv0EEEOT_OT0_, symObjAddr: 0x3B24, symBinAddr: 0x100005F10, symSize: 0x3C }
  - { offsetInCU: 0x1E681, offset: 0x1E681, size: 0x8, addend: 0x0, symName: __ZNSt3__14pairIP3GF4S2_EC2B8ue170006IRS2_S2_LPv0EEEOT_OT0_, symObjAddr: 0x3B60, symBinAddr: 0x100005F4C, symSize: 0x34 }
  - { offsetInCU: 0x1E6DF, offset: 0x1E6DF, size: 0x8, addend: 0x0, symName: __ZNSt3__118__unwrap_iter_implIP3GF4Lb1EE8__unwrapB8ue170006ES2_, symObjAddr: 0x3B94, symBinAddr: 0x100005F80, symSize: 0x24 }
  - { offsetInCU: 0x1E702, offset: 0x1E702, size: 0x8, addend: 0x0, symName: __ZNSt3__118__unwrap_iter_implIP3GF4Lb1EE8__rewrapB8ue170006ES2_S2_, symObjAddr: 0x3BB8, symBinAddr: 0x100005FA4, symSize: 0x48 }
  - { offsetInCU: 0x1E733, offset: 0x1E733, size: 0x8, addend: 0x0, symName: __ZNSt3__16vectorI3GF4NS_9allocatorIS1_EEE21_ConstructTransactionD2B8ue170006Ev, symObjAddr: 0x3C00, symBinAddr: 0x100005FEC, symSize: 0x20 }
  - { offsetInCU: 0x1E75D, offset: 0x1E75D, size: 0x8, addend: 0x0, symName: __ZNSt3__128__exception_guard_exceptionsINS_6vectorI3GF4NS_9allocatorIS2_EEE16__destroy_vectorEED2B8ue170006Ev, symObjAddr: 0x3C20, symBinAddr: 0x10000600C, symSize: 0x50 }
  - { offsetInCU: 0x1E787, offset: 0x1E787, size: 0x8, addend: 0x0, symName: __ZNSt3__16vectorI3GF4NS_9allocatorIS1_EEE16__destroy_vectorclB8ue170006Ev, symObjAddr: 0x3C70, symBinAddr: 0x10000605C, symSize: 0x90 }
  - { offsetInCU: 0x1E7AD, offset: 0x1E7AD, size: 0x8, addend: 0x0, symName: __ZNSt3__16vectorI3GF4NS_9allocatorIS1_EEE7__clearB8ue170006Ev, symObjAddr: 0x3D00, symBinAddr: 0x1000060EC, symSize: 0x28 }
  - { offsetInCU: 0x1E7D3, offset: 0x1E7D3, size: 0x8, addend: 0x0, symName: __ZNKSt3__16vectorI3GF4NS_9allocatorIS1_EEE17__annotate_deleteB8ue170006Ev, symObjAddr: 0x3D28, symBinAddr: 0x100006114, symSize: 0xB8 }
  - { offsetInCU: 0x1E7F9, offset: 0x1E7F9, size: 0x8, addend: 0x0, symName: __ZNSt3__116allocator_traitsINS_9allocatorI3GF4EEE10deallocateB8ue170006ERS3_PS2_m, symObjAddr: 0x3DE0, symBinAddr: 0x1000061CC, symSize: 0x34 }
  - { offsetInCU: 0x1E83B, offset: 0x1E83B, size: 0x8, addend: 0x0, symName: __ZNSt3__16vectorI3GF4NS_9allocatorIS1_EEE22__base_destruct_at_endB8ue170006EPS1_, symObjAddr: 0x3E14, symBinAddr: 0x100006200, symSize: 0x8C }
  - { offsetInCU: 0x1E87F, offset: 0x1E87F, size: 0x8, addend: 0x0, symName: __ZNSt3__116allocator_traitsINS_9allocatorI3GF4EEE7destroyB8ue170006IS2_vEEvRS3_PT_, symObjAddr: 0x3EA0, symBinAddr: 0x10000628C, symSize: 0x2C }
  - { offsetInCU: 0x1E8BC, offset: 0x1E8BC, size: 0x8, addend: 0x0, symName: __ZNSt3__19allocatorI3GF4E7destroyB8ue170006EPS1_, symObjAddr: 0x3ECC, symBinAddr: 0x1000062B8, symSize: 0x14 }
  - { offsetInCU: 0x1E8F0, offset: 0x1E8F0, size: 0x8, addend: 0x0, symName: __ZNSt3__19allocatorI3GF4E10deallocateB8ue170006EPS1_m, symObjAddr: 0x3EE0, symBinAddr: 0x1000062CC, symSize: 0x40 }
  - { offsetInCU: 0x1E932, offset: 0x1E932, size: 0x8, addend: 0x0, symName: __ZNSt3__128__exception_guard_exceptionsINS_29_AllocatorDestroyRangeReverseINS_9allocatorINS_6vectorI3GF4NS2_IS4_EEEEEEPS6_EEED2B8ue170006Ev, symObjAddr: 0x3F9C, symBinAddr: 0x100006388, symSize: 0x50 }
  - { offsetInCU: 0x1E95C, offset: 0x1E95C, size: 0x8, addend: 0x0, symName: __ZNKSt3__129_AllocatorDestroyRangeReverseINS_9allocatorINS_6vectorI3GF4NS1_IS3_EEEEEEPS5_EclB8ue170006Ev, symObjAddr: 0x3FEC, symBinAddr: 0x1000063D8, symSize: 0x68 }
  - { offsetInCU: 0x1E982, offset: 0x1E982, size: 0x8, addend: 0x0, symName: __ZNSt3__116reverse_iteratorIPNS_6vectorI3GF4NS_9allocatorIS2_EEEEEC1B8ue170006ES6_, symObjAddr: 0x40C4, symBinAddr: 0x1000064B0, symSize: 0x34 }
  - { offsetInCU: 0x1E9BA, offset: 0x1E9BA, size: 0x8, addend: 0x0, symName: __ZNSt3__116allocator_traitsINS_9allocatorINS_6vectorI3GF4NS1_IS3_EEEEEEE7destroyB8ue170006IS5_vEEvRS6_PT_, symObjAddr: 0x4140, symBinAddr: 0x10000652C, symSize: 0x2C }
  - { offsetInCU: 0x1E9F7, offset: 0x1E9F7, size: 0x8, addend: 0x0, symName: __ZNSt3__116reverse_iteratorIPNS_6vectorI3GF4NS_9allocatorIS2_EEEEEppB8ue170006Ev, symObjAddr: 0x4190, symBinAddr: 0x10000657C, symSize: 0x20 }
  - { offsetInCU: 0x1EA1D, offset: 0x1EA1D, size: 0x8, addend: 0x0, symName: __ZNKSt3__116reverse_iteratorIPNS_6vectorI3GF4NS_9allocatorIS2_EEEEE4baseB8ue170006Ev, symObjAddr: 0x41B0, symBinAddr: 0x10000659C, symSize: 0x18 }
  - { offsetInCU: 0x1EA43, offset: 0x1EA43, size: 0x8, addend: 0x0, symName: __ZNSt3__19allocatorINS_6vectorI3GF4NS0_IS2_EEEEE7destroyB8ue170006EPS4_, symObjAddr: 0x41C8, symBinAddr: 0x1000065B4, symSize: 0x28 }
  - { offsetInCU: 0x1EA77, offset: 0x1EA77, size: 0x8, addend: 0x0, symName: __ZNSt3__16vectorI3GF4NS_9allocatorIS1_EEED1B8ue170006Ev, symObjAddr: 0x41F0, symBinAddr: 0x1000065DC, symSize: 0x2C }
  - { offsetInCU: 0x1EAA1, offset: 0x1EAA1, size: 0x8, addend: 0x0, symName: __ZNSt3__16vectorI3GF4NS_9allocatorIS1_EEED2B8ue170006Ev, symObjAddr: 0x421C, symBinAddr: 0x100006608, symSize: 0x40 }
  - { offsetInCU: 0x1EAD1, offset: 0x1EAD1, size: 0x8, addend: 0x0, symName: __ZNSt3__119__to_address_helperINS_16reverse_iteratorIPNS_6vectorI3GF4NS_9allocatorIS3_EEEEEEvE6__callB8ue170006ERKS8_, symObjAddr: 0x425C, symBinAddr: 0x100006648, symSize: 0x38 }
  - { offsetInCU: 0x1EAF4, offset: 0x1EAF4, size: 0x8, addend: 0x0, symName: __ZNKSt3__116reverse_iteratorIPNS_6vectorI3GF4NS_9allocatorIS2_EEEEEptB8ue170006Ev, symObjAddr: 0x4294, symBinAddr: 0x100006680, symSize: 0x24 }
  - { offsetInCU: 0x1EB1A, offset: 0x1EB1A, size: 0x8, addend: 0x0, symName: __ZNKSt3__116reverse_iteratorIPNS_6vectorI3GF4NS_9allocatorIS2_EEEEEdeB8ue170006Ev, symObjAddr: 0x42B8, symBinAddr: 0x1000066A4, symSize: 0x28 }
  - { offsetInCU: 0x1EB4E, offset: 0x1EB4E, size: 0x8, addend: 0x0, symName: __ZNSt3__116reverse_iteratorIPNS_6vectorI3GF4NS_9allocatorIS2_EEEEEC2B8ue170006ES6_, symObjAddr: 0x42E0, symBinAddr: 0x1000066CC, symSize: 0x28 }
  - { offsetInCU: 0x1EB86, offset: 0x1EB86, size: 0x8, addend: 0x0, symName: __ZNSt3__118__unwrap_iter_implIPNS_6vectorI3GF4NS_9allocatorIS2_EEEELb1EE8__unwrapB8ue170006ES6_, symObjAddr: 0x4308, symBinAddr: 0x1000066F4, symSize: 0x24 }
  - { offsetInCU: 0x1EBA9, offset: 0x1EBA9, size: 0x8, addend: 0x0, symName: __ZNSt3__118__unwrap_iter_implIPNS_6vectorI3GF4NS_9allocatorIS2_EEEELb1EE8__rewrapB8ue170006ES6_S6_, symObjAddr: 0x432C, symBinAddr: 0x100006718, symSize: 0x58 }
  - { offsetInCU: 0x1EBDA, offset: 0x1EBDA, size: 0x8, addend: 0x0, symName: __ZNSt3__16vectorINS0_I3GF4NS_9allocatorIS1_EEEENS2_IS4_EEE21_ConstructTransactionD2B8ue170006Ev, symObjAddr: 0x4384, symBinAddr: 0x100006770, symSize: 0x20 }
  - { offsetInCU: 0x1EC04, offset: 0x1EC04, size: 0x8, addend: 0x0, symName: __ZNSt3__128__exception_guard_exceptionsINS_6vectorINS1_I3GF4NS_9allocatorIS2_EEEENS3_IS5_EEE16__destroy_vectorEED2B8ue170006Ev, symObjAddr: 0x43A4, symBinAddr: 0x100006790, symSize: 0x50 }
  - { offsetInCU: 0x1EC2E, offset: 0x1EC2E, size: 0x8, addend: 0x0, symName: __ZNSt3__16vectorINS0_I3GF4NS_9allocatorIS1_EEEENS2_IS4_EEE16__destroy_vectorclB8ue170006Ev, symObjAddr: 0x43F4, symBinAddr: 0x1000067E0, symSize: 0x90 }
  - { offsetInCU: 0x1EC54, offset: 0x1EC54, size: 0x8, addend: 0x0, symName: __ZNSt3__16vectorINS0_I3GF4NS_9allocatorIS1_EEEENS2_IS4_EEE7__clearB8ue170006Ev, symObjAddr: 0x4484, symBinAddr: 0x100006870, symSize: 0x28 }
  - { offsetInCU: 0x1EC7A, offset: 0x1EC7A, size: 0x8, addend: 0x0, symName: __ZNKSt3__16vectorINS0_I3GF4NS_9allocatorIS1_EEEENS2_IS4_EEE17__annotate_deleteB8ue170006Ev, symObjAddr: 0x44AC, symBinAddr: 0x100006898, symSize: 0xD4 }
  - { offsetInCU: 0x1ECA0, offset: 0x1ECA0, size: 0x8, addend: 0x0, symName: __ZNSt3__116allocator_traitsINS_9allocatorINS_6vectorI3GF4NS1_IS3_EEEEEEE10deallocateB8ue170006ERS6_PS5_m, symObjAddr: 0x4580, symBinAddr: 0x10000696C, symSize: 0x34 }
  - { offsetInCU: 0x1ECE2, offset: 0x1ECE2, size: 0x8, addend: 0x0, symName: __ZNSt3__16vectorINS0_I3GF4NS_9allocatorIS1_EEEENS2_IS4_EEE22__base_destruct_at_endB8ue170006EPS4_, symObjAddr: 0x45B4, symBinAddr: 0x1000069A0, symSize: 0x8C }
  - { offsetInCU: 0x1ED26, offset: 0x1ED26, size: 0x8, addend: 0x0, symName: __ZNSt3__19allocatorINS_6vectorI3GF4NS0_IS2_EEEEE10deallocateB8ue170006EPS4_m, symObjAddr: 0x4640, symBinAddr: 0x100006A2C, symSize: 0x44 }
  - { offsetInCU: 0x1ED68, offset: 0x1ED68, size: 0x8, addend: 0x0, symName: __ZN6MatrixD2Ev, symObjAddr: 0x4684, symBinAddr: 0x100006A70, symSize: 0x2C }
  - { offsetInCU: 0x1ED94, offset: 0x1ED94, size: 0x8, addend: 0x0, symName: __ZNSt3__16vectorINS0_I3GF4NS_9allocatorIS1_EEEENS2_IS4_EEED1B8ue170006Ev, symObjAddr: 0x46B0, symBinAddr: 0x100006A9C, symSize: 0x2C }
  - { offsetInCU: 0x1EDBE, offset: 0x1EDBE, size: 0x8, addend: 0x0, symName: __ZNSt3__16vectorINS0_I3GF4NS_9allocatorIS1_EEEENS2_IS4_EEED2B8ue170006Ev, symObjAddr: 0x46DC, symBinAddr: 0x100006AC8, symSize: 0x40 }
  - { offsetInCU: 0x1EDE8, offset: 0x1EDE8, size: 0x8, addend: 0x0, symName: __ZN6MatrixC2Eii, symObjAddr: 0x471C, symBinAddr: 0x100006B08, symSize: 0xE8 }
  - { offsetInCU: 0x1EE81, offset: 0x1EE81, size: 0x8, addend: 0x0, symName: __ZNSt3__16vectorINS0_I3GF4NS_9allocatorIS1_EEEENS2_IS4_EEEC1B8ue170006Ev, symObjAddr: 0x4804, symBinAddr: 0x100006BF0, symSize: 0x2C }
  - { offsetInCU: 0x1EEAB, offset: 0x1EEAB, size: 0x8, addend: 0x0, symName: __ZNSt3__16vectorINS0_I3GF4NS_9allocatorIS1_EEEENS2_IS4_EEE6resizeEm, symObjAddr: 0x4830, symBinAddr: 0x100006C1C, symSize: 0x9C }
  - { offsetInCU: 0x1EEF1, offset: 0x1EEF1, size: 0x8, addend: 0x0, symName: __ZNSt3__16vectorINS0_I3GF4NS_9allocatorIS1_EEEENS2_IS4_EEE5beginB8ue170006Ev, symObjAddr: 0x48CC, symBinAddr: 0x100006CB8, symSize: 0x30 }
  - { offsetInCU: 0x1EF19, offset: 0x1EF19, size: 0x8, addend: 0x0, symName: __ZNSt3__16vectorINS0_I3GF4NS_9allocatorIS1_EEEENS2_IS4_EEE3endB8ue170006Ev, symObjAddr: 0x48FC, symBinAddr: 0x100006CE8, symSize: 0x30 }
  - { offsetInCU: 0x1EF41, offset: 0x1EF41, size: 0x8, addend: 0x0, symName: __ZNKSt3__111__wrap_iterIPNS_6vectorI3GF4NS_9allocatorIS2_EEEEEdeB8ue170006Ev, symObjAddr: 0x4960, symBinAddr: 0x100006D4C, symSize: 0x18 }
  - { offsetInCU: 0x1EF67, offset: 0x1EF67, size: 0x8, addend: 0x0, symName: __ZNSt3__16vectorI3GF4NS_9allocatorIS1_EEE6resizeEm, symObjAddr: 0x4978, symBinAddr: 0x100006D64, symSize: 0x94 }
  - { offsetInCU: 0x1EFAD, offset: 0x1EFAD, size: 0x8, addend: 0x0, symName: __ZNSt3__111__wrap_iterIPNS_6vectorI3GF4NS_9allocatorIS2_EEEEEppB8ue170006Ev, symObjAddr: 0x4A0C, symBinAddr: 0x100006DF8, symSize: 0x20 }
  - { offsetInCU: 0x1EFD3, offset: 0x1EFD3, size: 0x8, addend: 0x0, symName: __ZNSt3__16vectorINS0_I3GF4NS_9allocatorIS1_EEEENS2_IS4_EEEC2B8ue170006Ev, symObjAddr: 0x4A2C, symBinAddr: 0x100006E18, symSize: 0x4C }
  - { offsetInCU: 0x1F003, offset: 0x1F003, size: 0x8, addend: 0x0, symName: __ZNSt3__117__compressed_pairIPNS_6vectorI3GF4NS_9allocatorIS2_EEEENS3_IS5_EEEC1B8ue170006IDnNS_18__default_init_tagEEEOT_OT0_, symObjAddr: 0x4A78, symBinAddr: 0x100006E64, symSize: 0x3C }
  - { offsetInCU: 0x1F05B, offset: 0x1F05B, size: 0x8, addend: 0x0, symName: __ZNSt3__117__compressed_pairIPNS_6vectorI3GF4NS_9allocatorIS2_EEEENS3_IS5_EEEC2B8ue170006IDnNS_18__default_init_tagEEEOT_OT0_, symObjAddr: 0x4AB4, symBinAddr: 0x100006EA0, symSize: 0x40 }
  - { offsetInCU: 0x1F0B3, offset: 0x1F0B3, size: 0x8, addend: 0x0, symName: __ZNSt3__122__compressed_pair_elemINS_9allocatorINS_6vectorI3GF4NS1_IS3_EEEEEELi1ELb1EEC2B8ue170006ENS_18__default_init_tagE, symObjAddr: 0x4AF4, symBinAddr: 0x100006EE0, symSize: 0x2C }
  - { offsetInCU: 0x1F0E7, offset: 0x1F0E7, size: 0x8, addend: 0x0, symName: __ZNSt3__19allocatorINS_6vectorI3GF4NS0_IS2_EEEEEC2B8ue170006Ev, symObjAddr: 0x4B20, symBinAddr: 0x100006F0C, symSize: 0x2C }
  - { offsetInCU: 0x1F111, offset: 0x1F111, size: 0x8, addend: 0x0, symName: __ZNSt3__116__non_trivial_ifILb1ENS_9allocatorINS_6vectorI3GF4NS1_IS3_EEEEEEEC2B8ue170006Ev, symObjAddr: 0x4B4C, symBinAddr: 0x100006F38, symSize: 0x14 }
  - { offsetInCU: 0x1F13B, offset: 0x1F13B, size: 0x8, addend: 0x0, symName: __ZNSt3__16vectorINS0_I3GF4NS_9allocatorIS1_EEEENS2_IS4_EEE8__appendEm, symObjAddr: 0x4B60, symBinAddr: 0x100006F4C, symSize: 0x108 }
  - { offsetInCU: 0x1F196, offset: 0x1F196, size: 0x8, addend: 0x0, symName: __ZNSt3__16vectorINS0_I3GF4NS_9allocatorIS1_EEEENS2_IS4_EEE17__destruct_at_endB8ue170006EPS4_, symObjAddr: 0x4C68, symBinAddr: 0x100007054, symSize: 0x4C }
  - { offsetInCU: 0x1F1DA, offset: 0x1F1DA, size: 0x8, addend: 0x0, symName: __ZNSt3__16vectorINS0_I3GF4NS_9allocatorIS1_EEEENS2_IS4_EEE18__construct_at_endEm, symObjAddr: 0x4CB4, symBinAddr: 0x1000070A0, symSize: 0xC8 }
  - { offsetInCU: 0x1F24D, offset: 0x1F24D, size: 0x8, addend: 0x0, symName: __ZNKSt3__16vectorINS0_I3GF4NS_9allocatorIS1_EEEENS2_IS4_EEE11__recommendB8ue170006Em, symObjAddr: 0x4D7C, symBinAddr: 0x100007168, symSize: 0xB4 }
  - { offsetInCU: 0x1F2A2, offset: 0x1F2A2, size: 0x8, addend: 0x0, symName: __ZNSt3__114__split_bufferINS_6vectorI3GF4NS_9allocatorIS2_EEEERNS3_IS5_EEEC1EmmS7_, symObjAddr: 0x4E30, symBinAddr: 0x10000721C, symSize: 0x44 }
  - { offsetInCU: 0x1F2F8, offset: 0x1F2F8, size: 0x8, addend: 0x0, symName: __ZNSt3__114__split_bufferINS_6vectorI3GF4NS_9allocatorIS2_EEEERNS3_IS5_EEE18__construct_at_endEm, symObjAddr: 0x4E74, symBinAddr: 0x100007260, symSize: 0xB4 }
  - { offsetInCU: 0x1F33D, offset: 0x1F33D, size: 0x8, addend: 0x0, symName: __ZNSt3__114__split_bufferINS_6vectorI3GF4NS_9allocatorIS2_EEEERNS3_IS5_EEED1Ev, symObjAddr: 0x5038, symBinAddr: 0x100007424, symSize: 0x2C }
  - { offsetInCU: 0x1F369, offset: 0x1F369, size: 0x8, addend: 0x0, symName: __ZNSt3__116allocator_traitsINS_9allocatorINS_6vectorI3GF4NS1_IS3_EEEEEEE9constructB8ue170006IS5_JEvEEvRS6_PT_DpOT0_, symObjAddr: 0x5064, symBinAddr: 0x100007450, symSize: 0x2C }
  - { offsetInCU: 0x1F3AB, offset: 0x1F3AB, size: 0x8, addend: 0x0, symName: __ZNSt3__19allocatorINS_6vectorI3GF4NS0_IS2_EEEEE9constructB8ue170006IS4_JEEEvPT_DpOT0_, symObjAddr: 0x5090, symBinAddr: 0x10000747C, symSize: 0x28 }
  - { offsetInCU: 0x1F3ED, offset: 0x1F3ED, size: 0x8, addend: 0x0, symName: __ZNSt3__16vectorI3GF4NS_9allocatorIS1_EEEC1B8ue170006Ev, symObjAddr: 0x50B8, symBinAddr: 0x1000074A4, symSize: 0x2C }
  - { offsetInCU: 0x1F417, offset: 0x1F417, size: 0x8, addend: 0x0, symName: __ZNSt3__16vectorI3GF4NS_9allocatorIS1_EEEC2B8ue170006Ev, symObjAddr: 0x50E4, symBinAddr: 0x1000074D0, symSize: 0x4C }
  - { offsetInCU: 0x1F441, offset: 0x1F441, size: 0x8, addend: 0x0, symName: __ZNSt3__117__compressed_pairIP3GF4NS_9allocatorIS1_EEEC1B8ue170006IDnNS_18__default_init_tagEEEOT_OT0_, symObjAddr: 0x5130, symBinAddr: 0x10000751C, symSize: 0x3C }
  - { offsetInCU: 0x1F499, offset: 0x1F499, size: 0x8, addend: 0x0, symName: __ZNSt3__117__compressed_pairIP3GF4NS_9allocatorIS1_EEEC2B8ue170006IDnNS_18__default_init_tagEEEOT_OT0_, symObjAddr: 0x516C, symBinAddr: 0x100007558, symSize: 0x40 }
  - { offsetInCU: 0x1F4F1, offset: 0x1F4F1, size: 0x8, addend: 0x0, symName: __ZNSt3__122__compressed_pair_elemINS_9allocatorI3GF4EELi1ELb1EEC2B8ue170006ENS_18__default_init_tagE, symObjAddr: 0x51AC, symBinAddr: 0x100007598, symSize: 0x2C }
  - { offsetInCU: 0x1F525, offset: 0x1F525, size: 0x8, addend: 0x0, symName: __ZNSt3__19allocatorI3GF4EC2B8ue170006Ev, symObjAddr: 0x51D8, symBinAddr: 0x1000075C4, symSize: 0x2C }
  - { offsetInCU: 0x1F54F, offset: 0x1F54F, size: 0x8, addend: 0x0, symName: __ZNSt3__116__non_trivial_ifILb1ENS_9allocatorI3GF4EEEC2B8ue170006Ev, symObjAddr: 0x5204, symBinAddr: 0x1000075F0, symSize: 0x14 }
  - { offsetInCU: 0x1F579, offset: 0x1F579, size: 0x8, addend: 0x0, symName: __ZNSt3__114__split_bufferINS_6vectorI3GF4NS_9allocatorIS2_EEEERNS3_IS5_EEEC2EmmS7_, symObjAddr: 0x5298, symBinAddr: 0x100007684, symSize: 0xE0 }
  - { offsetInCU: 0x1F5ED, offset: 0x1F5ED, size: 0x8, addend: 0x0, symName: __ZNSt3__117__compressed_pairIPNS_6vectorI3GF4NS_9allocatorIS2_EEEERNS3_IS5_EEEC1B8ue170006IDnS8_EEOT_OT0_, symObjAddr: 0x5378, symBinAddr: 0x100007764, symSize: 0x3C }
  - { offsetInCU: 0x1F645, offset: 0x1F645, size: 0x8, addend: 0x0, symName: __ZNSt3__114__split_bufferINS_6vectorI3GF4NS_9allocatorIS2_EEEERNS3_IS5_EEE7__allocB8ue170006Ev, symObjAddr: 0x53B4, symBinAddr: 0x1000077A0, symSize: 0x28 }
  - { offsetInCU: 0x1F66B, offset: 0x1F66B, size: 0x8, addend: 0x0, symName: __ZNSt3__114__split_bufferINS_6vectorI3GF4NS_9allocatorIS2_EEEERNS3_IS5_EEE9__end_capB8ue170006Ev, symObjAddr: 0x53DC, symBinAddr: 0x1000077C8, symSize: 0x28 }
  - { offsetInCU: 0x1F691, offset: 0x1F691, size: 0x8, addend: 0x0, symName: __ZNSt3__117__compressed_pairIPNS_6vectorI3GF4NS_9allocatorIS2_EEEERNS3_IS5_EEEC2B8ue170006IDnS8_EEOT_OT0_, symObjAddr: 0x5404, symBinAddr: 0x1000077F0, symSize: 0x48 }
  - { offsetInCU: 0x1F6E9, offset: 0x1F6E9, size: 0x8, addend: 0x0, symName: __ZNSt3__122__compressed_pair_elemIRNS_9allocatorINS_6vectorI3GF4NS1_IS3_EEEEEELi1ELb0EEC2B8ue170006IS7_vEEOT_, symObjAddr: 0x544C, symBinAddr: 0x100007838, symSize: 0x20 }
  - { offsetInCU: 0x1F72B, offset: 0x1F72B, size: 0x8, addend: 0x0, symName: __ZNSt3__117__compressed_pairIPNS_6vectorI3GF4NS_9allocatorIS2_EEEERNS3_IS5_EEE6secondB8ue170006Ev, symObjAddr: 0x546C, symBinAddr: 0x100007858, symSize: 0x28 }
  - { offsetInCU: 0x1F751, offset: 0x1F751, size: 0x8, addend: 0x0, symName: __ZNSt3__122__compressed_pair_elemIRNS_9allocatorINS_6vectorI3GF4NS1_IS3_EEEEEELi1ELb0EE5__getB8ue170006Ev, symObjAddr: 0x5494, symBinAddr: 0x100007880, symSize: 0x18 }
  - { offsetInCU: 0x1F777, offset: 0x1F777, size: 0x8, addend: 0x0, symName: __ZNSt3__117__compressed_pairIPNS_6vectorI3GF4NS_9allocatorIS2_EEEERNS3_IS5_EEE5firstB8ue170006Ev, symObjAddr: 0x54AC, symBinAddr: 0x100007898, symSize: 0x24 }
  - { offsetInCU: 0x1F7A9, offset: 0x1F7A9, size: 0x8, addend: 0x0, symName: __ZNSt3__114__split_bufferINS_6vectorI3GF4NS_9allocatorIS2_EEEERNS3_IS5_EEE21_ConstructTransactionC1B8ue170006EPPS5_m, symObjAddr: 0x54D0, symBinAddr: 0x1000078BC, symSize: 0x3C }
  - { offsetInCU: 0x1F7EF, offset: 0x1F7EF, size: 0x8, addend: 0x0, symName: __ZNSt3__114__split_bufferINS_6vectorI3GF4NS_9allocatorIS2_EEEERNS3_IS5_EEE21_ConstructTransactionD1B8ue170006Ev, symObjAddr: 0x550C, symBinAddr: 0x1000078F8, symSize: 0x2C }
  - { offsetInCU: 0x1F819, offset: 0x1F819, size: 0x8, addend: 0x0, symName: __ZNSt3__114__split_bufferINS_6vectorI3GF4NS_9allocatorIS2_EEEERNS3_IS5_EEE21_ConstructTransactionC2B8ue170006EPPS5_m, symObjAddr: 0x5538, symBinAddr: 0x100007924, symSize: 0x4C }
  - { offsetInCU: 0x1F85F, offset: 0x1F85F, size: 0x8, addend: 0x0, symName: __ZNSt3__114__split_bufferINS_6vectorI3GF4NS_9allocatorIS2_EEEERNS3_IS5_EEE21_ConstructTransactionD2B8ue170006Ev, symObjAddr: 0x5584, symBinAddr: 0x100007970, symSize: 0x20 }
  - { offsetInCU: 0x1F889, offset: 0x1F889, size: 0x8, addend: 0x0, symName: __ZNSt3__129_AllocatorDestroyRangeReverseINS_9allocatorINS_6vectorI3GF4NS1_IS3_EEEEEENS_16reverse_iteratorIPS5_EEEC1B8ue170006ERS6_RS9_SC_, symObjAddr: 0x5748, symBinAddr: 0x100007B34, symSize: 0x44 }
  - { offsetInCU: 0x1F8E0, offset: 0x1F8E0, size: 0x8, addend: 0x0, symName: __ZNSt3__116allocator_traitsINS_9allocatorINS_6vectorI3GF4NS1_IS3_EEEEEEE9constructB8ue170006IS5_JS5_EvEEvRS6_PT_DpOT0_, symObjAddr: 0x578C, symBinAddr: 0x100007B78, symSize: 0x34 }
  - { offsetInCU: 0x1F937, offset: 0x1F937, size: 0x8, addend: 0x0, symName: __ZNSt3__128__exception_guard_exceptionsINS_29_AllocatorDestroyRangeReverseINS_9allocatorINS_6vectorI3GF4NS2_IS4_EEEEEENS_16reverse_iteratorIPS6_EEEEE10__completeB8ue170006Ev, symObjAddr: 0x57C0, symBinAddr: 0x100007BAC, symSize: 0x1C }
  - { offsetInCU: 0x1F95D, offset: 0x1F95D, size: 0x8, addend: 0x0, symName: __ZNSt3__128__exception_guard_exceptionsINS_29_AllocatorDestroyRangeReverseINS_9allocatorINS_6vectorI3GF4NS2_IS4_EEEEEENS_16reverse_iteratorIPS6_EEEEED1B8ue170006Ev, symObjAddr: 0x57DC, symBinAddr: 0x100007BC8, symSize: 0x2C }
  - { offsetInCU: 0x1F987, offset: 0x1F987, size: 0x8, addend: 0x0, symName: __ZNSt3__128__exception_guard_exceptionsINS_29_AllocatorDestroyRangeReverseINS_9allocatorINS_6vectorI3GF4NS2_IS4_EEEEEENS_16reverse_iteratorIPS6_EEEEEC1B8ue170006ESB_, symObjAddr: 0x5808, symBinAddr: 0x100007BF4, symSize: 0x34 }
  - { offsetInCU: 0x1F9C0, offset: 0x1F9C0, size: 0x8, addend: 0x0, symName: __ZNSt3__128__exception_guard_exceptionsINS_29_AllocatorDestroyRangeReverseINS_9allocatorINS_6vectorI3GF4NS2_IS4_EEEEEENS_16reverse_iteratorIPS6_EEEEEC2B8ue170006ESB_, symObjAddr: 0x583C, symBinAddr: 0x100007C28, symSize: 0x30 }
  - { offsetInCU: 0x1F9F9, offset: 0x1F9F9, size: 0x8, addend: 0x0, symName: __ZNSt3__129_AllocatorDestroyRangeReverseINS_9allocatorINS_6vectorI3GF4NS1_IS3_EEEEEENS_16reverse_iteratorIPS5_EEEC2B8ue170006ERS6_RS9_SC_, symObjAddr: 0x586C, symBinAddr: 0x100007C58, symSize: 0x38 }
  - { offsetInCU: 0x1FA50, offset: 0x1FA50, size: 0x8, addend: 0x0, symName: __ZNSt3__19allocatorINS_6vectorI3GF4NS0_IS2_EEEEE9constructB8ue170006IS4_JS4_EEEvPT_DpOT0_, symObjAddr: 0x58A4, symBinAddr: 0x100007C90, symSize: 0x30 }
  - { offsetInCU: 0x1FAA6, offset: 0x1FAA6, size: 0x8, addend: 0x0, symName: __ZNSt3__16vectorI3GF4NS_9allocatorIS1_EEEC1B8ue170006EOS4_, symObjAddr: 0x58D4, symBinAddr: 0x100007CC0, symSize: 0x34 }
  - { offsetInCU: 0x1FAE1, offset: 0x1FAE1, size: 0x8, addend: 0x0, symName: __ZNSt3__16vectorI3GF4NS_9allocatorIS1_EEEC2B8ue170006EOS4_, symObjAddr: 0x5908, symBinAddr: 0x100007CF4, symSize: 0xC4 }
  - { offsetInCU: 0x1FB1C, offset: 0x1FB1C, size: 0x8, addend: 0x0, symName: __ZNSt3__128__exception_guard_exceptionsINS_29_AllocatorDestroyRangeReverseINS_9allocatorINS_6vectorI3GF4NS2_IS4_EEEEEENS_16reverse_iteratorIPS6_EEEEED2B8ue170006Ev, symObjAddr: 0x59CC, symBinAddr: 0x100007DB8, symSize: 0x50 }
  - { offsetInCU: 0x1FB46, offset: 0x1FB46, size: 0x8, addend: 0x0, symName: __ZNKSt3__129_AllocatorDestroyRangeReverseINS_9allocatorINS_6vectorI3GF4NS1_IS3_EEEEEENS_16reverse_iteratorIPS5_EEEclB8ue170006Ev, symObjAddr: 0x5A1C, symBinAddr: 0x100007E08, symSize: 0xB4 }
  - { offsetInCU: 0x1FB6D, offset: 0x1FB6D, size: 0x8, addend: 0x0, symName: __ZNSt3__116reverse_iteratorINS0_IPNS_6vectorI3GF4NS_9allocatorIS2_EEEEEEEC1B8ue170006ES7_, symObjAddr: 0x5B40, symBinAddr: 0x100007F2C, symSize: 0x3C }
  - { offsetInCU: 0x1FBA5, offset: 0x1FBA5, size: 0x8, addend: 0x0, symName: __ZNSt3__116reverse_iteratorINS0_IPNS_6vectorI3GF4NS_9allocatorIS2_EEEEEEEppB8ue170006Ev, symObjAddr: 0x5C00, symBinAddr: 0x100007FEC, symSize: 0x30 }
  - { offsetInCU: 0x1FBCB, offset: 0x1FBCB, size: 0x8, addend: 0x0, symName: __ZNKSt3__116reverse_iteratorINS0_IPNS_6vectorI3GF4NS_9allocatorIS2_EEEEEEE4baseB8ue170006Ev, symObjAddr: 0x5C30, symBinAddr: 0x10000801C, symSize: 0x24 }
  - { offsetInCU: 0x1FBF7, offset: 0x1FBF7, size: 0x8, addend: 0x0, symName: __ZNSt3__119__to_address_helperINS_16reverse_iteratorINS1_IPNS_6vectorI3GF4NS_9allocatorIS3_EEEEEEEEvE6__callB8ue170006ERKS9_, symObjAddr: 0x5C54, symBinAddr: 0x100008040, symSize: 0x38 }
  - { offsetInCU: 0x1FC1A, offset: 0x1FC1A, size: 0x8, addend: 0x0, symName: __ZNKSt3__116reverse_iteratorINS0_IPNS_6vectorI3GF4NS_9allocatorIS2_EEEEEEEptB8ue170006Ev, symObjAddr: 0x5C8C, symBinAddr: 0x100008078, symSize: 0x24 }
  - { offsetInCU: 0x1FC40, offset: 0x1FC40, size: 0x8, addend: 0x0, symName: __ZNKSt3__116reverse_iteratorINS0_IPNS_6vectorI3GF4NS_9allocatorIS2_EEEEEEEdeB8ue170006Ev, symObjAddr: 0x5CB0, symBinAddr: 0x10000809C, symSize: 0x34 }
  - { offsetInCU: 0x1FC74, offset: 0x1FC74, size: 0x8, addend: 0x0, symName: __ZNSt3__116reverse_iteratorIPNS_6vectorI3GF4NS_9allocatorIS2_EEEEEmmB8ue170006Ev, symObjAddr: 0x5CE4, symBinAddr: 0x1000080D0, symSize: 0x20 }
  - { offsetInCU: 0x1FC9A, offset: 0x1FC9A, size: 0x8, addend: 0x0, symName: __ZNSt3__116reverse_iteratorINS0_IPNS_6vectorI3GF4NS_9allocatorIS2_EEEEEEEC2B8ue170006ES7_, symObjAddr: 0x5D04, symBinAddr: 0x1000080F0, symSize: 0x2C }
  - { offsetInCU: 0x1FCD2, offset: 0x1FCD2, size: 0x8, addend: 0x0, symName: __ZNSt3__114__split_bufferINS_6vectorI3GF4NS_9allocatorIS2_EEEERNS3_IS5_EEED2Ev, symObjAddr: 0x5D30, symBinAddr: 0x10000811C, symSize: 0x8C }
  - { offsetInCU: 0x1FCFE, offset: 0x1FCFE, size: 0x8, addend: 0x0, symName: __ZNSt3__114__split_bufferINS_6vectorI3GF4NS_9allocatorIS2_EEEERNS3_IS5_EEE5clearB8ue170006Ev, symObjAddr: 0x5DBC, symBinAddr: 0x1000081A8, symSize: 0x28 }
  - { offsetInCU: 0x1FD24, offset: 0x1FD24, size: 0x8, addend: 0x0, symName: __ZNKSt3__114__split_bufferINS_6vectorI3GF4NS_9allocatorIS2_EEEERNS3_IS5_EEE8capacityB8ue170006Ev, symObjAddr: 0x5DE4, symBinAddr: 0x1000081D0, symSize: 0x40 }
  - { offsetInCU: 0x1FD4A, offset: 0x1FD4A, size: 0x8, addend: 0x0, symName: __ZNSt3__114__split_bufferINS_6vectorI3GF4NS_9allocatorIS2_EEEERNS3_IS5_EEE17__destruct_at_endB8ue170006EPS5_, symObjAddr: 0x5E24, symBinAddr: 0x100008210, symSize: 0x2C }
  - { offsetInCU: 0x1FD7E, offset: 0x1FD7E, size: 0x8, addend: 0x0, symName: __ZNSt3__114__split_bufferINS_6vectorI3GF4NS_9allocatorIS2_EEEERNS3_IS5_EEE17__destruct_at_endB8ue170006EPS5_NS_17integral_constantIbLb0EEE, symObjAddr: 0x5E50, symBinAddr: 0x10000823C, symSize: 0x80 }
  - { offsetInCU: 0x1FDBE, offset: 0x1FDBE, size: 0x8, addend: 0x0, symName: __ZNKSt3__114__split_bufferINS_6vectorI3GF4NS_9allocatorIS2_EEEERNS3_IS5_EEE9__end_capB8ue170006Ev, symObjAddr: 0x5ED0, symBinAddr: 0x1000082BC, symSize: 0x28 }
  - { offsetInCU: 0x1FDE4, offset: 0x1FDE4, size: 0x8, addend: 0x0, symName: __ZNKSt3__117__compressed_pairIPNS_6vectorI3GF4NS_9allocatorIS2_EEEERNS3_IS5_EEE5firstB8ue170006Ev, symObjAddr: 0x5EF8, symBinAddr: 0x1000082E4, symSize: 0x24 }
  - { offsetInCU: 0x1FE0A, offset: 0x1FE0A, size: 0x8, addend: 0x0, symName: __ZNKSt3__16vectorINS0_I3GF4NS_9allocatorIS1_EEEENS2_IS4_EEE17__annotate_shrinkB8ue170006Em, symObjAddr: 0x5F1C, symBinAddr: 0x100008308, symSize: 0xD0 }
  - { offsetInCU: 0x1FE3F, offset: 0x1FE3F, size: 0x8, addend: 0x0, symName: __ZNSt3__16vectorINS0_I3GF4NS_9allocatorIS1_EEEENS2_IS4_EEE11__make_iterB8ue170006EPS4_, symObjAddr: 0x5FEC, symBinAddr: 0x1000083D8, symSize: 0x30 }
  - { offsetInCU: 0x1FE74, offset: 0x1FE74, size: 0x8, addend: 0x0, symName: __ZNSt3__111__wrap_iterIPNS_6vectorI3GF4NS_9allocatorIS2_EEEEEC1B8ue170006ES6_, symObjAddr: 0x601C, symBinAddr: 0x100008408, symSize: 0x34 }
  - { offsetInCU: 0x1FEAC, offset: 0x1FEAC, size: 0x8, addend: 0x0, symName: __ZNSt3__111__wrap_iterIPNS_6vectorI3GF4NS_9allocatorIS2_EEEEEC2B8ue170006ES6_, symObjAddr: 0x6050, symBinAddr: 0x10000843C, symSize: 0x20 }
  - { offsetInCU: 0x1FEE4, offset: 0x1FEE4, size: 0x8, addend: 0x0, symName: __ZNKSt3__111__wrap_iterIPNS_6vectorI3GF4NS_9allocatorIS2_EEEEE4baseB8ue170006Ev, symObjAddr: 0x60B8, symBinAddr: 0x1000084A4, symSize: 0x18 }
  - { offsetInCU: 0x1FF0A, offset: 0x1FF0A, size: 0x8, addend: 0x0, symName: __ZNSt3__16vectorI3GF4NS_9allocatorIS1_EEE8__appendEm, symObjAddr: 0x60D0, symBinAddr: 0x1000084BC, symSize: 0x100 }
  - { offsetInCU: 0x1FF65, offset: 0x1FF65, size: 0x8, addend: 0x0, symName: __ZNSt3__16vectorI3GF4NS_9allocatorIS1_EEE17__destruct_at_endB8ue170006EPS1_, symObjAddr: 0x61D0, symBinAddr: 0x1000085BC, symSize: 0x4C }
  - { offsetInCU: 0x1FFA9, offset: 0x1FFA9, size: 0x8, addend: 0x0, symName: __ZNSt3__16vectorI3GF4NS_9allocatorIS1_EEE18__construct_at_endEm, symObjAddr: 0x621C, symBinAddr: 0x100008608, symSize: 0xC8 }
  - { offsetInCU: 0x2001C, offset: 0x2001C, size: 0x8, addend: 0x0, symName: __ZNKSt3__16vectorI3GF4NS_9allocatorIS1_EEE11__recommendB8ue170006Em, symObjAddr: 0x62E4, symBinAddr: 0x1000086D0, symSize: 0xB4 }
  - { offsetInCU: 0x20071, offset: 0x20071, size: 0x8, addend: 0x0, symName: __ZNSt3__114__split_bufferI3GF4RNS_9allocatorIS1_EEEC1EmmS4_, symObjAddr: 0x6398, symBinAddr: 0x100008784, symSize: 0x44 }
  - { offsetInCU: 0x200C7, offset: 0x200C7, size: 0x8, addend: 0x0, symName: __ZNSt3__114__split_bufferI3GF4RNS_9allocatorIS1_EEE18__construct_at_endEm, symObjAddr: 0x63DC, symBinAddr: 0x1000087C8, symSize: 0xB4 }
  - { offsetInCU: 0x2010C, offset: 0x2010C, size: 0x8, addend: 0x0, symName: __ZNSt3__114__split_bufferI3GF4RNS_9allocatorIS1_EEED1Ev, symObjAddr: 0x65A0, symBinAddr: 0x10000898C, symSize: 0x2C }
  - { offsetInCU: 0x20138, offset: 0x20138, size: 0x8, addend: 0x0, symName: __ZNSt3__116allocator_traitsINS_9allocatorI3GF4EEE9constructB8ue170006IS2_JEvEEvRS3_PT_DpOT0_, symObjAddr: 0x65CC, symBinAddr: 0x1000089B8, symSize: 0x2C }
  - { offsetInCU: 0x2017A, offset: 0x2017A, size: 0x8, addend: 0x0, symName: __ZNSt3__19allocatorI3GF4E9constructB8ue170006IS1_JEEEvPT_DpOT0_, symObjAddr: 0x65F8, symBinAddr: 0x1000089E4, symSize: 0x28 }
  - { offsetInCU: 0x201BC, offset: 0x201BC, size: 0x8, addend: 0x0, symName: __ZN3GF4C1Ev, symObjAddr: 0x6620, symBinAddr: 0x100008A0C, symSize: 0x2C }
  - { offsetInCU: 0x201E6, offset: 0x201E6, size: 0x8, addend: 0x0, symName: __ZN3GF4C2Ev, symObjAddr: 0x664C, symBinAddr: 0x100008A38, symSize: 0x18 }
  - { offsetInCU: 0x20210, offset: 0x20210, size: 0x8, addend: 0x0, symName: __ZNSt3__114__split_bufferI3GF4RNS_9allocatorIS1_EEEC2EmmS4_, symObjAddr: 0x6664, symBinAddr: 0x100008A50, symSize: 0xD4 }
  - { offsetInCU: 0x20284, offset: 0x20284, size: 0x8, addend: 0x0, symName: __ZNSt3__117__compressed_pairIP3GF4RNS_9allocatorIS1_EEEC1B8ue170006IDnS5_EEOT_OT0_, symObjAddr: 0x6738, symBinAddr: 0x100008B24, symSize: 0x3C }
  - { offsetInCU: 0x202DC, offset: 0x202DC, size: 0x8, addend: 0x0, symName: __ZNSt3__114__split_bufferI3GF4RNS_9allocatorIS1_EEE7__allocB8ue170006Ev, symObjAddr: 0x6774, symBinAddr: 0x100008B60, symSize: 0x28 }
  - { offsetInCU: 0x20302, offset: 0x20302, size: 0x8, addend: 0x0, symName: __ZNSt3__114__split_bufferI3GF4RNS_9allocatorIS1_EEE9__end_capB8ue170006Ev, symObjAddr: 0x679C, symBinAddr: 0x100008B88, symSize: 0x28 }
  - { offsetInCU: 0x20328, offset: 0x20328, size: 0x8, addend: 0x0, symName: __ZNSt3__117__compressed_pairIP3GF4RNS_9allocatorIS1_EEEC2B8ue170006IDnS5_EEOT_OT0_, symObjAddr: 0x67C4, symBinAddr: 0x100008BB0, symSize: 0x48 }
  - { offsetInCU: 0x20380, offset: 0x20380, size: 0x8, addend: 0x0, symName: __ZNSt3__122__compressed_pair_elemIRNS_9allocatorI3GF4EELi1ELb0EEC2B8ue170006IS4_vEEOT_, symObjAddr: 0x680C, symBinAddr: 0x100008BF8, symSize: 0x20 }
  - { offsetInCU: 0x203C2, offset: 0x203C2, size: 0x8, addend: 0x0, symName: __ZNSt3__117__compressed_pairIP3GF4RNS_9allocatorIS1_EEE6secondB8ue170006Ev, symObjAddr: 0x682C, symBinAddr: 0x100008C18, symSize: 0x28 }
  - { offsetInCU: 0x203E8, offset: 0x203E8, size: 0x8, addend: 0x0, symName: __ZNSt3__122__compressed_pair_elemIRNS_9allocatorI3GF4EELi1ELb0EE5__getB8ue170006Ev, symObjAddr: 0x6854, symBinAddr: 0x100008C40, symSize: 0x18 }
  - { offsetInCU: 0x2040E, offset: 0x2040E, size: 0x8, addend: 0x0, symName: __ZNSt3__117__compressed_pairIP3GF4RNS_9allocatorIS1_EEE5firstB8ue170006Ev, symObjAddr: 0x686C, symBinAddr: 0x100008C58, symSize: 0x24 }
  - { offsetInCU: 0x20440, offset: 0x20440, size: 0x8, addend: 0x0, symName: __ZNSt3__114__split_bufferI3GF4RNS_9allocatorIS1_EEE21_ConstructTransactionC1B8ue170006EPPS1_m, symObjAddr: 0x6890, symBinAddr: 0x100008C7C, symSize: 0x3C }
  - { offsetInCU: 0x20486, offset: 0x20486, size: 0x8, addend: 0x0, symName: __ZNSt3__114__split_bufferI3GF4RNS_9allocatorIS1_EEE21_ConstructTransactionD1B8ue170006Ev, symObjAddr: 0x68CC, symBinAddr: 0x100008CB8, symSize: 0x2C }
  - { offsetInCU: 0x204B0, offset: 0x204B0, size: 0x8, addend: 0x0, symName: __ZNSt3__114__split_bufferI3GF4RNS_9allocatorIS1_EEE21_ConstructTransactionC2B8ue170006EPPS1_m, symObjAddr: 0x68F8, symBinAddr: 0x100008CE4, symSize: 0x44 }
  - { offsetInCU: 0x204F6, offset: 0x204F6, size: 0x8, addend: 0x0, symName: __ZNSt3__114__split_bufferI3GF4RNS_9allocatorIS1_EEE21_ConstructTransactionD2B8ue170006Ev, symObjAddr: 0x693C, symBinAddr: 0x100008D28, symSize: 0x20 }
  - { offsetInCU: 0x20520, offset: 0x20520, size: 0x8, addend: 0x0, symName: __ZNSt3__116reverse_iteratorIP3GF4EC1B8ue170006ES2_, symObjAddr: 0x69D4, symBinAddr: 0x100008DC0, symSize: 0x34 }
  - { offsetInCU: 0x20558, offset: 0x20558, size: 0x8, addend: 0x0, symName: __ZNKSt3__116reverse_iteratorIP3GF4E4baseB8ue170006Ev, symObjAddr: 0x6A08, symBinAddr: 0x100008DF4, symSize: 0x18 }
  - { offsetInCU: 0x205A6, offset: 0x205A6, size: 0x8, addend: 0x0, symName: __ZNKSt3__111__move_loopINS_17_ClassicAlgPolicyEEclB8ue170006INS_16reverse_iteratorIP3GF4EES7_S7_EENS_4pairIT_T1_EES9_T0_SA_, symObjAddr: 0x6D10, symBinAddr: 0x1000090FC, symSize: 0xA0 }
  - { offsetInCU: 0x20617, offset: 0x20617, size: 0x8, addend: 0x0, symName: __ZNSt3__18_IterOpsINS_17_ClassicAlgPolicyEE11__iter_moveB8ue170006IRNS_16reverse_iteratorIP3GF4EEEENS_9enable_ifIXsr12is_referenceIDTdeclsr3stdE7declvalIRT_EEEEE5valueEDTclsr3stdE4movedeclsr3stdE7declvalISB_EEEEE4typeEOSA_, symObjAddr: 0x6F44, symBinAddr: 0x100009330, symSize: 0x28 }
  - { offsetInCU: 0x20643, offset: 0x20643, size: 0x8, addend: 0x0, symName: __ZNKSt3__116reverse_iteratorIP3GF4EdeB8ue170006Ev, symObjAddr: 0x6F6C, symBinAddr: 0x100009358, symSize: 0x28 }
  - { offsetInCU: 0x20677, offset: 0x20677, size: 0x8, addend: 0x0, symName: __ZNSt3__116reverse_iteratorIP3GF4EppB8ue170006Ev, symObjAddr: 0x6F94, symBinAddr: 0x100009380, symSize: 0x20 }
  - { offsetInCU: 0x2069D, offset: 0x2069D, size: 0x8, addend: 0x0, symName: __ZNSt3__18_IterOpsINS_17_ClassicAlgPolicyEE25__validate_iter_referenceB8ue170006IRNS_16reverse_iteratorIP3GF4EEEEvv, symObjAddr: 0x6FB4, symBinAddr: 0x1000093A0, symSize: 0x4 }
  - { offsetInCU: 0x206BB, offset: 0x206BB, size: 0x8, addend: 0x0, symName: __ZNSt3__118__unwrap_iter_implINS_16reverse_iteratorIP3GF4EELb0EE8__unwrapB8ue170006ES4_, symObjAddr: 0x6FB8, symBinAddr: 0x1000093A4, symSize: 0x24 }
  - { offsetInCU: 0x206E4, offset: 0x206E4, size: 0x8, addend: 0x0, symName: __ZNSt3__14pairINS_16reverse_iteratorIP3GF4EES4_EC1B8ue170006IS4_S4_LPv0EEEOT_OT0_, symObjAddr: 0x6FDC, symBinAddr: 0x1000093C8, symSize: 0x3C }
  - { offsetInCU: 0x20742, offset: 0x20742, size: 0x8, addend: 0x0, symName: __ZNSt3__14pairINS_16reverse_iteratorIP3GF4EES4_EC2B8ue170006IS4_S4_LPv0EEEOT_OT0_, symObjAddr: 0x7018, symBinAddr: 0x100009404, symSize: 0x34 }
  - { offsetInCU: 0x207A0, offset: 0x207A0, size: 0x8, addend: 0x0, symName: __ZNSt3__118__unwrap_iter_implINS_16reverse_iteratorIP3GF4EELb0EE8__rewrapB8ue170006ES4_S4_, symObjAddr: 0x704C, symBinAddr: 0x100009438, symSize: 0x2C }
  - { offsetInCU: 0x207CD, offset: 0x207CD, size: 0x8, addend: 0x0, symName: __ZNSt3__116reverse_iteratorIP3GF4EC2B8ue170006ES2_, symObjAddr: 0x7078, symBinAddr: 0x100009464, symSize: 0x28 }
  - { offsetInCU: 0x20805, offset: 0x20805, size: 0x8, addend: 0x0, symName: __ZNSt3__114__split_bufferI3GF4RNS_9allocatorIS1_EEED2Ev, symObjAddr: 0x70A0, symBinAddr: 0x10000948C, symSize: 0x8C }
  - { offsetInCU: 0x20831, offset: 0x20831, size: 0x8, addend: 0x0, symName: __ZNSt3__114__split_bufferI3GF4RNS_9allocatorIS1_EEE5clearB8ue170006Ev, symObjAddr: 0x712C, symBinAddr: 0x100009518, symSize: 0x28 }
  - { offsetInCU: 0x20857, offset: 0x20857, size: 0x8, addend: 0x0, symName: __ZNKSt3__114__split_bufferI3GF4RNS_9allocatorIS1_EEE8capacityB8ue170006Ev, symObjAddr: 0x7154, symBinAddr: 0x100009540, symSize: 0x38 }
  - { offsetInCU: 0x2087D, offset: 0x2087D, size: 0x8, addend: 0x0, symName: __ZNSt3__114__split_bufferI3GF4RNS_9allocatorIS1_EEE17__destruct_at_endB8ue170006EPS1_, symObjAddr: 0x718C, symBinAddr: 0x100009578, symSize: 0x2C }
  - { offsetInCU: 0x208B1, offset: 0x208B1, size: 0x8, addend: 0x0, symName: __ZNSt3__114__split_bufferI3GF4RNS_9allocatorIS1_EEE17__destruct_at_endB8ue170006EPS1_NS_17integral_constantIbLb0EEE, symObjAddr: 0x71B8, symBinAddr: 0x1000095A4, symSize: 0x80 }
  - { offsetInCU: 0x208F1, offset: 0x208F1, size: 0x8, addend: 0x0, symName: __ZNKSt3__114__split_bufferI3GF4RNS_9allocatorIS1_EEE9__end_capB8ue170006Ev, symObjAddr: 0x7238, symBinAddr: 0x100009624, symSize: 0x28 }
  - { offsetInCU: 0x20917, offset: 0x20917, size: 0x8, addend: 0x0, symName: __ZNKSt3__117__compressed_pairIP3GF4RNS_9allocatorIS1_EEE5firstB8ue170006Ev, symObjAddr: 0x7260, symBinAddr: 0x10000964C, symSize: 0x24 }
  - { offsetInCU: 0x2093D, offset: 0x2093D, size: 0x8, addend: 0x0, symName: __ZNKSt3__16vectorI3GF4NS_9allocatorIS1_EEE17__annotate_shrinkB8ue170006Em, symObjAddr: 0x7284, symBinAddr: 0x100009670, symSize: 0xB4 }
  - { offsetInCU: 0x20972, offset: 0x20972, size: 0x8, addend: 0x0, symName: __ZN3GF4C2Ei, symObjAddr: 0x7338, symBinAddr: 0x100009724, symSize: 0x20 }
  - { offsetInCU: 0x209AA, offset: 0x209AA, size: 0x8, addend: 0x0, symName: __ZNSt3__16vectorIbNS_9allocatorIbEEEC2B8ue170006Ev, symObjAddr: 0x7358, symBinAddr: 0x100009744, symSize: 0x4C }
  - { offsetInCU: 0x209D6, offset: 0x209D6, size: 0x8, addend: 0x0, symName: __ZNSt3__117__compressed_pairImNS_9allocatorImEEEC1B8ue170006IiNS_18__default_init_tagEEEOT_OT0_, symObjAddr: 0x73A4, symBinAddr: 0x100009790, symSize: 0x3C }
  - { offsetInCU: 0x20A2E, offset: 0x20A2E, size: 0x8, addend: 0x0, symName: __ZNSt3__117__compressed_pairImNS_9allocatorImEEEC2B8ue170006IiNS_18__default_init_tagEEEOT_OT0_, symObjAddr: 0x73E0, symBinAddr: 0x1000097CC, symSize: 0x40 }
  - { offsetInCU: 0x20A86, offset: 0x20A86, size: 0x8, addend: 0x0, symName: __ZNSt3__122__compressed_pair_elemImLi0ELb0EEC2B8ue170006IivEEOT_, symObjAddr: 0x7420, symBinAddr: 0x10000980C, symSize: 0x24 }
  - { offsetInCU: 0x20AC8, offset: 0x20AC8, size: 0x8, addend: 0x0, symName: __ZNSt3__122__compressed_pair_elemINS_9allocatorImEELi1ELb1EEC2B8ue170006ENS_18__default_init_tagE, symObjAddr: 0x7444, symBinAddr: 0x100009830, symSize: 0x2C }
  - { offsetInCU: 0x20AFC, offset: 0x20AFC, size: 0x8, addend: 0x0, symName: __ZNSt3__19allocatorImEC2B8ue170006Ev, symObjAddr: 0x7470, symBinAddr: 0x10000985C, symSize: 0x2C }
  - { offsetInCU: 0x20B26, offset: 0x20B26, size: 0x8, addend: 0x0, symName: __ZNSt3__116__non_trivial_ifILb1ENS_9allocatorImEEEC2B8ue170006Ev, symObjAddr: 0x749C, symBinAddr: 0x100009888, symSize: 0x14 }
  - { offsetInCU: 0x20B50, offset: 0x20B50, size: 0x8, addend: 0x0, symName: __ZNSt3__16vectorIbNS_9allocatorIbEEED2B8ue170006Ev, symObjAddr: 0x74B0, symBinAddr: 0x10000989C, symSize: 0x44 }
  - { offsetInCU: 0x20B7A, offset: 0x20B7A, size: 0x8, addend: 0x0, symName: __ZNSt3__16vectorIbNS_9allocatorIbEEE16__destroy_vectorC1B8ue170006ERS3_, symObjAddr: 0x74F4, symBinAddr: 0x1000098E0, symSize: 0x34 }
  - { offsetInCU: 0x20BB3, offset: 0x20BB3, size: 0x8, addend: 0x0, symName: __ZNSt3__16vectorIbNS_9allocatorIbEEE16__destroy_vectorclB8ue170006Ev, symObjAddr: 0x7528, symBinAddr: 0x100009914, symSize: 0x7C }
  - { offsetInCU: 0x20BD9, offset: 0x20BD9, size: 0x8, addend: 0x0, symName: __ZNSt3__16vectorIbNS_9allocatorIbEEE16__destroy_vectorC2B8ue170006ERS3_, symObjAddr: 0x75A4, symBinAddr: 0x100009990, symSize: 0x20 }
  - { offsetInCU: 0x20C12, offset: 0x20C12, size: 0x8, addend: 0x0, symName: __ZNSt3__116allocator_traitsINS_9allocatorImEEE10deallocateB8ue170006ERS2_Pmm, symObjAddr: 0x75C4, symBinAddr: 0x1000099B0, symSize: 0x34 }
  - { offsetInCU: 0x20C54, offset: 0x20C54, size: 0x8, addend: 0x0, symName: __ZNSt3__16vectorIbNS_9allocatorIbEEE7__allocB8ue170006Ev, symObjAddr: 0x75F8, symBinAddr: 0x1000099E4, symSize: 0x28 }
  - { offsetInCU: 0x20C7A, offset: 0x20C7A, size: 0x8, addend: 0x0, symName: __ZNSt3__16vectorIbNS_9allocatorIbEEE5__capB8ue170006Ev, symObjAddr: 0x7620, symBinAddr: 0x100009A0C, symSize: 0x28 }
  - { offsetInCU: 0x20CA0, offset: 0x20CA0, size: 0x8, addend: 0x0, symName: __ZNSt3__19allocatorImE10deallocateB8ue170006EPmm, symObjAddr: 0x7648, symBinAddr: 0x100009A34, symSize: 0x40 }
  - { offsetInCU: 0x20CE2, offset: 0x20CE2, size: 0x8, addend: 0x0, symName: __ZNSt3__117__compressed_pairImNS_9allocatorImEEE6secondB8ue170006Ev, symObjAddr: 0x7688, symBinAddr: 0x100009A74, symSize: 0x24 }
  - { offsetInCU: 0x20D08, offset: 0x20D08, size: 0x8, addend: 0x0, symName: __ZNSt3__122__compressed_pair_elemINS_9allocatorImEELi1ELb1EE5__getB8ue170006Ev, symObjAddr: 0x76AC, symBinAddr: 0x100009A98, symSize: 0x14 }
  - { offsetInCU: 0x20D2E, offset: 0x20D2E, size: 0x8, addend: 0x0, symName: __ZNSt3__117__compressed_pairImNS_9allocatorImEEE5firstB8ue170006Ev, symObjAddr: 0x76C0, symBinAddr: 0x100009AAC, symSize: 0x24 }
  - { offsetInCU: 0x20D54, offset: 0x20D54, size: 0x8, addend: 0x0, symName: __ZNSt3__122__compressed_pair_elemImLi0ELb0EE5__getB8ue170006Ev, symObjAddr: 0x76E4, symBinAddr: 0x100009AD0, symSize: 0x14 }
  - { offsetInCU: 0x20D7A, offset: 0x20D7A, size: 0x8, addend: 0x0, symName: __ZNKSt3__110__function12__value_funcIFviEEclB8ue170006EOi, symObjAddr: 0x76F8, symBinAddr: 0x100009AE4, symSize: 0x58 }
  - { offsetInCU: 0x20DB5, offset: 0x20DB5, size: 0x8, addend: 0x0, symName: __ZNSt3__117bad_function_callC1Ev, symObjAddr: 0x7788, symBinAddr: 0x100009B74, symSize: 0x2C }
  - { offsetInCU: 0x20DE1, offset: 0x20DE1, size: 0x8, addend: 0x0, symName: __ZNSt3__117bad_function_callD1Ev, symObjAddr: 0x77B4, symBinAddr: 0x100009BA0, symSize: 0x2C }
  - { offsetInCU: 0x20E0B, offset: 0x20E0B, size: 0x8, addend: 0x0, symName: __ZNSt3__117bad_function_callC2Ev, symObjAddr: 0x77E0, symBinAddr: 0x100009BCC, symSize: 0x44 }
  - { offsetInCU: 0x20E37, offset: 0x20E37, size: 0x8, addend: 0x0, symName: __ZNSt9exceptionC2B8ue170006Ev, symObjAddr: 0x7824, symBinAddr: 0x100009C10, symSize: 0x24 }
  - { offsetInCU: 0x20E61, offset: 0x20E61, size: 0x8, addend: 0x0, symName: __ZNSt3__117bad_function_callD0Ev, symObjAddr: 0x7848, symBinAddr: 0x100009C34, symSize: 0x30 }
  - { offsetInCU: 0x20E8B, offset: 0x20E8B, size: 0x8, addend: 0x0, symName: __ZNSt3__117bad_function_callD2Ev, symObjAddr: 0x7878, symBinAddr: 0x100009C64, symSize: 0x2C }
  - { offsetInCU: 0x20EB5, offset: 0x20EB5, size: 0x8, addend: 0x0, symName: '__ZNSt3__18functionIFviEEC2IZ12combinationsiiNS0_IFvNS_6vectorIbNS_9allocatorIbEEEEEEEE3$_0vEET_', symObjAddr: 0x78A4, symBinAddr: 0x100009C90, symSize: 0x34 }
  - { offsetInCU: 0x20EFB, offset: 0x20EFB, size: 0x8, addend: 0x0, symName: '__ZNSt3__110__function12__value_funcIFviEEC1B8ue170006IZ12combinationsiiNS_8functionIFvNS_6vectorIbNS_9allocatorIbEEEEEEEE3$_0vEEOT_', symObjAddr: 0x78D8, symBinAddr: 0x100009CC4, symSize: 0x50 }
  - { offsetInCU: 0x20F3E, offset: 0x20F3E, size: 0x8, addend: 0x0, symName: '__ZNSt3__19allocatorIZ12combinationsiiNS_8functionIFvNS_6vectorIbNS0_IbEEEEEEEE3$_0EC1B8ue170006Ev', symObjAddr: 0x7928, symBinAddr: 0x100009D14, symSize: 0x2C }
  - { offsetInCU: 0x20F68, offset: 0x20F68, size: 0x8, addend: 0x0, symName: '__ZNSt3__110__function12__value_funcIFviEEC1B8ue170006IZ12combinationsiiNS_8functionIFvNS_6vectorIbNS_9allocatorIbEEEEEEEE3$_0NS7_ISC_EEEEOT_RKT0_', symObjAddr: 0x7954, symBinAddr: 0x100009D40, symSize: 0x3C }
  - { offsetInCU: 0x20FC2, offset: 0x20FC2, size: 0x8, addend: 0x0, symName: '__ZNSt3__19allocatorIZ12combinationsiiNS_8functionIFvNS_6vectorIbNS0_IbEEEEEEEE3$_0EC2B8ue170006Ev', symObjAddr: 0x7990, symBinAddr: 0x100009D7C, symSize: 0x2C }
  - { offsetInCU: 0x20FEC, offset: 0x20FEC, size: 0x8, addend: 0x0, symName: '__ZNSt3__116__non_trivial_ifILb1ENS_9allocatorIZ12combinationsiiNS_8functionIFvNS_6vectorIbNS1_IbEEEEEEEE3$_0EEEC2B8ue170006Ev', symObjAddr: 0x79BC, symBinAddr: 0x100009DA8, symSize: 0x14 }
  - { offsetInCU: 0x21016, offset: 0x21016, size: 0x8, addend: 0x0, symName: '__ZNSt3__110__function12__value_funcIFviEEC2B8ue170006IZ12combinationsiiNS_8functionIFvNS_6vectorIbNS_9allocatorIbEEEEEEEE3$_0NS7_ISC_EEEEOT_RKT0_', symObjAddr: 0x79D0, symBinAddr: 0x100009DBC, symSize: 0xF4 }
  - { offsetInCU: 0x210CF, offset: 0x210CF, size: 0x8, addend: 0x0, symName: '__ZNSt3__19allocatorINS_10__function6__funcIZ12combinationsiiNS_8functionIFvNS_6vectorIbNS0_IbEEEEEEEE3$_0NS0_IS9_EEFviEEEEC1B8ue170006IS9_EERKNS0_IT_EE', symObjAddr: 0x7ADC, symBinAddr: 0x100009EC8, symSize: 0x34 }
  - { offsetInCU: 0x2110C, offset: 0x2110C, size: 0x8, addend: 0x0, symName: '__ZNSt3__19allocatorINS_10__function6__funcIZ12combinationsiiNS_8functionIFvNS_6vectorIbNS0_IbEEEEEEEE3$_0NS0_IS9_EEFviEEEE8allocateB8ue170006Em', symObjAddr: 0x7B10, symBinAddr: 0x100009EFC, symSize: 0x5C }
  - { offsetInCU: 0x21152, offset: 0x21152, size: 0x8, addend: 0x0, symName: '__ZNSt3__122__allocator_destructorINS_9allocatorINS_10__function6__funcIZ12combinationsiiNS_8functionIFvNS_6vectorIbNS1_IbEEEEEEEE3$_0NS1_ISA_EEFviEEEEEEC1B8ue170006ERSE_m', symObjAddr: 0x7B6C, symBinAddr: 0x100009F58, symSize: 0x3C }
  - { offsetInCU: 0x21239, offset: 0x21239, size: 0x8, addend: 0x0, symName: '__ZNSt3__110unique_ptrINS_10__function6__baseIFviEEENS_22__allocator_destructorINS_9allocatorINS1_6__funcIZ12combinationsiiNS_8functionIFvNS_6vectorIbNS6_IbEEEEEEEE3$_0NS6_ISE_EES3_EEEEEEEC1B8ue170006ILb1EvEEPSG_NS_16__dependent_typeINS_27__unique_ptr_deleter_sfinaeISI_EEXT_EE20__good_rval_ref_typeE', symObjAddr: 0x7BA8, symBinAddr: 0x100009F94, symSize: 0x3C }
  - { offsetInCU: 0x2128A, offset: 0x2128A, size: 0x8, addend: 0x0, symName: '__ZNKSt3__110unique_ptrINS_10__function6__baseIFviEEENS_22__allocator_destructorINS_9allocatorINS1_6__funcIZ12combinationsiiNS_8functionIFvNS_6vectorIbNS6_IbEEEEEEEE3$_0NS6_ISE_EES3_EEEEEEE3getB8ue170006Ev', symObjAddr: 0x7BE4, symBinAddr: 0x100009FD0, symSize: 0x28 }
  - { offsetInCU: 0x212B0, offset: 0x212B0, size: 0x8, addend: 0x0, symName: '__ZNSt3__110__function6__funcIZ12combinationsiiNS_8functionIFvNS_6vectorIbNS_9allocatorIbEEEEEEEE3$_0NS4_IS9_EEFviEEC1B8ue170006EOS9_OSA_', symObjAddr: 0x7C0C, symBinAddr: 0x100009FF8, symSize: 0x3C }
  - { offsetInCU: 0x212F8, offset: 0x212F8, size: 0x8, addend: 0x0, symName: '__ZNSt3__110unique_ptrINS_10__function6__baseIFviEEENS_22__allocator_destructorINS_9allocatorINS1_6__funcIZ12combinationsiiNS_8functionIFvNS_6vectorIbNS6_IbEEEEEEEE3$_0NS6_ISE_EES3_EEEEEEE7releaseB8ue170006Ev', symObjAddr: 0x7C48, symBinAddr: 0x10000A034, symSize: 0x44 }
  - { offsetInCU: 0x2132D, offset: 0x2132D, size: 0x8, addend: 0x0, symName: '__ZNSt3__110unique_ptrINS_10__function6__baseIFviEEENS_22__allocator_destructorINS_9allocatorINS1_6__funcIZ12combinationsiiNS_8functionIFvNS_6vectorIbNS6_IbEEEEEEEE3$_0NS6_ISE_EES3_EEEEEEED1B8ue170006Ev', symObjAddr: 0x7C8C, symBinAddr: 0x10000A078, symSize: 0x2C }
  - { offsetInCU: 0x21357, offset: 0x21357, size: 0x8, addend: 0x0, symName: '__ZNSt3__19allocatorINS_10__function6__funcIZ12combinationsiiNS_8functionIFvNS_6vectorIbNS0_IbEEEEEEEE3$_0NS0_IS9_EEFviEEEEC2B8ue170006IS9_EERKNS0_IT_EE', symObjAddr: 0x7CB8, symBinAddr: 0x10000A0A4, symSize: 0x30 }
  - { offsetInCU: 0x21394, offset: 0x21394, size: 0x8, addend: 0x0, symName: '__ZNSt3__116__non_trivial_ifILb1ENS_9allocatorINS_10__function6__funcIZ12combinationsiiNS_8functionIFvNS_6vectorIbNS1_IbEEEEEEEE3$_0NS1_ISA_EEFviEEEEEEC2B8ue170006Ev', symObjAddr: 0x7CE8, symBinAddr: 0x10000A0D4, symSize: 0x14 }
  - { offsetInCU: 0x213C9, offset: 0x213C9, size: 0x8, addend: 0x0, symName: '__ZNSt3__116allocator_traitsINS_9allocatorINS_10__function6__funcIZ12combinationsiiNS_8functionIFvNS_6vectorIbNS1_IbEEEEEEEE3$_0NS1_ISA_EEFviEEEEEE8max_sizeB8ue170006ISE_vEEmRKSE_', symObjAddr: 0x7CFC, symBinAddr: 0x10000A0E8, symSize: 0x24 }
  - { offsetInCU: 0x213F7, offset: 0x213F7, size: 0x8, addend: 0x0, symName: '__ZNKSt3__19allocatorINS_10__function6__funcIZ12combinationsiiNS_8functionIFvNS_6vectorIbNS0_IbEEEEEEEE3$_0NS0_IS9_EEFviEEEE8max_sizeB8ue170006Ev', symObjAddr: 0x7D20, symBinAddr: 0x10000A10C, symSize: 0x18 }
  - { offsetInCU: 0x2141D, offset: 0x2141D, size: 0x8, addend: 0x0, symName: '__ZNSt3__122__allocator_destructorINS_9allocatorINS_10__function6__funcIZ12combinationsiiNS_8functionIFvNS_6vectorIbNS1_IbEEEEEEEE3$_0NS1_ISA_EEFviEEEEEEC2B8ue170006ERSE_m', symObjAddr: 0x7D38, symBinAddr: 0x10000A124, symSize: 0x2C }
  - { offsetInCU: 0x21463, offset: 0x21463, size: 0x8, addend: 0x0, symName: '__ZNSt3__110unique_ptrINS_10__function6__baseIFviEEENS_22__allocator_destructorINS_9allocatorINS1_6__funcIZ12combinationsiiNS_8functionIFvNS_6vectorIbNS6_IbEEEEEEEE3$_0NS6_ISE_EES3_EEEEEEEC2B8ue170006ILb1EvEEPSG_NS_16__dependent_typeINS_27__unique_ptr_deleter_sfinaeISI_EEXT_EE20__good_rval_ref_typeE', symObjAddr: 0x7D64, symBinAddr: 0x10000A150, symSize: 0x48 }
  - { offsetInCU: 0x214B4, offset: 0x214B4, size: 0x8, addend: 0x0, symName: '__ZNSt3__117__compressed_pairIPNS_10__function6__funcIZ12combinationsiiNS_8functionIFvNS_6vectorIbNS_9allocatorIbEEEEEEEE3$_0NS5_ISA_EEFviEEENS_22__allocator_destructorINS5_ISD_EEEEEC1B8ue170006IRSE_SH_EEOT_OT0_', symObjAddr: 0x7DAC, symBinAddr: 0x10000A198, symSize: 0x3C }
  - { offsetInCU: 0x2150C, offset: 0x2150C, size: 0x8, addend: 0x0, symName: '__ZNSt3__117__compressed_pairIPNS_10__function6__funcIZ12combinationsiiNS_8functionIFvNS_6vectorIbNS_9allocatorIbEEEEEEEE3$_0NS5_ISA_EEFviEEENS_22__allocator_destructorINS5_ISD_EEEEEC2B8ue170006IRSE_SH_EEOT_OT0_', symObjAddr: 0x7DE8, symBinAddr: 0x10000A1D4, symSize: 0x48 }
  - { offsetInCU: 0x21564, offset: 0x21564, size: 0x8, addend: 0x0, symName: '__ZNSt3__122__compressed_pair_elemIPNS_10__function6__funcIZ12combinationsiiNS_8functionIFvNS_6vectorIbNS_9allocatorIbEEEEEEEE3$_0NS5_ISA_EEFviEEELi0ELb0EEC2B8ue170006IRSE_vEEOT_', symObjAddr: 0x7E30, symBinAddr: 0x10000A21C, symSize: 0x24 }
  - { offsetInCU: 0x215A6, offset: 0x215A6, size: 0x8, addend: 0x0, symName: '__ZNSt3__122__compressed_pair_elemINS_22__allocator_destructorINS_9allocatorINS_10__function6__funcIZ12combinationsiiNS_8functionIFvNS_6vectorIbNS2_IbEEEEEEEE3$_0NS2_ISB_EEFviEEEEEEELi1ELb0EEC2B8ue170006ISG_vEEOT_', symObjAddr: 0x7E54, symBinAddr: 0x10000A240, symSize: 0x24 }
  - { offsetInCU: 0x215E8, offset: 0x215E8, size: 0x8, addend: 0x0, symName: '__ZNKSt3__117__compressed_pairIPNS_10__function6__funcIZ12combinationsiiNS_8functionIFvNS_6vectorIbNS_9allocatorIbEEEEEEEE3$_0NS5_ISA_EEFviEEENS_22__allocator_destructorINS5_ISD_EEEEE5firstB8ue170006Ev', symObjAddr: 0x7E78, symBinAddr: 0x10000A264, symSize: 0x24 }
  - { offsetInCU: 0x2160E, offset: 0x2160E, size: 0x8, addend: 0x0, symName: '__ZNKSt3__122__compressed_pair_elemIPNS_10__function6__funcIZ12combinationsiiNS_8functionIFvNS_6vectorIbNS_9allocatorIbEEEEEEEE3$_0NS5_ISA_EEFviEEELi0ELb0EE5__getB8ue170006Ev', symObjAddr: 0x7E9C, symBinAddr: 0x10000A288, symSize: 0x14 }
  - { offsetInCU: 0x21634, offset: 0x21634, size: 0x8, addend: 0x0, symName: '__ZNSt3__110__function6__funcIZ12combinationsiiNS_8functionIFvNS_6vectorIbNS_9allocatorIbEEEEEEEE3$_0NS4_IS9_EEFviEEC2B8ue170006EOS9_OSA_', symObjAddr: 0x7EB0, symBinAddr: 0x10000A29C, symSize: 0x88 }
  - { offsetInCU: 0x2167C, offset: 0x2167C, size: 0x8, addend: 0x0, symName: __ZNSt3__110__function6__baseIFviEEC2B8ue170006Ev, symObjAddr: 0x7F38, symBinAddr: 0x10000A324, symSize: 0x24 }
  - { offsetInCU: 0x216A6, offset: 0x216A6, size: 0x8, addend: 0x0, symName: '__ZNSt3__110__function12__alloc_funcIZ12combinationsiiNS_8functionIFvNS_6vectorIbNS_9allocatorIbEEEEEEEE3$_0NS4_IS9_EEFviEEC1B8ue170006EOS9_OSA_', symObjAddr: 0x7F5C, symBinAddr: 0x10000A348, symSize: 0x3C }
  - { offsetInCU: 0x216EC, offset: 0x216EC, size: 0x8, addend: 0x0, symName: __ZNSt3__110__function6__baseIFviEED2Ev, symObjAddr: 0x7F98, symBinAddr: 0x10000A384, symSize: 0x14 }
  - { offsetInCU: 0x21716, offset: 0x21716, size: 0x8, addend: 0x0, symName: '__ZNSt3__110__function6__funcIZ12combinationsiiNS_8functionIFvNS_6vectorIbNS_9allocatorIbEEEEEEEE3$_0NS4_IS9_EEFviEED1Ev', symObjAddr: 0x7FAC, symBinAddr: 0x10000A398, symSize: 0x2C }
  - { offsetInCU: 0x21743, offset: 0x21743, size: 0x8, addend: 0x0, symName: '__ZNSt3__110__function6__funcIZ12combinationsiiNS_8functionIFvNS_6vectorIbNS_9allocatorIbEEEEEEEE3$_0NS4_IS9_EEFviEED0Ev', symObjAddr: 0x7FD8, symBinAddr: 0x10000A3C4, symSize: 0x30 }
  - { offsetInCU: 0x21770, offset: 0x21770, size: 0x8, addend: 0x0, symName: '__ZNKSt3__110__function6__funcIZ12combinationsiiNS_8functionIFvNS_6vectorIbNS_9allocatorIbEEEEEEEE3$_0NS4_IS9_EEFviEE7__cloneEv', symObjAddr: 0x8008, symBinAddr: 0x10000A3F4, symSize: 0xFC }
  - { offsetInCU: 0x217C2, offset: 0x217C2, size: 0x8, addend: 0x0, symName: '__ZNKSt3__110__function6__funcIZ12combinationsiiNS_8functionIFvNS_6vectorIbNS_9allocatorIbEEEEEEEE3$_0NS4_IS9_EEFviEE7__cloneEPNS0_6__baseISB_EE', symObjAddr: 0x8104, symBinAddr: 0x10000A4F0, symSize: 0x58 }
  - { offsetInCU: 0x217F9, offset: 0x217F9, size: 0x8, addend: 0x0, symName: '__ZNSt3__110__function6__funcIZ12combinationsiiNS_8functionIFvNS_6vectorIbNS_9allocatorIbEEEEEEEE3$_0NS4_IS9_EEFviEE7destroyEv', symObjAddr: 0x815C, symBinAddr: 0x10000A548, symSize: 0x28 }
  - { offsetInCU: 0x21821, offset: 0x21821, size: 0x8, addend: 0x0, symName: '__ZNSt3__110__function6__funcIZ12combinationsiiNS_8functionIFvNS_6vectorIbNS_9allocatorIbEEEEEEEE3$_0NS4_IS9_EEFviEE18destroy_deallocateEv', symObjAddr: 0x8184, symBinAddr: 0x10000A570, symSize: 0x58 }
  - { offsetInCU: 0x21864, offset: 0x21864, size: 0x8, addend: 0x0, symName: '__ZNSt3__110__function6__funcIZ12combinationsiiNS_8functionIFvNS_6vectorIbNS_9allocatorIbEEEEEEEE3$_0NS4_IS9_EEFviEEclEOi', symObjAddr: 0x81DC, symBinAddr: 0x10000A5C8, symSize: 0x30 }
  - { offsetInCU: 0x2189B, offset: 0x2189B, size: 0x8, addend: 0x0, symName: '__ZNKSt3__110__function6__funcIZ12combinationsiiNS_8functionIFvNS_6vectorIbNS_9allocatorIbEEEEEEEE3$_0NS4_IS9_EEFviEE6targetERKSt9type_info', symObjAddr: 0x820C, symBinAddr: 0x10000A5F8, symSize: 0x60 }
  - { offsetInCU: 0x218D2, offset: 0x218D2, size: 0x8, addend: 0x0, symName: '__ZNKSt3__110__function6__funcIZ12combinationsiiNS_8functionIFvNS_6vectorIbNS_9allocatorIbEEEEEEEE3$_0NS4_IS9_EEFviEE11target_typeEv', symObjAddr: 0x826C, symBinAddr: 0x10000A658, symSize: 0x18 }
  - { offsetInCU: 0x218FA, offset: 0x218FA, size: 0x8, addend: 0x0, symName: __ZNSt3__110__function6__baseIFviEED1Ev, symObjAddr: 0x8284, symBinAddr: 0x10000A670, symSize: 0x14 }
  - { offsetInCU: 0x21924, offset: 0x21924, size: 0x8, addend: 0x0, symName: __ZNSt3__110__function6__baseIFviEED0Ev, symObjAddr: 0x8298, symBinAddr: 0x10000A684, symSize: 0xC }
  - { offsetInCU: 0x2194E, offset: 0x2194E, size: 0x8, addend: 0x0, symName: '__ZNSt3__110__function12__alloc_funcIZ12combinationsiiNS_8functionIFvNS_6vectorIbNS_9allocatorIbEEEEEEEE3$_0NS4_IS9_EEFviEEC2B8ue170006EOS9_OSA_', symObjAddr: 0x82A4, symBinAddr: 0x10000A690, symSize: 0x5C }
  - { offsetInCU: 0x21994, offset: 0x21994, size: 0x8, addend: 0x0, symName: '__ZNSt3__117__compressed_pairIZ12combinationsiiNS_8functionIFvNS_6vectorIbNS_9allocatorIbEEEEEEEE3$_0NS3_IS8_EEEC1B8ue170006IJOS8_EJOS9_EEENS_21piecewise_construct_tENS_5tupleIJDpT_EEENSF_IJDpT0_EEE', symObjAddr: 0x8358, symBinAddr: 0x10000A744, symSize: 0x3C }
  - { offsetInCU: 0x219FE, offset: 0x219FE, size: 0x8, addend: 0x0, symName: '__ZNSt3__15tupleIJOZ12combinationsiiNS_8functionIFvNS_6vectorIbNS_9allocatorIbEEEEEEEE3$_0EEC1B8ue170006IJS8_ELi0EEEDpOT_', symObjAddr: 0x8394, symBinAddr: 0x10000A780, symSize: 0x34 }
  - { offsetInCU: 0x21A48, offset: 0x21A48, size: 0x8, addend: 0x0, symName: '__ZNSt3__15tupleIJOZ12combinationsiiNS_8functionIFvNS_6vectorIbNS_9allocatorIbEEEEEEEE3$_0EEC2B8ue170006IJS8_ELi0EEEDpOT_', symObjAddr: 0x83C8, symBinAddr: 0x10000A7B4, symSize: 0x34 }
  - { offsetInCU: 0x21A92, offset: 0x21A92, size: 0x8, addend: 0x0, symName: '__ZNSt3__112__tuple_implINS_15__tuple_indicesIJLm0EEEEJOZ12combinationsiiNS_8functionIFvNS_6vectorIbNS_9allocatorIbEEEEEEEE3$_0EEC1B8ue170006IJLm0EEJSB_EJEJEJSA_EEENS1_IJXspT_EEEENS_13__tuple_typesIJDpT0_EEENS1_IJXspT1_EEEENSF_IJDpT2_EEEDpOT3_', symObjAddr: 0x83FC, symBinAddr: 0x10000A7E8, symSize: 0x34 }
  - { offsetInCU: 0x21B27, offset: 0x21B27, size: 0x8, addend: 0x0, symName: '__ZNSt3__112__tuple_implINS_15__tuple_indicesIJLm0EEEEJOZ12combinationsiiNS_8functionIFvNS_6vectorIbNS_9allocatorIbEEEEEEEE3$_0EEC2B8ue170006IJLm0EEJSB_EJEJEJSA_EEENS1_IJXspT_EEEENS_13__tuple_typesIJDpT0_EEENS1_IJXspT1_EEEENSF_IJDpT2_EEEDpOT3_', symObjAddr: 0x8430, symBinAddr: 0x10000A81C, symSize: 0x34 }
  - { offsetInCU: 0x21BBC, offset: 0x21BBC, size: 0x8, addend: 0x0, symName: '__ZNSt3__112__tuple_leafILm0EOZ12combinationsiiNS_8functionIFvNS_6vectorIbNS_9allocatorIbEEEEEEEE3$_0Lb0EEC2B8ue170006IS8_vEEOT_', symObjAddr: 0x8464, symBinAddr: 0x10000A850, symSize: 0x20 }
  - { offsetInCU: 0x21BFF, offset: 0x21BFF, size: 0x8, addend: 0x0, symName: '__ZNSt3__15tupleIJONS_9allocatorIZ12combinationsiiNS_8functionIFvNS_6vectorIbNS1_IbEEEEEEEE3$_0EEEEC1B8ue170006IJS9_ELi0EEEDpOT_', symObjAddr: 0x8484, symBinAddr: 0x10000A870, symSize: 0x34 }
  - { offsetInCU: 0x21C49, offset: 0x21C49, size: 0x8, addend: 0x0, symName: '__ZNSt3__15tupleIJONS_9allocatorIZ12combinationsiiNS_8functionIFvNS_6vectorIbNS1_IbEEEEEEEE3$_0EEEEC2B8ue170006IJS9_ELi0EEEDpOT_', symObjAddr: 0x84B8, symBinAddr: 0x10000A8A4, symSize: 0x34 }
  - { offsetInCU: 0x21C93, offset: 0x21C93, size: 0x8, addend: 0x0, symName: '__ZNSt3__112__tuple_implINS_15__tuple_indicesIJLm0EEEEJONS_9allocatorIZ12combinationsiiNS_8functionIFvNS_6vectorIbNS3_IbEEEEEEEE3$_0EEEEC1B8ue170006IJLm0EEJSC_EJEJEJSB_EEENS1_IJXspT_EEEENS_13__tuple_typesIJDpT0_EEENS1_IJXspT1_EEEENSG_IJDpT2_EEEDpOT3_', symObjAddr: 0x84EC, symBinAddr: 0x10000A8D8, symSize: 0x34 }
  - { offsetInCU: 0x21D28, offset: 0x21D28, size: 0x8, addend: 0x0, symName: '__ZNSt3__112__tuple_implINS_15__tuple_indicesIJLm0EEEEJONS_9allocatorIZ12combinationsiiNS_8functionIFvNS_6vectorIbNS3_IbEEEEEEEE3$_0EEEEC2B8ue170006IJLm0EEJSC_EJEJEJSB_EEENS1_IJXspT_EEEENS_13__tuple_typesIJDpT0_EEENS1_IJXspT1_EEEENSG_IJDpT2_EEEDpOT3_', symObjAddr: 0x8520, symBinAddr: 0x10000A90C, symSize: 0x34 }
  - { offsetInCU: 0x21DBD, offset: 0x21DBD, size: 0x8, addend: 0x0, symName: '__ZNSt3__112__tuple_leafILm0EONS_9allocatorIZ12combinationsiiNS_8functionIFvNS_6vectorIbNS1_IbEEEEEEEE3$_0EELb0EEC2B8ue170006IS9_vEEOT_', symObjAddr: 0x8554, symBinAddr: 0x10000A940, symSize: 0x20 }
  - { offsetInCU: 0x21E00, offset: 0x21E00, size: 0x8, addend: 0x0, symName: '__ZNSt3__117__compressed_pairIZ12combinationsiiNS_8functionIFvNS_6vectorIbNS_9allocatorIbEEEEEEEE3$_0NS3_IS8_EEEC2B8ue170006IJOS8_EJOS9_EEENS_21piecewise_construct_tENS_5tupleIJDpT_EEENSF_IJDpT0_EEE', symObjAddr: 0x8574, symBinAddr: 0x10000A960, symSize: 0x54 }
  - { offsetInCU: 0x21E6A, offset: 0x21E6A, size: 0x8, addend: 0x0, symName: '__ZNSt3__122__compressed_pair_elemIZ12combinationsiiNS_8functionIFvNS_6vectorIbNS_9allocatorIbEEEEEEEE3$_0Li0ELb0EEC2B8ue170006IJOS8_EJLm0EEEENS_21piecewise_construct_tENS_5tupleIJDpT_EEENS_15__tuple_indicesIJXspT0_EEEE', symObjAddr: 0x85C8, symBinAddr: 0x10000A9B4, symSize: 0x4C }
  - { offsetInCU: 0x21ECD, offset: 0x21ECD, size: 0x8, addend: 0x0, symName: '__ZNSt3__122__compressed_pair_elemINS_9allocatorIZ12combinationsiiNS_8functionIFvNS_6vectorIbNS1_IbEEEEEEEE3$_0EELi1ELb1EEC2B8ue170006IJOS9_EJLm0EEEENS_21piecewise_construct_tENS_5tupleIJDpT_EEENS_15__tuple_indicesIJXspT0_EEEE', symObjAddr: 0x8614, symBinAddr: 0x10000AA00, symSize: 0x38 }
  - { offsetInCU: 0x21F30, offset: 0x21F30, size: 0x8, addend: 0x0, symName: '__ZNSt3__112__tuple_leafILm0EOZ12combinationsiiNS_8functionIFvNS_6vectorIbNS_9allocatorIbEEEEEEEE3$_0Lb0EE3getB8ue170006Ev', symObjAddr: 0x8670, symBinAddr: 0x10000AA5C, symSize: 0x18 }
  - { offsetInCU: 0x21F56, offset: 0x21F56, size: 0x8, addend: 0x0, symName: '__ZNSt3__112__tuple_leafILm0EONS_9allocatorIZ12combinationsiiNS_8functionIFvNS_6vectorIbNS1_IbEEEEEEEE3$_0EELb0EE3getB8ue170006Ev', symObjAddr: 0x86AC, symBinAddr: 0x10000AA98, symSize: 0x18 }
  - { offsetInCU: 0x21F7C, offset: 0x21F7C, size: 0x8, addend: 0x0, symName: '__ZNSt3__110__function6__funcIZ12combinationsiiNS_8functionIFvNS_6vectorIbNS_9allocatorIbEEEEEEEE3$_0NS4_IS9_EEFviEED2Ev', symObjAddr: 0x86C4, symBinAddr: 0x10000AAB0, symSize: 0x2C }
  - { offsetInCU: 0x21FA9, offset: 0x21FA9, size: 0x8, addend: 0x0, symName: '__ZNKSt3__110__function12__alloc_funcIZ12combinationsiiNS_8functionIFvNS_6vectorIbNS_9allocatorIbEEEEEEEE3$_0NS4_IS9_EEFviEE15__get_allocatorB8ue170006Ev', symObjAddr: 0x86F0, symBinAddr: 0x10000AADC, symSize: 0x24 }
  - { offsetInCU: 0x21FFD, offset: 0x21FFD, size: 0x8, addend: 0x0, symName: '__ZNSt3__110unique_ptrINS_10__function6__funcIZ12combinationsiiNS_8functionIFvNS_6vectorIbNS_9allocatorIbEEEEEEEE3$_0NS5_ISA_EEFviEEENS_22__allocator_destructorINS5_ISD_EEEEEC1B8ue170006ILb1EvEEPSD_NS_16__dependent_typeINS_27__unique_ptr_deleter_sfinaeISG_EEXT_EE20__good_rval_ref_typeE', symObjAddr: 0x8714, symBinAddr: 0x10000AB00, symSize: 0x3C }
  - { offsetInCU: 0x2204E, offset: 0x2204E, size: 0x8, addend: 0x0, symName: '__ZNKSt3__110unique_ptrINS_10__function6__funcIZ12combinationsiiNS_8functionIFvNS_6vectorIbNS_9allocatorIbEEEEEEEE3$_0NS5_ISA_EEFviEEENS_22__allocator_destructorINS5_ISD_EEEEE3getB8ue170006Ev', symObjAddr: 0x8750, symBinAddr: 0x10000AB3C, symSize: 0x28 }
  - { offsetInCU: 0x22074, offset: 0x22074, size: 0x8, addend: 0x0, symName: '__ZNKSt3__110__function12__alloc_funcIZ12combinationsiiNS_8functionIFvNS_6vectorIbNS_9allocatorIbEEEEEEEE3$_0NS4_IS9_EEFviEE8__targetB8ue170006Ev', symObjAddr: 0x8778, symBinAddr: 0x10000AB64, symSize: 0x24 }
  - { offsetInCU: 0x220A0, offset: 0x220A0, size: 0x8, addend: 0x0, symName: '__ZNSt3__19allocatorIZ12combinationsiiNS_8functionIFvNS_6vectorIbNS0_IbEEEEEEEE3$_0EC1B8ue170006INS_10__function6__funcIS7_S8_FviEEEEERKNS0_IT_EE', symObjAddr: 0x879C, symBinAddr: 0x10000AB88, symSize: 0x34 }
  - { offsetInCU: 0x220DD, offset: 0x220DD, size: 0x8, addend: 0x0, symName: '__ZNSt3__110__function6__funcIZ12combinationsiiNS_8functionIFvNS_6vectorIbNS_9allocatorIbEEEEEEEE3$_0NS4_IS9_EEFviEEC1B8ue170006ERKS9_OSA_', symObjAddr: 0x87D0, symBinAddr: 0x10000ABBC, symSize: 0x3C }
  - { offsetInCU: 0x22125, offset: 0x22125, size: 0x8, addend: 0x0, symName: '__ZNSt3__110unique_ptrINS_10__function6__funcIZ12combinationsiiNS_8functionIFvNS_6vectorIbNS_9allocatorIbEEEEEEEE3$_0NS5_ISA_EEFviEEENS_22__allocator_destructorINS5_ISD_EEEEE7releaseB8ue170006Ev', symObjAddr: 0x880C, symBinAddr: 0x10000ABF8, symSize: 0x44 }
  - { offsetInCU: 0x2215A, offset: 0x2215A, size: 0x8, addend: 0x0, symName: '__ZNSt3__110unique_ptrINS_10__function6__funcIZ12combinationsiiNS_8functionIFvNS_6vectorIbNS_9allocatorIbEEEEEEEE3$_0NS5_ISA_EEFviEEENS_22__allocator_destructorINS5_ISD_EEEEED1B8ue170006Ev', symObjAddr: 0x8850, symBinAddr: 0x10000AC3C, symSize: 0x2C }
  - { offsetInCU: 0x22184, offset: 0x22184, size: 0x8, addend: 0x0, symName: '__ZNKSt3__117__compressed_pairIZ12combinationsiiNS_8functionIFvNS_6vectorIbNS_9allocatorIbEEEEEEEE3$_0NS3_IS8_EEE6secondB8ue170006Ev', symObjAddr: 0x887C, symBinAddr: 0x10000AC68, symSize: 0x24 }
  - { offsetInCU: 0x221AA, offset: 0x221AA, size: 0x8, addend: 0x0, symName: '__ZNKSt3__122__compressed_pair_elemINS_9allocatorIZ12combinationsiiNS_8functionIFvNS_6vectorIbNS1_IbEEEEEEEE3$_0EELi1ELb1EE5__getB8ue170006Ev', symObjAddr: 0x88A0, symBinAddr: 0x10000AC8C, symSize: 0x14 }
  - { offsetInCU: 0x221D0, offset: 0x221D0, size: 0x8, addend: 0x0, symName: '__ZNSt3__110unique_ptrINS_10__function6__funcIZ12combinationsiiNS_8functionIFvNS_6vectorIbNS_9allocatorIbEEEEEEEE3$_0NS5_ISA_EEFviEEENS_22__allocator_destructorINS5_ISD_EEEEEC2B8ue170006ILb1EvEEPSD_NS_16__dependent_typeINS_27__unique_ptr_deleter_sfinaeISG_EEXT_EE20__good_rval_ref_typeE', symObjAddr: 0x88B4, symBinAddr: 0x10000ACA0, symSize: 0x48 }
  - { offsetInCU: 0x22221, offset: 0x22221, size: 0x8, addend: 0x0, symName: '__ZNKSt3__117__compressed_pairIZ12combinationsiiNS_8functionIFvNS_6vectorIbNS_9allocatorIbEEEEEEEE3$_0NS3_IS8_EEE5firstB8ue170006Ev', symObjAddr: 0x88FC, symBinAddr: 0x10000ACE8, symSize: 0x24 }
  - { offsetInCU: 0x22247, offset: 0x22247, size: 0x8, addend: 0x0, symName: '__ZNKSt3__122__compressed_pair_elemIZ12combinationsiiNS_8functionIFvNS_6vectorIbNS_9allocatorIbEEEEEEEE3$_0Li0ELb0EE5__getB8ue170006Ev', symObjAddr: 0x8920, symBinAddr: 0x10000AD0C, symSize: 0x14 }
  - { offsetInCU: 0x2226D, offset: 0x2226D, size: 0x8, addend: 0x0, symName: '__ZNSt3__19allocatorIZ12combinationsiiNS_8functionIFvNS_6vectorIbNS0_IbEEEEEEEE3$_0EC2B8ue170006INS_10__function6__funcIS7_S8_FviEEEEERKNS0_IT_EE', symObjAddr: 0x8934, symBinAddr: 0x10000AD20, symSize: 0x30 }
  - { offsetInCU: 0x222AA, offset: 0x222AA, size: 0x8, addend: 0x0, symName: '__ZNSt3__110__function6__funcIZ12combinationsiiNS_8functionIFvNS_6vectorIbNS_9allocatorIbEEEEEEEE3$_0NS4_IS9_EEFviEEC2B8ue170006ERKS9_OSA_', symObjAddr: 0x8964, symBinAddr: 0x10000AD50, symSize: 0x88 }
  - { offsetInCU: 0x222F2, offset: 0x222F2, size: 0x8, addend: 0x0, symName: '__ZNSt3__110__function12__alloc_funcIZ12combinationsiiNS_8functionIFvNS_6vectorIbNS_9allocatorIbEEEEEEEE3$_0NS4_IS9_EEFviEEC1B8ue170006ERKS9_OSA_', symObjAddr: 0x89EC, symBinAddr: 0x10000ADD8, symSize: 0x3C }
  - { offsetInCU: 0x22338, offset: 0x22338, size: 0x8, addend: 0x0, symName: '__ZNSt3__110__function12__alloc_funcIZ12combinationsiiNS_8functionIFvNS_6vectorIbNS_9allocatorIbEEEEEEEE3$_0NS4_IS9_EEFviEEC2B8ue170006ERKS9_OSA_', symObjAddr: 0x8A28, symBinAddr: 0x10000AE14, symSize: 0x5C }
  - { offsetInCU: 0x2237E, offset: 0x2237E, size: 0x8, addend: 0x0, symName: '__ZNSt3__117__compressed_pairIZ12combinationsiiNS_8functionIFvNS_6vectorIbNS_9allocatorIbEEEEEEEE3$_0NS3_IS8_EEEC1B8ue170006IJRKS8_EJOS9_EEENS_21piecewise_construct_tENS_5tupleIJDpT_EEENSG_IJDpT0_EEE', symObjAddr: 0x8AB0, symBinAddr: 0x10000AE9C, symSize: 0x3C }
  - { offsetInCU: 0x223E8, offset: 0x223E8, size: 0x8, addend: 0x0, symName: '__ZNSt3__15tupleIJRKZ12combinationsiiNS_8functionIFvNS_6vectorIbNS_9allocatorIbEEEEEEEE3$_0EEC1B8ue170006INS_4_AndELi0EEESA_', symObjAddr: 0x8AEC, symBinAddr: 0x10000AED8, symSize: 0x34 }
  - { offsetInCU: 0x22430, offset: 0x22430, size: 0x8, addend: 0x0, symName: '__ZNSt3__15tupleIJRKZ12combinationsiiNS_8functionIFvNS_6vectorIbNS_9allocatorIbEEEEEEEE3$_0EEC2B8ue170006INS_4_AndELi0EEESA_', symObjAddr: 0x8B20, symBinAddr: 0x10000AF0C, symSize: 0x34 }
  - { offsetInCU: 0x22478, offset: 0x22478, size: 0x8, addend: 0x0, symName: '__ZNSt3__112__tuple_implINS_15__tuple_indicesIJLm0EEEEJRKZ12combinationsiiNS_8functionIFvNS_6vectorIbNS_9allocatorIbEEEEEEEE3$_0EEC1B8ue170006IJLm0EEJSC_EJEJEJSC_EEENS1_IJXspT_EEEENS_13__tuple_typesIJDpT0_EEENS1_IJXspT1_EEEENSG_IJDpT2_EEEDpOT3_', symObjAddr: 0x8B54, symBinAddr: 0x10000AF40, symSize: 0x34 }
  - { offsetInCU: 0x2250D, offset: 0x2250D, size: 0x8, addend: 0x0, symName: '__ZNSt3__112__tuple_implINS_15__tuple_indicesIJLm0EEEEJRKZ12combinationsiiNS_8functionIFvNS_6vectorIbNS_9allocatorIbEEEEEEEE3$_0EEC2B8ue170006IJLm0EEJSC_EJEJEJSC_EEENS1_IJXspT_EEEENS_13__tuple_typesIJDpT0_EEENS1_IJXspT1_EEEENSG_IJDpT2_EEEDpOT3_', symObjAddr: 0x8B88, symBinAddr: 0x10000AF74, symSize: 0x34 }
  - { offsetInCU: 0x225A2, offset: 0x225A2, size: 0x8, addend: 0x0, symName: '__ZNSt3__112__tuple_leafILm0ERKZ12combinationsiiNS_8functionIFvNS_6vectorIbNS_9allocatorIbEEEEEEEE3$_0Lb0EEC2B8ue170006ISA_vEEOT_', symObjAddr: 0x8BBC, symBinAddr: 0x10000AFA8, symSize: 0x20 }
  - { offsetInCU: 0x225E5, offset: 0x225E5, size: 0x8, addend: 0x0, symName: '__ZNSt3__117__compressed_pairIZ12combinationsiiNS_8functionIFvNS_6vectorIbNS_9allocatorIbEEEEEEEE3$_0NS3_IS8_EEEC2B8ue170006IJRKS8_EJOS9_EEENS_21piecewise_construct_tENS_5tupleIJDpT_EEENSG_IJDpT0_EEE', symObjAddr: 0x8BDC, symBinAddr: 0x10000AFC8, symSize: 0x54 }
  - { offsetInCU: 0x2264F, offset: 0x2264F, size: 0x8, addend: 0x0, symName: '__ZNSt3__122__compressed_pair_elemIZ12combinationsiiNS_8functionIFvNS_6vectorIbNS_9allocatorIbEEEEEEEE3$_0Li0ELb0EEC2B8ue170006IJRKS8_EJLm0EEEENS_21piecewise_construct_tENS_5tupleIJDpT_EEENS_15__tuple_indicesIJXspT0_EEEE', symObjAddr: 0x8C30, symBinAddr: 0x10000B01C, symSize: 0x4C }
  - { offsetInCU: 0x226B2, offset: 0x226B2, size: 0x8, addend: 0x0, symName: '__ZNSt3__112__tuple_leafILm0ERKZ12combinationsiiNS_8functionIFvNS_6vectorIbNS_9allocatorIbEEEEEEEE3$_0Lb0EE3getB8ue170006Ev', symObjAddr: 0x8CA0, symBinAddr: 0x10000B08C, symSize: 0x18 }
  - { offsetInCU: 0x226D8, offset: 0x226D8, size: 0x8, addend: 0x0, symName: '__ZNSt3__117__compressed_pairIPNS_10__function6__funcIZ12combinationsiiNS_8functionIFvNS_6vectorIbNS_9allocatorIbEEEEEEEE3$_0NS5_ISA_EEFviEEENS_22__allocator_destructorINS5_ISD_EEEEE5firstB8ue170006Ev', symObjAddr: 0x8CB8, symBinAddr: 0x10000B0A4, symSize: 0x24 }
  - { offsetInCU: 0x226FE, offset: 0x226FE, size: 0x8, addend: 0x0, symName: '__ZNSt3__122__compressed_pair_elemIPNS_10__function6__funcIZ12combinationsiiNS_8functionIFvNS_6vectorIbNS_9allocatorIbEEEEEEEE3$_0NS5_ISA_EEFviEEELi0ELb0EE5__getB8ue170006Ev', symObjAddr: 0x8CDC, symBinAddr: 0x10000B0C8, symSize: 0x14 }
  - { offsetInCU: 0x22724, offset: 0x22724, size: 0x8, addend: 0x0, symName: '__ZNSt3__110unique_ptrINS_10__function6__funcIZ12combinationsiiNS_8functionIFvNS_6vectorIbNS_9allocatorIbEEEEEEEE3$_0NS5_ISA_EEFviEEENS_22__allocator_destructorINS5_ISD_EEEEED2B8ue170006Ev', symObjAddr: 0x8CF0, symBinAddr: 0x10000B0DC, symSize: 0x30 }
  - { offsetInCU: 0x2274E, offset: 0x2274E, size: 0x8, addend: 0x0, symName: '__ZNSt3__110unique_ptrINS_10__function6__funcIZ12combinationsiiNS_8functionIFvNS_6vectorIbNS_9allocatorIbEEEEEEEE3$_0NS5_ISA_EEFviEEENS_22__allocator_destructorINS5_ISD_EEEEE5resetB8ue170006EPSD_', symObjAddr: 0x8D20, symBinAddr: 0x10000B10C, symSize: 0x78 }
  - { offsetInCU: 0x22792, offset: 0x22792, size: 0x8, addend: 0x0, symName: '__ZNSt3__117__compressed_pairIPNS_10__function6__funcIZ12combinationsiiNS_8functionIFvNS_6vectorIbNS_9allocatorIbEEEEEEEE3$_0NS5_ISA_EEFviEEENS_22__allocator_destructorINS5_ISD_EEEEE6secondB8ue170006Ev', symObjAddr: 0x8D98, symBinAddr: 0x10000B184, symSize: 0x28 }
  - { offsetInCU: 0x227B8, offset: 0x227B8, size: 0x8, addend: 0x0, symName: '__ZNSt3__122__allocator_destructorINS_9allocatorINS_10__function6__funcIZ12combinationsiiNS_8functionIFvNS_6vectorIbNS1_IbEEEEEEEE3$_0NS1_ISA_EEFviEEEEEEclB8ue170006EPSD_', symObjAddr: 0x8DC0, symBinAddr: 0x10000B1AC, symSize: 0x34 }
  - { offsetInCU: 0x227EC, offset: 0x227EC, size: 0x8, addend: 0x0, symName: '__ZNSt3__122__compressed_pair_elemINS_22__allocator_destructorINS_9allocatorINS_10__function6__funcIZ12combinationsiiNS_8functionIFvNS_6vectorIbNS2_IbEEEEEEEE3$_0NS2_ISB_EEFviEEEEEEELi1ELb0EE5__getB8ue170006Ev', symObjAddr: 0x8DF4, symBinAddr: 0x10000B1E0, symSize: 0x14 }
  - { offsetInCU: 0x22812, offset: 0x22812, size: 0x8, addend: 0x0, symName: '__ZNSt3__116allocator_traitsINS_9allocatorINS_10__function6__funcIZ12combinationsiiNS_8functionIFvNS_6vectorIbNS1_IbEEEEEEEE3$_0NS1_ISA_EEFviEEEEEE10deallocateB8ue170006ERSE_PSD_m', symObjAddr: 0x8E08, symBinAddr: 0x10000B1F4, symSize: 0x34 }
  - { offsetInCU: 0x22854, offset: 0x22854, size: 0x8, addend: 0x0, symName: '__ZNSt3__19allocatorINS_10__function6__funcIZ12combinationsiiNS_8functionIFvNS_6vectorIbNS0_IbEEEEEEEE3$_0NS0_IS9_EEFviEEEE10deallocateB8ue170006EPSC_m', symObjAddr: 0x8E3C, symBinAddr: 0x10000B228, symSize: 0x44 }
  - { offsetInCU: 0x22896, offset: 0x22896, size: 0x8, addend: 0x0, symName: '__ZNSt3__110__function6__funcIZ12combinationsiiNS_8functionIFvNS_6vectorIbNS_9allocatorIbEEEEEEEE3$_0NS4_IS9_EEFviEEC1B8ue170006ERKS9_RKSA_', symObjAddr: 0x8E80, symBinAddr: 0x10000B26C, symSize: 0x3C }
  - { offsetInCU: 0x228DE, offset: 0x228DE, size: 0x8, addend: 0x0, symName: '__ZNSt3__110__function6__funcIZ12combinationsiiNS_8functionIFvNS_6vectorIbNS_9allocatorIbEEEEEEEE3$_0NS4_IS9_EEFviEEC2B8ue170006ERKS9_RKSA_', symObjAddr: 0x8EBC, symBinAddr: 0x10000B2A8, symSize: 0x88 }
  - { offsetInCU: 0x22926, offset: 0x22926, size: 0x8, addend: 0x0, symName: '__ZNSt3__110__function12__alloc_funcIZ12combinationsiiNS_8functionIFvNS_6vectorIbNS_9allocatorIbEEEEEEEE3$_0NS4_IS9_EEFviEEC1B8ue170006ERKS9_RKSA_', symObjAddr: 0x8F44, symBinAddr: 0x10000B330, symSize: 0x3C }
  - { offsetInCU: 0x2296C, offset: 0x2296C, size: 0x8, addend: 0x0, symName: '__ZNSt3__110__function12__alloc_funcIZ12combinationsiiNS_8functionIFvNS_6vectorIbNS_9allocatorIbEEEEEEEE3$_0NS4_IS9_EEFviEEC2B8ue170006ERKS9_RKSA_', symObjAddr: 0x8F80, symBinAddr: 0x10000B36C, symSize: 0x5C }
  - { offsetInCU: 0x229B2, offset: 0x229B2, size: 0x8, addend: 0x0, symName: '__ZNSt3__117__compressed_pairIZ12combinationsiiNS_8functionIFvNS_6vectorIbNS_9allocatorIbEEEEEEEE3$_0NS3_IS8_EEEC1B8ue170006IJRKS8_EJRKS9_EEENS_21piecewise_construct_tENS_5tupleIJDpT_EEENSH_IJDpT0_EEE', symObjAddr: 0x9008, symBinAddr: 0x10000B3F4, symSize: 0x3C }
  - { offsetInCU: 0x22A1C, offset: 0x22A1C, size: 0x8, addend: 0x0, symName: '__ZNSt3__15tupleIJRKNS_9allocatorIZ12combinationsiiNS_8functionIFvNS_6vectorIbNS1_IbEEEEEEEE3$_0EEEEC1B8ue170006INS_4_AndELi0EEESB_', symObjAddr: 0x9044, symBinAddr: 0x10000B430, symSize: 0x34 }
  - { offsetInCU: 0x22A64, offset: 0x22A64, size: 0x8, addend: 0x0, symName: '__ZNSt3__15tupleIJRKNS_9allocatorIZ12combinationsiiNS_8functionIFvNS_6vectorIbNS1_IbEEEEEEEE3$_0EEEEC2B8ue170006INS_4_AndELi0EEESB_', symObjAddr: 0x9078, symBinAddr: 0x10000B464, symSize: 0x34 }
  - { offsetInCU: 0x22AAC, offset: 0x22AAC, size: 0x8, addend: 0x0, symName: '__ZNSt3__112__tuple_implINS_15__tuple_indicesIJLm0EEEEJRKNS_9allocatorIZ12combinationsiiNS_8functionIFvNS_6vectorIbNS3_IbEEEEEEEE3$_0EEEEC1B8ue170006IJLm0EEJSD_EJEJEJSD_EEENS1_IJXspT_EEEENS_13__tuple_typesIJDpT0_EEENS1_IJXspT1_EEEENSH_IJDpT2_EEEDpOT3_', symObjAddr: 0x90AC, symBinAddr: 0x10000B498, symSize: 0x34 }
  - { offsetInCU: 0x22B41, offset: 0x22B41, size: 0x8, addend: 0x0, symName: '__ZNSt3__112__tuple_implINS_15__tuple_indicesIJLm0EEEEJRKNS_9allocatorIZ12combinationsiiNS_8functionIFvNS_6vectorIbNS3_IbEEEEEEEE3$_0EEEEC2B8ue170006IJLm0EEJSD_EJEJEJSD_EEENS1_IJXspT_EEEENS_13__tuple_typesIJDpT0_EEENS1_IJXspT1_EEEENSH_IJDpT2_EEEDpOT3_', symObjAddr: 0x90E0, symBinAddr: 0x10000B4CC, symSize: 0x34 }
  - { offsetInCU: 0x22BD6, offset: 0x22BD6, size: 0x8, addend: 0x0, symName: '__ZNSt3__112__tuple_leafILm0ERKNS_9allocatorIZ12combinationsiiNS_8functionIFvNS_6vectorIbNS1_IbEEEEEEEE3$_0EELb0EEC2B8ue170006ISB_vEEOT_', symObjAddr: 0x9114, symBinAddr: 0x10000B500, symSize: 0x20 }
  - { offsetInCU: 0x22C19, offset: 0x22C19, size: 0x8, addend: 0x0, symName: '__ZNSt3__117__compressed_pairIZ12combinationsiiNS_8functionIFvNS_6vectorIbNS_9allocatorIbEEEEEEEE3$_0NS3_IS8_EEEC2B8ue170006IJRKS8_EJRKS9_EEENS_21piecewise_construct_tENS_5tupleIJDpT_EEENSH_IJDpT0_EEE', symObjAddr: 0x9134, symBinAddr: 0x10000B520, symSize: 0x54 }
  - { offsetInCU: 0x22C83, offset: 0x22C83, size: 0x8, addend: 0x0, symName: '__ZNSt3__122__compressed_pair_elemINS_9allocatorIZ12combinationsiiNS_8functionIFvNS_6vectorIbNS1_IbEEEEEEEE3$_0EELi1ELb1EEC2B8ue170006IJRKS9_EJLm0EEEENS_21piecewise_construct_tENS_5tupleIJDpT_EEENS_15__tuple_indicesIJXspT0_EEEE', symObjAddr: 0x9188, symBinAddr: 0x10000B574, symSize: 0x38 }
  - { offsetInCU: 0x22CE6, offset: 0x22CE6, size: 0x8, addend: 0x0, symName: '__ZNSt3__112__tuple_leafILm0ERKNS_9allocatorIZ12combinationsiiNS_8functionIFvNS_6vectorIbNS1_IbEEEEEEEE3$_0EELb0EE3getB8ue170006Ev', symObjAddr: 0x91E4, symBinAddr: 0x10000B5D0, symSize: 0x18 }
  - { offsetInCU: 0x22D0C, offset: 0x22D0C, size: 0x8, addend: 0x0, symName: '__ZNSt3__110__function12__alloc_funcIZ12combinationsiiNS_8functionIFvNS_6vectorIbNS_9allocatorIbEEEEEEEE3$_0NS4_IS9_EEFviEE7destroyB8ue170006Ev', symObjAddr: 0x91FC, symBinAddr: 0x10000B5E8, symSize: 0x10 }
  - { offsetInCU: 0x22D32, offset: 0x22D32, size: 0x8, addend: 0x0, symName: '__ZNSt3__110__function12__alloc_funcIZ12combinationsiiNS_8functionIFvNS_6vectorIbNS_9allocatorIbEEEEEEEE3$_0NS4_IS9_EEFviEEclB8ue170006EOi', symObjAddr: 0x920C, symBinAddr: 0x10000B5F8, symSize: 0x30 }
  - { offsetInCU: 0x22D66, offset: 0x22D66, size: 0x8, addend: 0x0, symName: '__ZNSt3__128__invoke_void_return_wrapperIvLb1EE6__callB8ue170006IJRZ12combinationsiiNS_8functionIFvNS_6vectorIbNS_9allocatorIbEEEEEEEE3$_0iEEEvDpOT_', symObjAddr: 0x923C, symBinAddr: 0x10000B628, symSize: 0x2C }
  - { offsetInCU: 0x22DA9, offset: 0x22DA9, size: 0x8, addend: 0x0, symName: '__ZNSt3__117__compressed_pairIZ12combinationsiiNS_8functionIFvNS_6vectorIbNS_9allocatorIbEEEEEEEE3$_0NS3_IS8_EEE5firstB8ue170006Ev', symObjAddr: 0x9268, symBinAddr: 0x10000B654, symSize: 0x24 }
  - { offsetInCU: 0x22DD5, offset: 0x22DD5, size: 0x8, addend: 0x0, symName: '__ZZ12combinationsiiNSt3__18functionIFvNS_6vectorIbNS_9allocatorIbEEEEEEEENK3$_0clEi', symObjAddr: 0x92BC, symBinAddr: 0x10000B6A8, symSize: 0x164 }
  - { offsetInCU: 0x22E0D, offset: 0x22E0D, size: 0x8, addend: 0x0, symName: __ZNKSt3__16vectorIbNS_9allocatorIbEEE4sizeB8ue170006Ev, symObjAddr: 0x9420, symBinAddr: 0x10000B80C, symSize: 0x18 }
  - { offsetInCU: 0x22E33, offset: 0x22E33, size: 0x8, addend: 0x0, symName: __ZNKSt3__18functionIFvNS_6vectorIbNS_9allocatorIbEEEEEEclES4_, symObjAddr: 0x9438, symBinAddr: 0x10000B824, symSize: 0x2C }
  - { offsetInCU: 0x22E6B, offset: 0x22E6B, size: 0x8, addend: 0x0, symName: __ZNSt3__16vectorIbNS_9allocatorIbEEEC1ERKS3_, symObjAddr: 0x9464, symBinAddr: 0x10000B850, symSize: 0x34 }
  - { offsetInCU: 0x22EA6, offset: 0x22EA6, size: 0x8, addend: 0x0, symName: __ZNSt3__16vectorIbNS_9allocatorIbEEE9push_backERKb, symObjAddr: 0x9498, symBinAddr: 0x10000B884, symSize: 0xA4 }
  - { offsetInCU: 0x22EDD, offset: 0x22EDD, size: 0x8, addend: 0x0, symName: __ZNSt3__16vectorIbNS_9allocatorIbEEE8pop_backB8ue170006Ev, symObjAddr: 0x953C, symBinAddr: 0x10000B928, symSize: 0x20 }
  - { offsetInCU: 0x22F03, offset: 0x22F03, size: 0x8, addend: 0x0, symName: __ZNKSt3__110__function12__value_funcIFvNS_6vectorIbNS_9allocatorIbEEEEEEclB8ue170006EOS5_, symObjAddr: 0x955C, symBinAddr: 0x10000B948, symSize: 0x58 }
  - { offsetInCU: 0x22F38, offset: 0x22F38, size: 0x8, addend: 0x0, symName: __ZNSt3__16vectorIbNS_9allocatorIbEEEC2ERKS3_, symObjAddr: 0x95B4, symBinAddr: 0x10000B9A0, symSize: 0xDC }
  - { offsetInCU: 0x22F7E, offset: 0x22F7E, size: 0x8, addend: 0x0, symName: __ZNSt3__116allocator_traitsINS_9allocatorImEEE37select_on_container_copy_constructionB8ue170006IS2_vvEES2_RKS2_, symObjAddr: 0x9690, symBinAddr: 0x10000BA7C, symSize: 0x10 }
  - { offsetInCU: 0x22FAD, offset: 0x22FAD, size: 0x8, addend: 0x0, symName: __ZNKSt3__16vectorIbNS_9allocatorIbEEE7__allocB8ue170006Ev, symObjAddr: 0x96A0, symBinAddr: 0x10000BA8C, symSize: 0x28 }
  - { offsetInCU: 0x22FD9, offset: 0x22FD9, size: 0x8, addend: 0x0, symName: __ZNSt3__117__compressed_pairImNS_9allocatorImEEEC1B8ue170006IiS2_EEOT_OT0_, symObjAddr: 0x96C8, symBinAddr: 0x10000BAB4, symSize: 0x3C }
  - { offsetInCU: 0x23031, offset: 0x23031, size: 0x8, addend: 0x0, symName: __ZNSt3__16vectorIbNS_9allocatorIbEEE11__vallocateB8ue170006Em, symObjAddr: 0x9704, symBinAddr: 0x10000BAF0, symSize: 0xA0 }
  - { offsetInCU: 0x23075, offset: 0x23075, size: 0x8, addend: 0x0, symName: __ZNSt3__16vectorIbNS_9allocatorIbEEE18__construct_at_endINS_14__bit_iteratorIS3_Lb1ELm0EEES6_EEvT_T0_m, symObjAddr: 0x97A4, symBinAddr: 0x10000BB90, symSize: 0x124 }
  - { offsetInCU: 0x230EB, offset: 0x230EB, size: 0x8, addend: 0x0, symName: __ZNKSt3__16vectorIbNS_9allocatorIbEEE5beginB8ue170006Ev, symObjAddr: 0x98C8, symBinAddr: 0x10000BCB4, symSize: 0x38 }
  - { offsetInCU: 0x23111, offset: 0x23111, size: 0x8, addend: 0x0, symName: __ZNKSt3__16vectorIbNS_9allocatorIbEEE3endB8ue170006Ev, symObjAddr: 0x9900, symBinAddr: 0x10000BCEC, symSize: 0x38 }
  - { offsetInCU: 0x23137, offset: 0x23137, size: 0x8, addend: 0x0, symName: __ZNKSt3__117__compressed_pairImNS_9allocatorImEEE6secondB8ue170006Ev, symObjAddr: 0x9938, symBinAddr: 0x10000BD24, symSize: 0x24 }
  - { offsetInCU: 0x2315D, offset: 0x2315D, size: 0x8, addend: 0x0, symName: __ZNKSt3__122__compressed_pair_elemINS_9allocatorImEELi1ELb1EE5__getB8ue170006Ev, symObjAddr: 0x995C, symBinAddr: 0x10000BD48, symSize: 0x14 }
  - { offsetInCU: 0x23183, offset: 0x23183, size: 0x8, addend: 0x0, symName: __ZNSt3__117__compressed_pairImNS_9allocatorImEEEC2B8ue170006IiS2_EEOT_OT0_, symObjAddr: 0x9970, symBinAddr: 0x10000BD5C, symSize: 0x44 }
  - { offsetInCU: 0x231DB, offset: 0x231DB, size: 0x8, addend: 0x0, symName: __ZNSt3__122__compressed_pair_elemINS_9allocatorImEELi1ELb1EEC2B8ue170006IS2_vEEOT_, symObjAddr: 0x99B4, symBinAddr: 0x10000BDA0, symSize: 0x18 }
  - { offsetInCU: 0x2321D, offset: 0x2321D, size: 0x8, addend: 0x0, symName: __ZNKSt3__16vectorIbNS_9allocatorIbEEE8max_sizeEv, symObjAddr: 0x99CC, symBinAddr: 0x10000BDB8, symSize: 0x7C }
  - { offsetInCU: 0x23263, offset: 0x23263, size: 0x8, addend: 0x0, symName: __ZNKSt3__16vectorIbNS_9allocatorIbEEE20__throw_length_errorB8ue170006Ev, symObjAddr: 0x9A48, symBinAddr: 0x10000BE34, symSize: 0x1C }
  - { offsetInCU: 0x23289, offset: 0x23289, size: 0x8, addend: 0x0, symName: __ZNSt3__16vectorIbNS_9allocatorIbEEE26__external_cap_to_internalB8ue170006Em, symObjAddr: 0x9AA4, symBinAddr: 0x10000BE90, symSize: 0x24 }
  - { offsetInCU: 0x232AD, offset: 0x232AD, size: 0x8, addend: 0x0, symName: __ZNSt3__116allocator_traitsINS_9allocatorImEEE8max_sizeB8ue170006IS2_vEEmRKS2_, symObjAddr: 0x9AC8, symBinAddr: 0x10000BEB4, symSize: 0x24 }
  - { offsetInCU: 0x232DB, offset: 0x232DB, size: 0x8, addend: 0x0, symName: __ZNSt3__114numeric_limitsImE3maxB8ue170006Ev, symObjAddr: 0x9AEC, symBinAddr: 0x10000BED8, symSize: 0x14 }
  - { offsetInCU: 0x232EF, offset: 0x232EF, size: 0x8, addend: 0x0, symName: __ZNSt3__16vectorIbNS_9allocatorIbEEE26__internal_cap_to_externalB8ue170006Em, symObjAddr: 0x9B00, symBinAddr: 0x10000BEEC, symSize: 0x18 }
  - { offsetInCU: 0x23313, offset: 0x23313, size: 0x8, addend: 0x0, symName: __ZNKSt3__19allocatorImE8max_sizeB8ue170006Ev, symObjAddr: 0x9B18, symBinAddr: 0x10000BF04, symSize: 0x14 }
  - { offsetInCU: 0x23339, offset: 0x23339, size: 0x8, addend: 0x0, symName: __ZNSt3__123__libcpp_numeric_limitsImLb1EE3maxB8ue170006Ev, symObjAddr: 0x9B2C, symBinAddr: 0x10000BF18, symSize: 0x8 }
  - { offsetInCU: 0x2334D, offset: 0x2334D, size: 0x8, addend: 0x0, symName: __ZNSt3__19allocatorImE8allocateB8ue170006Em, symObjAddr: 0x9B34, symBinAddr: 0x10000BF20, symSize: 0x58 }
  - { offsetInCU: 0x23381, offset: 0x23381, size: 0x8, addend: 0x0, symName: __ZNSt3__16vectorIbNS_9allocatorIbEEE11__make_iterB8ue170006Em, symObjAddr: 0x9C08, symBinAddr: 0x10000BFF4, symSize: 0x64 }
  - { offsetInCU: 0x233B6, offset: 0x233B6, size: 0x8, addend: 0x0, symName: __ZNSt3__114__bit_iteratorINS_6vectorIbNS_9allocatorIbEEEELb0ELm0EEC1B8ue170006ERKS5_, symObjAddr: 0x9CE8, symBinAddr: 0x10000C0D4, symSize: 0x34 }
  - { offsetInCU: 0x23417, offset: 0x23417, size: 0x8, addend: 0x0, symName: __ZNKSt3__111__copy_loopINS_17_ClassicAlgPolicyEEclB8ue170006INS_14__bit_iteratorINS_6vectorIbNS_9allocatorIbEEEELb1ELm0EEES9_NS4_IS8_Lb0ELm0EEEEENS_4pairIT_T1_EESC_T0_SD_, symObjAddr: 0x9EF0, symBinAddr: 0x10000C2DC, symSize: 0xC4 }
  - { offsetInCU: 0x234A6, offset: 0x234A6, size: 0x8, addend: 0x0, symName: __ZNSt3__14pairINS_14__bit_iteratorINS_6vectorIbNS_9allocatorIbEEEELb1ELm0EEES6_EC1B8ue170006IS6_S6_LPv0EEEOT_OT0_, symObjAddr: 0xA184, symBinAddr: 0x10000C570, symSize: 0x3C }
  - { offsetInCU: 0x23504, offset: 0x23504, size: 0x8, addend: 0x0, symName: __ZNSt3__14pairINS_14__bit_iteratorINS_6vectorIbNS_9allocatorIbEEEELb1ELm0EEES6_EC2B8ue170006IS6_S6_LPv0EEEOT_OT0_, symObjAddr: 0xA1C0, symBinAddr: 0x10000C5AC, symSize: 0x34 }
  - { offsetInCU: 0x23562, offset: 0x23562, size: 0x8, addend: 0x0, symName: __ZNSt3__118__unwrap_iter_implINS_14__bit_iteratorINS_6vectorIbNS_9allocatorIbEEEELb1ELm0EEELb0EE8__unwrapB8ue170006ES6_, symObjAddr: 0xA1F4, symBinAddr: 0x10000C5E0, symSize: 0x24 }
  - { offsetInCU: 0x23585, offset: 0x23585, size: 0x8, addend: 0x0, symName: __ZNKSt3__114__bit_iteratorINS_6vectorIbNS_9allocatorIbEEEELb1ELm0EEdeB8ue170006Ev, symObjAddr: 0xA24C, symBinAddr: 0x10000C638, symSize: 0x44 }
  - { offsetInCU: 0x235AB, offset: 0x235AB, size: 0x8, addend: 0x0, symName: __ZNKSt3__121__bit_const_referenceINS_6vectorIbNS_9allocatorIbEEEEEcvbB8ue170006Ev, symObjAddr: 0xA290, symBinAddr: 0x10000C67C, symSize: 0x2C }
  - { offsetInCU: 0x235D1, offset: 0x235D1, size: 0x8, addend: 0x0, symName: __ZNKSt3__114__bit_iteratorINS_6vectorIbNS_9allocatorIbEEEELb0ELm0EEdeB8ue170006Ev, symObjAddr: 0xA2BC, symBinAddr: 0x10000C6A8, symSize: 0x44 }
  - { offsetInCU: 0x235F7, offset: 0x235F7, size: 0x8, addend: 0x0, symName: __ZNSt3__115__bit_referenceINS_6vectorIbNS_9allocatorIbEEEELb1EEaSB8ue170006Eb, symObjAddr: 0xA300, symBinAddr: 0x10000C6EC, symSize: 0x6C }
  - { offsetInCU: 0x2362B, offset: 0x2362B, size: 0x8, addend: 0x0, symName: __ZNSt3__114__bit_iteratorINS_6vectorIbNS_9allocatorIbEEEELb1ELm0EEppB8ue170006Ev, symObjAddr: 0xA36C, symBinAddr: 0x10000C758, symSize: 0x5C }
  - { offsetInCU: 0x23651, offset: 0x23651, size: 0x8, addend: 0x0, symName: __ZNSt3__114__bit_iteratorINS_6vectorIbNS_9allocatorIbEEEELb0ELm0EEppB8ue170006Ev, symObjAddr: 0xA3C8, symBinAddr: 0x10000C7B4, symSize: 0x5C }
  - { offsetInCU: 0x23677, offset: 0x23677, size: 0x8, addend: 0x0, symName: __ZNSt3__121__bit_const_referenceINS_6vectorIbNS_9allocatorIbEEEEEC1B8ue170006EPKmm, symObjAddr: 0xA488, symBinAddr: 0x10000C874, symSize: 0x3C }
  - { offsetInCU: 0x236BD, offset: 0x236BD, size: 0x8, addend: 0x0, symName: __ZNSt3__121__bit_const_referenceINS_6vectorIbNS_9allocatorIbEEEEEC2B8ue170006EPKmm, symObjAddr: 0xA4C4, symBinAddr: 0x10000C8B0, symSize: 0x2C }
  - { offsetInCU: 0x23703, offset: 0x23703, size: 0x8, addend: 0x0, symName: __ZNSt3__115__bit_referenceINS_6vectorIbNS_9allocatorIbEEEELb1EEC1B8ue170006EPmm, symObjAddr: 0xA4F0, symBinAddr: 0x10000C8DC, symSize: 0x3C }
  - { offsetInCU: 0x23749, offset: 0x23749, size: 0x8, addend: 0x0, symName: __ZNSt3__115__bit_referenceINS_6vectorIbNS_9allocatorIbEEEELb1EEC2B8ue170006EPmm, symObjAddr: 0xA52C, symBinAddr: 0x10000C918, symSize: 0x2C }
  - { offsetInCU: 0x2378F, offset: 0x2378F, size: 0x8, addend: 0x0, symName: __ZNSt3__118__unwrap_iter_implINS_14__bit_iteratorINS_6vectorIbNS_9allocatorIbEEEELb0ELm0EEELb0EE8__unwrapB8ue170006ES6_, symObjAddr: 0xA558, symBinAddr: 0x10000C944, symSize: 0x38 }
  - { offsetInCU: 0x237B9, offset: 0x237B9, size: 0x8, addend: 0x0, symName: __ZNSt3__14pairINS_14__bit_iteratorINS_6vectorIbNS_9allocatorIbEEEELb1ELm0EEENS1_IS5_Lb0ELm0EEEEC1B8ue170006IS6_S7_LPv0EEEOT_OT0_, symObjAddr: 0xA590, symBinAddr: 0x10000C97C, symSize: 0x3C }
  - { offsetInCU: 0x23817, offset: 0x23817, size: 0x8, addend: 0x0, symName: __ZNSt3__14pairINS_14__bit_iteratorINS_6vectorIbNS_9allocatorIbEEEELb1ELm0EEENS1_IS5_Lb0ELm0EEEEC2B8ue170006IS6_S7_LPv0EEEOT_OT0_, symObjAddr: 0xA5CC, symBinAddr: 0x10000C9B8, symSize: 0x48 }
  - { offsetInCU: 0x23875, offset: 0x23875, size: 0x8, addend: 0x0, symName: __ZNSt3__118__unwrap_iter_implINS_14__bit_iteratorINS_6vectorIbNS_9allocatorIbEEEELb1ELm0EEELb0EE8__rewrapB8ue170006ES6_S6_, symObjAddr: 0xA688, symBinAddr: 0x10000CA74, symSize: 0x2C }
  - { offsetInCU: 0x238A2, offset: 0x238A2, size: 0x8, addend: 0x0, symName: __ZNSt3__118__unwrap_iter_implINS_14__bit_iteratorINS_6vectorIbNS_9allocatorIbEEEELb0ELm0EEELb0EE8__rewrapB8ue170006ES6_S6_, symObjAddr: 0xA6B4, symBinAddr: 0x10000CAA0, symSize: 0x3C }
  - { offsetInCU: 0x238D1, offset: 0x238D1, size: 0x8, addend: 0x0, symName: __ZNSt3__114__bit_iteratorINS_6vectorIbNS_9allocatorIbEEEELb0ELm0EEC2B8ue170006ERKS5_, symObjAddr: 0xA6F0, symBinAddr: 0x10000CADC, symSize: 0x30 }
  - { offsetInCU: 0x2390A, offset: 0x2390A, size: 0x8, addend: 0x0, symName: __ZNSt3__114__bit_iteratorINS_6vectorIbNS_9allocatorIbEEEELb0ELm0EEC1B8ue170006EPmj, symObjAddr: 0xA720, symBinAddr: 0x10000CB0C, symSize: 0x3C }
  - { offsetInCU: 0x23952, offset: 0x23952, size: 0x8, addend: 0x0, symName: __ZNSt3__114__bit_iteratorINS_6vectorIbNS_9allocatorIbEEEELb0ELm0EEC2B8ue170006EPmj, symObjAddr: 0xA75C, symBinAddr: 0x10000CB48, symSize: 0x2C }
  - { offsetInCU: 0x2399A, offset: 0x2399A, size: 0x8, addend: 0x0, symName: __ZNKSt3__16vectorIbNS_9allocatorIbEEE11__make_iterB8ue170006Em, symObjAddr: 0xA788, symBinAddr: 0x10000CB74, symSize: 0x5C }
  - { offsetInCU: 0x239CF, offset: 0x239CF, size: 0x8, addend: 0x0, symName: __ZNSt3__114__bit_iteratorINS_6vectorIbNS_9allocatorIbEEEELb1ELm0EEC1B8ue170006EPKmj, symObjAddr: 0xA7E4, symBinAddr: 0x10000CBD0, symSize: 0x3C }
  - { offsetInCU: 0x23A17, offset: 0x23A17, size: 0x8, addend: 0x0, symName: __ZNSt3__114__bit_iteratorINS_6vectorIbNS_9allocatorIbEEEELb1ELm0EEC2B8ue170006EPKmj, symObjAddr: 0xA820, symBinAddr: 0x10000CC0C, symSize: 0x2C }
  - { offsetInCU: 0x23A5F, offset: 0x23A5F, size: 0x8, addend: 0x0, symName: __ZNKSt3__16vectorIbNS_9allocatorIbEEE8capacityB8ue170006Ev, symObjAddr: 0xA84C, symBinAddr: 0x10000CC38, symSize: 0x2C }
  - { offsetInCU: 0x23A85, offset: 0x23A85, size: 0x8, addend: 0x0, symName: __ZNKSt3__16vectorIbNS_9allocatorIbEEE11__recommendB8ue170006Em, symObjAddr: 0xA878, symBinAddr: 0x10000CC64, symSize: 0xCC }
  - { offsetInCU: 0x23ADA, offset: 0x23ADA, size: 0x8, addend: 0x0, symName: __ZNSt3__16vectorIbNS_9allocatorIbEEE4backB8ue170006Ev, symObjAddr: 0xA944, symBinAddr: 0x10000CD30, symSize: 0x3C }
  - { offsetInCU: 0x23B00, offset: 0x23B00, size: 0x8, addend: 0x0, symName: __ZNKSt3__16vectorIbNS_9allocatorIbEEE5__capB8ue170006Ev, symObjAddr: 0xA980, symBinAddr: 0x10000CD6C, symSize: 0x28 }
  - { offsetInCU: 0x23B26, offset: 0x23B26, size: 0x8, addend: 0x0, symName: __ZNKSt3__117__compressed_pairImNS_9allocatorImEEE5firstB8ue170006Ev, symObjAddr: 0xA9A8, symBinAddr: 0x10000CD94, symSize: 0x24 }
  - { offsetInCU: 0x23B4C, offset: 0x23B4C, size: 0x8, addend: 0x0, symName: __ZNKSt3__122__compressed_pair_elemImLi0ELb0EE5__getB8ue170006Ev, symObjAddr: 0xA9CC, symBinAddr: 0x10000CDB8, symSize: 0x14 }
  - { offsetInCU: 0x23B72, offset: 0x23B72, size: 0x8, addend: 0x0, symName: __ZNSt3__16vectorIbNS_9allocatorIbEEE10__align_itB8ue170006Em, symObjAddr: 0xA9E0, symBinAddr: 0x10000CDCC, symSize: 0x1C }
  - { offsetInCU: 0x23B96, offset: 0x23B96, size: 0x8, addend: 0x0, symName: __ZNSt3__16vectorIbNS_9allocatorIbEEE10__make_refB8ue170006Em, symObjAddr: 0xA9FC, symBinAddr: 0x10000CDE8, symSize: 0x60 }
  - { offsetInCU: 0x23BCB, offset: 0x23BCB, size: 0x8, addend: 0x0, symName: '__ZNSt3__122__compressed_pair_elemIZ12combinationsiiNS_8functionIFvNS_6vectorIbNS_9allocatorIbEEEEEEEE3$_0Li0ELb0EE5__getB8ue170006Ev', symObjAddr: 0xAA5C, symBinAddr: 0x10000CE48, symSize: 0x14 }
  - { offsetInCU: 0x23C27, offset: 0x23C27, size: 0x8, addend: 0x0, symName: __ZNKSt9type_infoeqB8ue170006ERKS_, symObjAddr: 0xAA70, symBinAddr: 0x10000CE5C, symSize: 0xDC }
  - { offsetInCU: 0x23CC5, offset: 0x23CC5, size: 0x8, addend: 0x0, symName: __ZNSt27__type_info_implementations30__non_unique_arm_rtti_bit_impl21__is_type_name_uniqueB8ue170006Em, symObjAddr: 0xAB4C, symBinAddr: 0x10000CF38, symSize: 0x20 }
  - { offsetInCU: 0x23CE9, offset: 0x23CE9, size: 0x8, addend: 0x0, symName: '__ZNSt3__110unique_ptrINS_10__function6__baseIFviEEENS_22__allocator_destructorINS_9allocatorINS1_6__funcIZ12combinationsiiNS_8functionIFvNS_6vectorIbNS6_IbEEEEEEEE3$_0NS6_ISE_EES3_EEEEEEED2B8ue170006Ev', symObjAddr: 0xAB6C, symBinAddr: 0x10000CF58, symSize: 0x30 }
  - { offsetInCU: 0x23D13, offset: 0x23D13, size: 0x8, addend: 0x0, symName: '__ZNSt3__110unique_ptrINS_10__function6__baseIFviEEENS_22__allocator_destructorINS_9allocatorINS1_6__funcIZ12combinationsiiNS_8functionIFvNS_6vectorIbNS6_IbEEEEEEEE3$_0NS6_ISE_EES3_EEEEEEE5resetB8ue170006EPSG_', symObjAddr: 0xAB9C, symBinAddr: 0x10000CF88, symSize: 0x78 }
  - { offsetInCU: 0x23D57, offset: 0x23D57, size: 0x8, addend: 0x0, symName: __ZNSt3__18functionIFviEED2Ev, symObjAddr: 0xAC14, symBinAddr: 0x10000D000, symSize: 0x2C }
  - { offsetInCU: 0x23D83, offset: 0x23D83, size: 0x8, addend: 0x0, symName: __ZNSt3__110__function12__value_funcIFviEED1B8ue170006Ev, symObjAddr: 0xAC40, symBinAddr: 0x10000D02C, symSize: 0x2C }
  - { offsetInCU: 0x23DAD, offset: 0x23DAD, size: 0x8, addend: 0x0, symName: __ZNSt3__110__function12__value_funcIFviEED2B8ue170006Ev, symObjAddr: 0xAC6C, symBinAddr: 0x10000D058, symSize: 0x90 }
  - { offsetInCU: 0x23DD7, offset: 0x23DD7, size: 0x8, addend: 0x0, symName: __ZNKSt3__16vectorIbNS_9allocatorIbEEE13get_allocatorB8ue170006Ev, symObjAddr: 0xACFC, symBinAddr: 0x10000D0E8, symSize: 0x30 }
  - { offsetInCU: 0x23DFD, offset: 0x23DFD, size: 0x8, addend: 0x0, symName: __ZNSt3__16vectorIbNS_9allocatorIbEEEC1B8ue170006ERKS2_, symObjAddr: 0xAD2C, symBinAddr: 0x10000D118, symSize: 0x34 }
  - { offsetInCU: 0x23E38, offset: 0x23E38, size: 0x8, addend: 0x0, symName: __ZNSt3__16vectorIbNS_9allocatorIbEEE18__construct_at_endINS_14__bit_iteratorIS3_Lb0ELm0EEES6_EEvT_T0_m, symObjAddr: 0xAD60, symBinAddr: 0x10000D14C, symSize: 0x12C }
  - { offsetInCU: 0x23EB0, offset: 0x23EB0, size: 0x8, addend: 0x0, symName: __ZNSt3__16vectorIbNS_9allocatorIbEEE5beginB8ue170006Ev, symObjAddr: 0xAE8C, symBinAddr: 0x10000D278, symSize: 0x30 }
  - { offsetInCU: 0x23ED6, offset: 0x23ED6, size: 0x8, addend: 0x0, symName: __ZNSt3__16vectorIbNS_9allocatorIbEEE3endB8ue170006Ev, symObjAddr: 0xAEBC, symBinAddr: 0x10000D2A8, symSize: 0x30 }
  - { offsetInCU: 0x23EFC, offset: 0x23EFC, size: 0x8, addend: 0x0, symName: __ZNSt3__16vectorIbNS_9allocatorIbEEE4swapERS3_, symObjAddr: 0xAEEC, symBinAddr: 0x10000D2D8, symSize: 0x84 }
  - { offsetInCU: 0x23F33, offset: 0x23F33, size: 0x8, addend: 0x0, symName: __ZNSt3__19allocatorIbEC1B8ue170006ImEERKNS0_IT_EE, symObjAddr: 0xAF70, symBinAddr: 0x10000D35C, symSize: 0x34 }
  - { offsetInCU: 0x23F70, offset: 0x23F70, size: 0x8, addend: 0x0, symName: __ZNSt3__19allocatorIbEC2B8ue170006ImEERKNS0_IT_EE, symObjAddr: 0xAFA4, symBinAddr: 0x10000D390, symSize: 0x30 }
  - { offsetInCU: 0x23FAD, offset: 0x23FAD, size: 0x8, addend: 0x0, symName: __ZNSt3__116__non_trivial_ifILb1ENS_9allocatorIbEEEC2B8ue170006Ev, symObjAddr: 0xAFD4, symBinAddr: 0x10000D3C0, symSize: 0x14 }
  - { offsetInCU: 0x23FD7, offset: 0x23FD7, size: 0x8, addend: 0x0, symName: __ZNSt3__16vectorIbNS_9allocatorIbEEEC2B8ue170006ERKS2_, symObjAddr: 0xAFE8, symBinAddr: 0x10000D3D4, symSize: 0x6C }
  - { offsetInCU: 0x24018, offset: 0x24018, size: 0x8, addend: 0x0, symName: __ZNSt3__19allocatorImEC1B8ue170006IbEERKNS0_IT_EE, symObjAddr: 0xB054, symBinAddr: 0x10000D440, symSize: 0x34 }
  - { offsetInCU: 0x24055, offset: 0x24055, size: 0x8, addend: 0x0, symName: __ZNSt3__19allocatorImEC2B8ue170006IbEERKNS0_IT_EE, symObjAddr: 0xB088, symBinAddr: 0x10000D474, symSize: 0x30 }
  - { offsetInCU: 0x240AF, offset: 0x240AF, size: 0x8, addend: 0x0, symName: __ZNKSt3__111__copy_loopINS_17_ClassicAlgPolicyEEclB8ue170006INS_14__bit_iteratorINS_6vectorIbNS_9allocatorIbEEEELb0ELm0EEES9_S9_EENS_4pairIT_T1_EESB_T0_SC_, symObjAddr: 0xB3B0, symBinAddr: 0x10000D79C, symSize: 0xB8 }
  - { offsetInCU: 0x2411D, offset: 0x2411D, size: 0x8, addend: 0x0, symName: __ZNSt3__115__bit_referenceINS_6vectorIbNS_9allocatorIbEEEELb1EEaSB8ue170006ERKS5_, symObjAddr: 0xB548, symBinAddr: 0x10000D934, symSize: 0x40 }
  - { offsetInCU: 0x24151, offset: 0x24151, size: 0x8, addend: 0x0, symName: __ZNKSt3__115__bit_referenceINS_6vectorIbNS_9allocatorIbEEEELb1EEcvbB8ue170006Ev, symObjAddr: 0xB5EC, symBinAddr: 0x10000D9D8, symSize: 0x2C }
  - { offsetInCU: 0x24177, offset: 0x24177, size: 0x8, addend: 0x0, symName: __ZNSt3__14pairINS_14__bit_iteratorINS_6vectorIbNS_9allocatorIbEEEELb0ELm0EEES6_EC1B8ue170006IS6_S6_LPv0EEEOT_OT0_, symObjAddr: 0xB618, symBinAddr: 0x10000DA04, symSize: 0x3C }
  - { offsetInCU: 0x241D5, offset: 0x241D5, size: 0x8, addend: 0x0, symName: __ZNSt3__14pairINS_14__bit_iteratorINS_6vectorIbNS_9allocatorIbEEEELb0ELm0EEES6_EC2B8ue170006IS6_S6_LPv0EEEOT_OT0_, symObjAddr: 0xB654, symBinAddr: 0x10000DA40, symSize: 0x48 }
  - { offsetInCU: 0x24233, offset: 0x24233, size: 0x8, addend: 0x0, symName: __ZNKSt3__110__function12__value_funcIFvvEEclB8ue170006Ev, symObjAddr: 0xB728, symBinAddr: 0x10000DB14, symSize: 0x50 }
  - { offsetInCU: 0x24259, offset: 0x24259, size: 0x8, addend: 0x0, symName: '__ZNSt3__18functionIFvvEEC2IZ7subsetsiNS0_IFvNS_6vectorIbNS_9allocatorIbEEEEEEEE3$_1vEET_', symObjAddr: 0xB778, symBinAddr: 0x10000DB64, symSize: 0x34 }
  - { offsetInCU: 0x2429F, offset: 0x2429F, size: 0x8, addend: 0x0, symName: '__ZNSt3__110__function12__value_funcIFvvEEC1B8ue170006IZ7subsetsiNS_8functionIFvNS_6vectorIbNS_9allocatorIbEEEEEEEE3$_1vEEOT_', symObjAddr: 0xB7AC, symBinAddr: 0x10000DB98, symSize: 0x50 }
  - { offsetInCU: 0x242E2, offset: 0x242E2, size: 0x8, addend: 0x0, symName: '__ZNSt3__19allocatorIZ7subsetsiNS_8functionIFvNS_6vectorIbNS0_IbEEEEEEEE3$_1EC1B8ue170006Ev', symObjAddr: 0xB7FC, symBinAddr: 0x10000DBE8, symSize: 0x2C }
  - { offsetInCU: 0x2430C, offset: 0x2430C, size: 0x8, addend: 0x0, symName: '__ZNSt3__110__function12__value_funcIFvvEEC1B8ue170006IZ7subsetsiNS_8functionIFvNS_6vectorIbNS_9allocatorIbEEEEEEEE3$_1NS7_ISC_EEEEOT_RKT0_', symObjAddr: 0xB828, symBinAddr: 0x10000DC14, symSize: 0x3C }
  - { offsetInCU: 0x24366, offset: 0x24366, size: 0x8, addend: 0x0, symName: '__ZNSt3__19allocatorIZ7subsetsiNS_8functionIFvNS_6vectorIbNS0_IbEEEEEEEE3$_1EC2B8ue170006Ev', symObjAddr: 0xB864, symBinAddr: 0x10000DC50, symSize: 0x2C }
  - { offsetInCU: 0x24390, offset: 0x24390, size: 0x8, addend: 0x0, symName: '__ZNSt3__116__non_trivial_ifILb1ENS_9allocatorIZ7subsetsiNS_8functionIFvNS_6vectorIbNS1_IbEEEEEEEE3$_1EEEC2B8ue170006Ev', symObjAddr: 0xB890, symBinAddr: 0x10000DC7C, symSize: 0x14 }
  - { offsetInCU: 0x243BA, offset: 0x243BA, size: 0x8, addend: 0x0, symName: '__ZNSt3__110__function12__value_funcIFvvEEC2B8ue170006IZ7subsetsiNS_8functionIFvNS_6vectorIbNS_9allocatorIbEEEEEEEE3$_1NS7_ISC_EEEEOT_RKT0_', symObjAddr: 0xB8A4, symBinAddr: 0x10000DC90, symSize: 0xF4 }
  - { offsetInCU: 0x24473, offset: 0x24473, size: 0x8, addend: 0x0, symName: '__ZNSt3__19allocatorINS_10__function6__funcIZ7subsetsiNS_8functionIFvNS_6vectorIbNS0_IbEEEEEEEE3$_1NS0_IS9_EEFvvEEEEC1B8ue170006IS9_EERKNS0_IT_EE', symObjAddr: 0xB9B0, symBinAddr: 0x10000DD9C, symSize: 0x34 }
  - { offsetInCU: 0x244B0, offset: 0x244B0, size: 0x8, addend: 0x0, symName: '__ZNSt3__19allocatorINS_10__function6__funcIZ7subsetsiNS_8functionIFvNS_6vectorIbNS0_IbEEEEEEEE3$_1NS0_IS9_EEFvvEEEE8allocateB8ue170006Em', symObjAddr: 0xB9E4, symBinAddr: 0x10000DDD0, symSize: 0x5C }
  - { offsetInCU: 0x244F6, offset: 0x244F6, size: 0x8, addend: 0x0, symName: '__ZNSt3__122__allocator_destructorINS_9allocatorINS_10__function6__funcIZ7subsetsiNS_8functionIFvNS_6vectorIbNS1_IbEEEEEEEE3$_1NS1_ISA_EEFvvEEEEEEC1B8ue170006ERSE_m', symObjAddr: 0xBA40, symBinAddr: 0x10000DE2C, symSize: 0x3C }
  - { offsetInCU: 0x245DD, offset: 0x245DD, size: 0x8, addend: 0x0, symName: '__ZNSt3__110unique_ptrINS_10__function6__baseIFvvEEENS_22__allocator_destructorINS_9allocatorINS1_6__funcIZ7subsetsiNS_8functionIFvNS_6vectorIbNS6_IbEEEEEEEE3$_1NS6_ISE_EES3_EEEEEEEC1B8ue170006ILb1EvEEPSG_NS_16__dependent_typeINS_27__unique_ptr_deleter_sfinaeISI_EEXT_EE20__good_rval_ref_typeE', symObjAddr: 0xBA7C, symBinAddr: 0x10000DE68, symSize: 0x3C }
  - { offsetInCU: 0x2462E, offset: 0x2462E, size: 0x8, addend: 0x0, symName: '__ZNKSt3__110unique_ptrINS_10__function6__baseIFvvEEENS_22__allocator_destructorINS_9allocatorINS1_6__funcIZ7subsetsiNS_8functionIFvNS_6vectorIbNS6_IbEEEEEEEE3$_1NS6_ISE_EES3_EEEEEEE3getB8ue170006Ev', symObjAddr: 0xBAB8, symBinAddr: 0x10000DEA4, symSize: 0x28 }
  - { offsetInCU: 0x24654, offset: 0x24654, size: 0x8, addend: 0x0, symName: '__ZNSt3__110__function6__funcIZ7subsetsiNS_8functionIFvNS_6vectorIbNS_9allocatorIbEEEEEEEE3$_1NS4_IS9_EEFvvEEC1B8ue170006EOS9_OSA_', symObjAddr: 0xBAE0, symBinAddr: 0x10000DECC, symSize: 0x3C }
  - { offsetInCU: 0x2469C, offset: 0x2469C, size: 0x8, addend: 0x0, symName: '__ZNSt3__110unique_ptrINS_10__function6__baseIFvvEEENS_22__allocator_destructorINS_9allocatorINS1_6__funcIZ7subsetsiNS_8functionIFvNS_6vectorIbNS6_IbEEEEEEEE3$_1NS6_ISE_EES3_EEEEEEE7releaseB8ue170006Ev', symObjAddr: 0xBB1C, symBinAddr: 0x10000DF08, symSize: 0x44 }
  - { offsetInCU: 0x246D1, offset: 0x246D1, size: 0x8, addend: 0x0, symName: '__ZNSt3__110unique_ptrINS_10__function6__baseIFvvEEENS_22__allocator_destructorINS_9allocatorINS1_6__funcIZ7subsetsiNS_8functionIFvNS_6vectorIbNS6_IbEEEEEEEE3$_1NS6_ISE_EES3_EEEEEEED1B8ue170006Ev', symObjAddr: 0xBB60, symBinAddr: 0x10000DF4C, symSize: 0x2C }
  - { offsetInCU: 0x246FB, offset: 0x246FB, size: 0x8, addend: 0x0, symName: '__ZNSt3__19allocatorINS_10__function6__funcIZ7subsetsiNS_8functionIFvNS_6vectorIbNS0_IbEEEEEEEE3$_1NS0_IS9_EEFvvEEEEC2B8ue170006IS9_EERKNS0_IT_EE', symObjAddr: 0xBB8C, symBinAddr: 0x10000DF78, symSize: 0x30 }
  - { offsetInCU: 0x24738, offset: 0x24738, size: 0x8, addend: 0x0, symName: '__ZNSt3__116__non_trivial_ifILb1ENS_9allocatorINS_10__function6__funcIZ7subsetsiNS_8functionIFvNS_6vectorIbNS1_IbEEEEEEEE3$_1NS1_ISA_EEFvvEEEEEEC2B8ue170006Ev', symObjAddr: 0xBBBC, symBinAddr: 0x10000DFA8, symSize: 0x14 }
  - { offsetInCU: 0x2476D, offset: 0x2476D, size: 0x8, addend: 0x0, symName: '__ZNSt3__116allocator_traitsINS_9allocatorINS_10__function6__funcIZ7subsetsiNS_8functionIFvNS_6vectorIbNS1_IbEEEEEEEE3$_1NS1_ISA_EEFvvEEEEEE8max_sizeB8ue170006ISE_vEEmRKSE_', symObjAddr: 0xBBD0, symBinAddr: 0x10000DFBC, symSize: 0x24 }
  - { offsetInCU: 0x2479B, offset: 0x2479B, size: 0x8, addend: 0x0, symName: '__ZNKSt3__19allocatorINS_10__function6__funcIZ7subsetsiNS_8functionIFvNS_6vectorIbNS0_IbEEEEEEEE3$_1NS0_IS9_EEFvvEEEE8max_sizeB8ue170006Ev', symObjAddr: 0xBBF4, symBinAddr: 0x10000DFE0, symSize: 0x18 }
  - { offsetInCU: 0x247C1, offset: 0x247C1, size: 0x8, addend: 0x0, symName: '__ZNSt3__122__allocator_destructorINS_9allocatorINS_10__function6__funcIZ7subsetsiNS_8functionIFvNS_6vectorIbNS1_IbEEEEEEEE3$_1NS1_ISA_EEFvvEEEEEEC2B8ue170006ERSE_m', symObjAddr: 0xBC0C, symBinAddr: 0x10000DFF8, symSize: 0x2C }
  - { offsetInCU: 0x24807, offset: 0x24807, size: 0x8, addend: 0x0, symName: '__ZNSt3__110unique_ptrINS_10__function6__baseIFvvEEENS_22__allocator_destructorINS_9allocatorINS1_6__funcIZ7subsetsiNS_8functionIFvNS_6vectorIbNS6_IbEEEEEEEE3$_1NS6_ISE_EES3_EEEEEEEC2B8ue170006ILb1EvEEPSG_NS_16__dependent_typeINS_27__unique_ptr_deleter_sfinaeISI_EEXT_EE20__good_rval_ref_typeE', symObjAddr: 0xBC38, symBinAddr: 0x10000E024, symSize: 0x48 }
  - { offsetInCU: 0x24858, offset: 0x24858, size: 0x8, addend: 0x0, symName: '__ZNSt3__117__compressed_pairIPNS_10__function6__funcIZ7subsetsiNS_8functionIFvNS_6vectorIbNS_9allocatorIbEEEEEEEE3$_1NS5_ISA_EEFvvEEENS_22__allocator_destructorINS5_ISD_EEEEEC1B8ue170006IRSE_SH_EEOT_OT0_', symObjAddr: 0xBC80, symBinAddr: 0x10000E06C, symSize: 0x3C }
  - { offsetInCU: 0x248B0, offset: 0x248B0, size: 0x8, addend: 0x0, symName: '__ZNSt3__117__compressed_pairIPNS_10__function6__funcIZ7subsetsiNS_8functionIFvNS_6vectorIbNS_9allocatorIbEEEEEEEE3$_1NS5_ISA_EEFvvEEENS_22__allocator_destructorINS5_ISD_EEEEEC2B8ue170006IRSE_SH_EEOT_OT0_', symObjAddr: 0xBCBC, symBinAddr: 0x10000E0A8, symSize: 0x48 }
  - { offsetInCU: 0x24908, offset: 0x24908, size: 0x8, addend: 0x0, symName: '__ZNSt3__122__compressed_pair_elemIPNS_10__function6__funcIZ7subsetsiNS_8functionIFvNS_6vectorIbNS_9allocatorIbEEEEEEEE3$_1NS5_ISA_EEFvvEEELi0ELb0EEC2B8ue170006IRSE_vEEOT_', symObjAddr: 0xBD04, symBinAddr: 0x10000E0F0, symSize: 0x24 }
  - { offsetInCU: 0x2494A, offset: 0x2494A, size: 0x8, addend: 0x0, symName: '__ZNSt3__122__compressed_pair_elemINS_22__allocator_destructorINS_9allocatorINS_10__function6__funcIZ7subsetsiNS_8functionIFvNS_6vectorIbNS2_IbEEEEEEEE3$_1NS2_ISB_EEFvvEEEEEEELi1ELb0EEC2B8ue170006ISG_vEEOT_', symObjAddr: 0xBD28, symBinAddr: 0x10000E114, symSize: 0x24 }
  - { offsetInCU: 0x2498C, offset: 0x2498C, size: 0x8, addend: 0x0, symName: '__ZNKSt3__117__compressed_pairIPNS_10__function6__funcIZ7subsetsiNS_8functionIFvNS_6vectorIbNS_9allocatorIbEEEEEEEE3$_1NS5_ISA_EEFvvEEENS_22__allocator_destructorINS5_ISD_EEEEE5firstB8ue170006Ev', symObjAddr: 0xBD4C, symBinAddr: 0x10000E138, symSize: 0x24 }
  - { offsetInCU: 0x249B2, offset: 0x249B2, size: 0x8, addend: 0x0, symName: '__ZNKSt3__122__compressed_pair_elemIPNS_10__function6__funcIZ7subsetsiNS_8functionIFvNS_6vectorIbNS_9allocatorIbEEEEEEEE3$_1NS5_ISA_EEFvvEEELi0ELb0EE5__getB8ue170006Ev', symObjAddr: 0xBD70, symBinAddr: 0x10000E15C, symSize: 0x14 }
  - { offsetInCU: 0x249D8, offset: 0x249D8, size: 0x8, addend: 0x0, symName: '__ZNSt3__110__function6__funcIZ7subsetsiNS_8functionIFvNS_6vectorIbNS_9allocatorIbEEEEEEEE3$_1NS4_IS9_EEFvvEEC2B8ue170006EOS9_OSA_', symObjAddr: 0xBD84, symBinAddr: 0x10000E170, symSize: 0x88 }
  - { offsetInCU: 0x24A20, offset: 0x24A20, size: 0x8, addend: 0x0, symName: __ZNSt3__110__function6__baseIFvvEEC2B8ue170006Ev, symObjAddr: 0xBE0C, symBinAddr: 0x10000E1F8, symSize: 0x24 }
  - { offsetInCU: 0x24A4A, offset: 0x24A4A, size: 0x8, addend: 0x0, symName: '__ZNSt3__110__function12__alloc_funcIZ7subsetsiNS_8functionIFvNS_6vectorIbNS_9allocatorIbEEEEEEEE3$_1NS4_IS9_EEFvvEEC1B8ue170006EOS9_OSA_', symObjAddr: 0xBE30, symBinAddr: 0x10000E21C, symSize: 0x3C }
  - { offsetInCU: 0x24A90, offset: 0x24A90, size: 0x8, addend: 0x0, symName: __ZNSt3__110__function6__baseIFvvEED2Ev, symObjAddr: 0xBE6C, symBinAddr: 0x10000E258, symSize: 0x14 }
  - { offsetInCU: 0x24ABA, offset: 0x24ABA, size: 0x8, addend: 0x0, symName: '__ZNSt3__110__function6__funcIZ7subsetsiNS_8functionIFvNS_6vectorIbNS_9allocatorIbEEEEEEEE3$_1NS4_IS9_EEFvvEED1Ev', symObjAddr: 0xBE80, symBinAddr: 0x10000E26C, symSize: 0x2C }
  - { offsetInCU: 0x24AE7, offset: 0x24AE7, size: 0x8, addend: 0x0, symName: '__ZNSt3__110__function6__funcIZ7subsetsiNS_8functionIFvNS_6vectorIbNS_9allocatorIbEEEEEEEE3$_1NS4_IS9_EEFvvEED0Ev', symObjAddr: 0xBEAC, symBinAddr: 0x10000E298, symSize: 0x30 }
  - { offsetInCU: 0x24B14, offset: 0x24B14, size: 0x8, addend: 0x0, symName: '__ZNKSt3__110__function6__funcIZ7subsetsiNS_8functionIFvNS_6vectorIbNS_9allocatorIbEEEEEEEE3$_1NS4_IS9_EEFvvEE7__cloneEv', symObjAddr: 0xBEDC, symBinAddr: 0x10000E2C8, symSize: 0xFC }
  - { offsetInCU: 0x24B66, offset: 0x24B66, size: 0x8, addend: 0x0, symName: '__ZNKSt3__110__function6__funcIZ7subsetsiNS_8functionIFvNS_6vectorIbNS_9allocatorIbEEEEEEEE3$_1NS4_IS9_EEFvvEE7__cloneEPNS0_6__baseISB_EE', symObjAddr: 0xBFD8, symBinAddr: 0x10000E3C4, symSize: 0x58 }
  - { offsetInCU: 0x24B9D, offset: 0x24B9D, size: 0x8, addend: 0x0, symName: '__ZNSt3__110__function6__funcIZ7subsetsiNS_8functionIFvNS_6vectorIbNS_9allocatorIbEEEEEEEE3$_1NS4_IS9_EEFvvEE7destroyEv', symObjAddr: 0xC030, symBinAddr: 0x10000E41C, symSize: 0x28 }
  - { offsetInCU: 0x24BC5, offset: 0x24BC5, size: 0x8, addend: 0x0, symName: '__ZNSt3__110__function6__funcIZ7subsetsiNS_8functionIFvNS_6vectorIbNS_9allocatorIbEEEEEEEE3$_1NS4_IS9_EEFvvEE18destroy_deallocateEv', symObjAddr: 0xC058, symBinAddr: 0x10000E444, symSize: 0x58 }
  - { offsetInCU: 0x24C08, offset: 0x24C08, size: 0x8, addend: 0x0, symName: '__ZNSt3__110__function6__funcIZ7subsetsiNS_8functionIFvNS_6vectorIbNS_9allocatorIbEEEEEEEE3$_1NS4_IS9_EEFvvEEclEv', symObjAddr: 0xC0B0, symBinAddr: 0x10000E49C, symSize: 0x28 }
  - { offsetInCU: 0x24C30, offset: 0x24C30, size: 0x8, addend: 0x0, symName: '__ZNKSt3__110__function6__funcIZ7subsetsiNS_8functionIFvNS_6vectorIbNS_9allocatorIbEEEEEEEE3$_1NS4_IS9_EEFvvEE6targetERKSt9type_info', symObjAddr: 0xC0D8, symBinAddr: 0x10000E4C4, symSize: 0x60 }
  - { offsetInCU: 0x24C67, offset: 0x24C67, size: 0x8, addend: 0x0, symName: '__ZNKSt3__110__function6__funcIZ7subsetsiNS_8functionIFvNS_6vectorIbNS_9allocatorIbEEEEEEEE3$_1NS4_IS9_EEFvvEE11target_typeEv', symObjAddr: 0xC138, symBinAddr: 0x10000E524, symSize: 0x18 }
  - { offsetInCU: 0x24C8F, offset: 0x24C8F, size: 0x8, addend: 0x0, symName: __ZNSt3__110__function6__baseIFvvEED1Ev, symObjAddr: 0xC150, symBinAddr: 0x10000E53C, symSize: 0x14 }
  - { offsetInCU: 0x24CB9, offset: 0x24CB9, size: 0x8, addend: 0x0, symName: __ZNSt3__110__function6__baseIFvvEED0Ev, symObjAddr: 0xC164, symBinAddr: 0x10000E550, symSize: 0xC }
  - { offsetInCU: 0x24CE3, offset: 0x24CE3, size: 0x8, addend: 0x0, symName: '__ZNSt3__110__function12__alloc_funcIZ7subsetsiNS_8functionIFvNS_6vectorIbNS_9allocatorIbEEEEEEEE3$_1NS4_IS9_EEFvvEEC2B8ue170006EOS9_OSA_', symObjAddr: 0xC170, symBinAddr: 0x10000E55C, symSize: 0x5C }
  - { offsetInCU: 0x24D29, offset: 0x24D29, size: 0x8, addend: 0x0, symName: '__ZNSt3__117__compressed_pairIZ7subsetsiNS_8functionIFvNS_6vectorIbNS_9allocatorIbEEEEEEEE3$_1NS3_IS8_EEEC1B8ue170006IJOS8_EJOS9_EEENS_21piecewise_construct_tENS_5tupleIJDpT_EEENSF_IJDpT0_EEE', symObjAddr: 0xC224, symBinAddr: 0x10000E610, symSize: 0x3C }
  - { offsetInCU: 0x24D93, offset: 0x24D93, size: 0x8, addend: 0x0, symName: '__ZNSt3__15tupleIJOZ7subsetsiNS_8functionIFvNS_6vectorIbNS_9allocatorIbEEEEEEEE3$_1EEC1B8ue170006IJS8_ELi0EEEDpOT_', symObjAddr: 0xC260, symBinAddr: 0x10000E64C, symSize: 0x34 }
  - { offsetInCU: 0x24DDD, offset: 0x24DDD, size: 0x8, addend: 0x0, symName: '__ZNSt3__15tupleIJOZ7subsetsiNS_8functionIFvNS_6vectorIbNS_9allocatorIbEEEEEEEE3$_1EEC2B8ue170006IJS8_ELi0EEEDpOT_', symObjAddr: 0xC294, symBinAddr: 0x10000E680, symSize: 0x34 }
  - { offsetInCU: 0x24E27, offset: 0x24E27, size: 0x8, addend: 0x0, symName: '__ZNSt3__112__tuple_implINS_15__tuple_indicesIJLm0EEEEJOZ7subsetsiNS_8functionIFvNS_6vectorIbNS_9allocatorIbEEEEEEEE3$_1EEC1B8ue170006IJLm0EEJSB_EJEJEJSA_EEENS1_IJXspT_EEEENS_13__tuple_typesIJDpT0_EEENS1_IJXspT1_EEEENSF_IJDpT2_EEEDpOT3_', symObjAddr: 0xC2C8, symBinAddr: 0x10000E6B4, symSize: 0x34 }
  - { offsetInCU: 0x24EBC, offset: 0x24EBC, size: 0x8, addend: 0x0, symName: '__ZNSt3__112__tuple_implINS_15__tuple_indicesIJLm0EEEEJOZ7subsetsiNS_8functionIFvNS_6vectorIbNS_9allocatorIbEEEEEEEE3$_1EEC2B8ue170006IJLm0EEJSB_EJEJEJSA_EEENS1_IJXspT_EEEENS_13__tuple_typesIJDpT0_EEENS1_IJXspT1_EEEENSF_IJDpT2_EEEDpOT3_', symObjAddr: 0xC2FC, symBinAddr: 0x10000E6E8, symSize: 0x34 }
  - { offsetInCU: 0x24F51, offset: 0x24F51, size: 0x8, addend: 0x0, symName: '__ZNSt3__112__tuple_leafILm0EOZ7subsetsiNS_8functionIFvNS_6vectorIbNS_9allocatorIbEEEEEEEE3$_1Lb0EEC2B8ue170006IS8_vEEOT_', symObjAddr: 0xC330, symBinAddr: 0x10000E71C, symSize: 0x20 }
  - { offsetInCU: 0x24F94, offset: 0x24F94, size: 0x8, addend: 0x0, symName: '__ZNSt3__15tupleIJONS_9allocatorIZ7subsetsiNS_8functionIFvNS_6vectorIbNS1_IbEEEEEEEE3$_1EEEEC1B8ue170006IJS9_ELi0EEEDpOT_', symObjAddr: 0xC350, symBinAddr: 0x10000E73C, symSize: 0x34 }
  - { offsetInCU: 0x24FDE, offset: 0x24FDE, size: 0x8, addend: 0x0, symName: '__ZNSt3__15tupleIJONS_9allocatorIZ7subsetsiNS_8functionIFvNS_6vectorIbNS1_IbEEEEEEEE3$_1EEEEC2B8ue170006IJS9_ELi0EEEDpOT_', symObjAddr: 0xC384, symBinAddr: 0x10000E770, symSize: 0x34 }
  - { offsetInCU: 0x25028, offset: 0x25028, size: 0x8, addend: 0x0, symName: '__ZNSt3__112__tuple_implINS_15__tuple_indicesIJLm0EEEEJONS_9allocatorIZ7subsetsiNS_8functionIFvNS_6vectorIbNS3_IbEEEEEEEE3$_1EEEEC1B8ue170006IJLm0EEJSC_EJEJEJSB_EEENS1_IJXspT_EEEENS_13__tuple_typesIJDpT0_EEENS1_IJXspT1_EEEENSG_IJDpT2_EEEDpOT3_', symObjAddr: 0xC3B8, symBinAddr: 0x10000E7A4, symSize: 0x34 }
  - { offsetInCU: 0x250BD, offset: 0x250BD, size: 0x8, addend: 0x0, symName: '__ZNSt3__112__tuple_implINS_15__tuple_indicesIJLm0EEEEJONS_9allocatorIZ7subsetsiNS_8functionIFvNS_6vectorIbNS3_IbEEEEEEEE3$_1EEEEC2B8ue170006IJLm0EEJSC_EJEJEJSB_EEENS1_IJXspT_EEEENS_13__tuple_typesIJDpT0_EEENS1_IJXspT1_EEEENSG_IJDpT2_EEEDpOT3_', symObjAddr: 0xC3EC, symBinAddr: 0x10000E7D8, symSize: 0x34 }
  - { offsetInCU: 0x25152, offset: 0x25152, size: 0x8, addend: 0x0, symName: '__ZNSt3__112__tuple_leafILm0EONS_9allocatorIZ7subsetsiNS_8functionIFvNS_6vectorIbNS1_IbEEEEEEEE3$_1EELb0EEC2B8ue170006IS9_vEEOT_', symObjAddr: 0xC420, symBinAddr: 0x10000E80C, symSize: 0x20 }
  - { offsetInCU: 0x25195, offset: 0x25195, size: 0x8, addend: 0x0, symName: '__ZNSt3__117__compressed_pairIZ7subsetsiNS_8functionIFvNS_6vectorIbNS_9allocatorIbEEEEEEEE3$_1NS3_IS8_EEEC2B8ue170006IJOS8_EJOS9_EEENS_21piecewise_construct_tENS_5tupleIJDpT_EEENSF_IJDpT0_EEE', symObjAddr: 0xC440, symBinAddr: 0x10000E82C, symSize: 0x54 }
  - { offsetInCU: 0x251FF, offset: 0x251FF, size: 0x8, addend: 0x0, symName: '__ZNSt3__122__compressed_pair_elemIZ7subsetsiNS_8functionIFvNS_6vectorIbNS_9allocatorIbEEEEEEEE3$_1Li0ELb0EEC2B8ue170006IJOS8_EJLm0EEEENS_21piecewise_construct_tENS_5tupleIJDpT_EEENS_15__tuple_indicesIJXspT0_EEEE', symObjAddr: 0xC494, symBinAddr: 0x10000E880, symSize: 0x4C }
  - { offsetInCU: 0x25262, offset: 0x25262, size: 0x8, addend: 0x0, symName: '__ZNSt3__122__compressed_pair_elemINS_9allocatorIZ7subsetsiNS_8functionIFvNS_6vectorIbNS1_IbEEEEEEEE3$_1EELi1ELb1EEC2B8ue170006IJOS9_EJLm0EEEENS_21piecewise_construct_tENS_5tupleIJDpT_EEENS_15__tuple_indicesIJXspT0_EEEE', symObjAddr: 0xC4E0, symBinAddr: 0x10000E8CC, symSize: 0x38 }
  - { offsetInCU: 0x252C5, offset: 0x252C5, size: 0x8, addend: 0x0, symName: '__ZNSt3__112__tuple_leafILm0EOZ7subsetsiNS_8functionIFvNS_6vectorIbNS_9allocatorIbEEEEEEEE3$_1Lb0EE3getB8ue170006Ev', symObjAddr: 0xC53C, symBinAddr: 0x10000E928, symSize: 0x18 }
  - { offsetInCU: 0x252EB, offset: 0x252EB, size: 0x8, addend: 0x0, symName: '__ZNSt3__112__tuple_leafILm0EONS_9allocatorIZ7subsetsiNS_8functionIFvNS_6vectorIbNS1_IbEEEEEEEE3$_1EELb0EE3getB8ue170006Ev', symObjAddr: 0xC578, symBinAddr: 0x10000E964, symSize: 0x18 }
  - { offsetInCU: 0x25311, offset: 0x25311, size: 0x8, addend: 0x0, symName: '__ZNSt3__110__function6__funcIZ7subsetsiNS_8functionIFvNS_6vectorIbNS_9allocatorIbEEEEEEEE3$_1NS4_IS9_EEFvvEED2Ev', symObjAddr: 0xC590, symBinAddr: 0x10000E97C, symSize: 0x2C }
  - { offsetInCU: 0x2533E, offset: 0x2533E, size: 0x8, addend: 0x0, symName: '__ZNKSt3__110__function12__alloc_funcIZ7subsetsiNS_8functionIFvNS_6vectorIbNS_9allocatorIbEEEEEEEE3$_1NS4_IS9_EEFvvEE15__get_allocatorB8ue170006Ev', symObjAddr: 0xC5BC, symBinAddr: 0x10000E9A8, symSize: 0x24 }
  - { offsetInCU: 0x25392, offset: 0x25392, size: 0x8, addend: 0x0, symName: '__ZNSt3__110unique_ptrINS_10__function6__funcIZ7subsetsiNS_8functionIFvNS_6vectorIbNS_9allocatorIbEEEEEEEE3$_1NS5_ISA_EEFvvEEENS_22__allocator_destructorINS5_ISD_EEEEEC1B8ue170006ILb1EvEEPSD_NS_16__dependent_typeINS_27__unique_ptr_deleter_sfinaeISG_EEXT_EE20__good_rval_ref_typeE', symObjAddr: 0xC5E0, symBinAddr: 0x10000E9CC, symSize: 0x3C }
  - { offsetInCU: 0x253E3, offset: 0x253E3, size: 0x8, addend: 0x0, symName: '__ZNKSt3__110unique_ptrINS_10__function6__funcIZ7subsetsiNS_8functionIFvNS_6vectorIbNS_9allocatorIbEEEEEEEE3$_1NS5_ISA_EEFvvEEENS_22__allocator_destructorINS5_ISD_EEEEE3getB8ue170006Ev', symObjAddr: 0xC61C, symBinAddr: 0x10000EA08, symSize: 0x28 }
  - { offsetInCU: 0x25409, offset: 0x25409, size: 0x8, addend: 0x0, symName: '__ZNKSt3__110__function12__alloc_funcIZ7subsetsiNS_8functionIFvNS_6vectorIbNS_9allocatorIbEEEEEEEE3$_1NS4_IS9_EEFvvEE8__targetB8ue170006Ev', symObjAddr: 0xC644, symBinAddr: 0x10000EA30, symSize: 0x24 }
  - { offsetInCU: 0x25435, offset: 0x25435, size: 0x8, addend: 0x0, symName: '__ZNSt3__19allocatorIZ7subsetsiNS_8functionIFvNS_6vectorIbNS0_IbEEEEEEEE3$_1EC1B8ue170006INS_10__function6__funcIS7_S8_FvvEEEEERKNS0_IT_EE', symObjAddr: 0xC668, symBinAddr: 0x10000EA54, symSize: 0x34 }
  - { offsetInCU: 0x25472, offset: 0x25472, size: 0x8, addend: 0x0, symName: '__ZNSt3__110__function6__funcIZ7subsetsiNS_8functionIFvNS_6vectorIbNS_9allocatorIbEEEEEEEE3$_1NS4_IS9_EEFvvEEC1B8ue170006ERKS9_OSA_', symObjAddr: 0xC69C, symBinAddr: 0x10000EA88, symSize: 0x3C }
  - { offsetInCU: 0x254BA, offset: 0x254BA, size: 0x8, addend: 0x0, symName: '__ZNSt3__110unique_ptrINS_10__function6__funcIZ7subsetsiNS_8functionIFvNS_6vectorIbNS_9allocatorIbEEEEEEEE3$_1NS5_ISA_EEFvvEEENS_22__allocator_destructorINS5_ISD_EEEEE7releaseB8ue170006Ev', symObjAddr: 0xC6D8, symBinAddr: 0x10000EAC4, symSize: 0x44 }
  - { offsetInCU: 0x254EF, offset: 0x254EF, size: 0x8, addend: 0x0, symName: '__ZNSt3__110unique_ptrINS_10__function6__funcIZ7subsetsiNS_8functionIFvNS_6vectorIbNS_9allocatorIbEEEEEEEE3$_1NS5_ISA_EEFvvEEENS_22__allocator_destructorINS5_ISD_EEEEED1B8ue170006Ev', symObjAddr: 0xC71C, symBinAddr: 0x10000EB08, symSize: 0x2C }
  - { offsetInCU: 0x25519, offset: 0x25519, size: 0x8, addend: 0x0, symName: '__ZNKSt3__117__compressed_pairIZ7subsetsiNS_8functionIFvNS_6vectorIbNS_9allocatorIbEEEEEEEE3$_1NS3_IS8_EEE6secondB8ue170006Ev', symObjAddr: 0xC748, symBinAddr: 0x10000EB34, symSize: 0x24 }
  - { offsetInCU: 0x2553F, offset: 0x2553F, size: 0x8, addend: 0x0, symName: '__ZNKSt3__122__compressed_pair_elemINS_9allocatorIZ7subsetsiNS_8functionIFvNS_6vectorIbNS1_IbEEEEEEEE3$_1EELi1ELb1EE5__getB8ue170006Ev', symObjAddr: 0xC76C, symBinAddr: 0x10000EB58, symSize: 0x14 }
  - { offsetInCU: 0x25565, offset: 0x25565, size: 0x8, addend: 0x0, symName: '__ZNSt3__110unique_ptrINS_10__function6__funcIZ7subsetsiNS_8functionIFvNS_6vectorIbNS_9allocatorIbEEEEEEEE3$_1NS5_ISA_EEFvvEEENS_22__allocator_destructorINS5_ISD_EEEEEC2B8ue170006ILb1EvEEPSD_NS_16__dependent_typeINS_27__unique_ptr_deleter_sfinaeISG_EEXT_EE20__good_rval_ref_typeE', symObjAddr: 0xC780, symBinAddr: 0x10000EB6C, symSize: 0x48 }
  - { offsetInCU: 0x255B6, offset: 0x255B6, size: 0x8, addend: 0x0, symName: '__ZNKSt3__117__compressed_pairIZ7subsetsiNS_8functionIFvNS_6vectorIbNS_9allocatorIbEEEEEEEE3$_1NS3_IS8_EEE5firstB8ue170006Ev', symObjAddr: 0xC7C8, symBinAddr: 0x10000EBB4, symSize: 0x24 }
  - { offsetInCU: 0x255DC, offset: 0x255DC, size: 0x8, addend: 0x0, symName: '__ZNKSt3__122__compressed_pair_elemIZ7subsetsiNS_8functionIFvNS_6vectorIbNS_9allocatorIbEEEEEEEE3$_1Li0ELb0EE5__getB8ue170006Ev', symObjAddr: 0xC7EC, symBinAddr: 0x10000EBD8, symSize: 0x14 }
  - { offsetInCU: 0x25602, offset: 0x25602, size: 0x8, addend: 0x0, symName: '__ZNSt3__19allocatorIZ7subsetsiNS_8functionIFvNS_6vectorIbNS0_IbEEEEEEEE3$_1EC2B8ue170006INS_10__function6__funcIS7_S8_FvvEEEEERKNS0_IT_EE', symObjAddr: 0xC800, symBinAddr: 0x10000EBEC, symSize: 0x30 }
  - { offsetInCU: 0x2563F, offset: 0x2563F, size: 0x8, addend: 0x0, symName: '__ZNSt3__110__function6__funcIZ7subsetsiNS_8functionIFvNS_6vectorIbNS_9allocatorIbEEEEEEEE3$_1NS4_IS9_EEFvvEEC2B8ue170006ERKS9_OSA_', symObjAddr: 0xC830, symBinAddr: 0x10000EC1C, symSize: 0x88 }
  - { offsetInCU: 0x25687, offset: 0x25687, size: 0x8, addend: 0x0, symName: '__ZNSt3__110__function12__alloc_funcIZ7subsetsiNS_8functionIFvNS_6vectorIbNS_9allocatorIbEEEEEEEE3$_1NS4_IS9_EEFvvEEC1B8ue170006ERKS9_OSA_', symObjAddr: 0xC8B8, symBinAddr: 0x10000ECA4, symSize: 0x3C }
  - { offsetInCU: 0x256CD, offset: 0x256CD, size: 0x8, addend: 0x0, symName: '__ZNSt3__110__function12__alloc_funcIZ7subsetsiNS_8functionIFvNS_6vectorIbNS_9allocatorIbEEEEEEEE3$_1NS4_IS9_EEFvvEEC2B8ue170006ERKS9_OSA_', symObjAddr: 0xC8F4, symBinAddr: 0x10000ECE0, symSize: 0x5C }
  - { offsetInCU: 0x25713, offset: 0x25713, size: 0x8, addend: 0x0, symName: '__ZNSt3__117__compressed_pairIZ7subsetsiNS_8functionIFvNS_6vectorIbNS_9allocatorIbEEEEEEEE3$_1NS3_IS8_EEEC1B8ue170006IJRKS8_EJOS9_EEENS_21piecewise_construct_tENS_5tupleIJDpT_EEENSG_IJDpT0_EEE', symObjAddr: 0xC97C, symBinAddr: 0x10000ED68, symSize: 0x3C }
  - { offsetInCU: 0x2577D, offset: 0x2577D, size: 0x8, addend: 0x0, symName: '__ZNSt3__15tupleIJRKZ7subsetsiNS_8functionIFvNS_6vectorIbNS_9allocatorIbEEEEEEEE3$_1EEC1B8ue170006INS_4_AndELi0EEESA_', symObjAddr: 0xC9B8, symBinAddr: 0x10000EDA4, symSize: 0x34 }
  - { offsetInCU: 0x257C5, offset: 0x257C5, size: 0x8, addend: 0x0, symName: '__ZNSt3__15tupleIJRKZ7subsetsiNS_8functionIFvNS_6vectorIbNS_9allocatorIbEEEEEEEE3$_1EEC2B8ue170006INS_4_AndELi0EEESA_', symObjAddr: 0xC9EC, symBinAddr: 0x10000EDD8, symSize: 0x34 }
  - { offsetInCU: 0x2580D, offset: 0x2580D, size: 0x8, addend: 0x0, symName: '__ZNSt3__112__tuple_implINS_15__tuple_indicesIJLm0EEEEJRKZ7subsetsiNS_8functionIFvNS_6vectorIbNS_9allocatorIbEEEEEEEE3$_1EEC1B8ue170006IJLm0EEJSC_EJEJEJSC_EEENS1_IJXspT_EEEENS_13__tuple_typesIJDpT0_EEENS1_IJXspT1_EEEENSG_IJDpT2_EEEDpOT3_', symObjAddr: 0xCA20, symBinAddr: 0x10000EE0C, symSize: 0x34 }
  - { offsetInCU: 0x258A2, offset: 0x258A2, size: 0x8, addend: 0x0, symName: '__ZNSt3__112__tuple_implINS_15__tuple_indicesIJLm0EEEEJRKZ7subsetsiNS_8functionIFvNS_6vectorIbNS_9allocatorIbEEEEEEEE3$_1EEC2B8ue170006IJLm0EEJSC_EJEJEJSC_EEENS1_IJXspT_EEEENS_13__tuple_typesIJDpT0_EEENS1_IJXspT1_EEEENSG_IJDpT2_EEEDpOT3_', symObjAddr: 0xCA54, symBinAddr: 0x10000EE40, symSize: 0x34 }
  - { offsetInCU: 0x25937, offset: 0x25937, size: 0x8, addend: 0x0, symName: '__ZNSt3__112__tuple_leafILm0ERKZ7subsetsiNS_8functionIFvNS_6vectorIbNS_9allocatorIbEEEEEEEE3$_1Lb0EEC2B8ue170006ISA_vEEOT_', symObjAddr: 0xCA88, symBinAddr: 0x10000EE74, symSize: 0x20 }
  - { offsetInCU: 0x2597A, offset: 0x2597A, size: 0x8, addend: 0x0, symName: '__ZNSt3__117__compressed_pairIZ7subsetsiNS_8functionIFvNS_6vectorIbNS_9allocatorIbEEEEEEEE3$_1NS3_IS8_EEEC2B8ue170006IJRKS8_EJOS9_EEENS_21piecewise_construct_tENS_5tupleIJDpT_EEENSG_IJDpT0_EEE', symObjAddr: 0xCAA8, symBinAddr: 0x10000EE94, symSize: 0x54 }
  - { offsetInCU: 0x259E4, offset: 0x259E4, size: 0x8, addend: 0x0, symName: '__ZNSt3__122__compressed_pair_elemIZ7subsetsiNS_8functionIFvNS_6vectorIbNS_9allocatorIbEEEEEEEE3$_1Li0ELb0EEC2B8ue170006IJRKS8_EJLm0EEEENS_21piecewise_construct_tENS_5tupleIJDpT_EEENS_15__tuple_indicesIJXspT0_EEEE', symObjAddr: 0xCAFC, symBinAddr: 0x10000EEE8, symSize: 0x4C }
  - { offsetInCU: 0x25A47, offset: 0x25A47, size: 0x8, addend: 0x0, symName: '__ZNSt3__112__tuple_leafILm0ERKZ7subsetsiNS_8functionIFvNS_6vectorIbNS_9allocatorIbEEEEEEEE3$_1Lb0EE3getB8ue170006Ev', symObjAddr: 0xCB6C, symBinAddr: 0x10000EF58, symSize: 0x18 }
  - { offsetInCU: 0x25A6D, offset: 0x25A6D, size: 0x8, addend: 0x0, symName: '__ZNSt3__117__compressed_pairIPNS_10__function6__funcIZ7subsetsiNS_8functionIFvNS_6vectorIbNS_9allocatorIbEEEEEEEE3$_1NS5_ISA_EEFvvEEENS_22__allocator_destructorINS5_ISD_EEEEE5firstB8ue170006Ev', symObjAddr: 0xCB84, symBinAddr: 0x10000EF70, symSize: 0x24 }
  - { offsetInCU: 0x25A93, offset: 0x25A93, size: 0x8, addend: 0x0, symName: '__ZNSt3__122__compressed_pair_elemIPNS_10__function6__funcIZ7subsetsiNS_8functionIFvNS_6vectorIbNS_9allocatorIbEEEEEEEE3$_1NS5_ISA_EEFvvEEELi0ELb0EE5__getB8ue170006Ev', symObjAddr: 0xCBA8, symBinAddr: 0x10000EF94, symSize: 0x14 }
  - { offsetInCU: 0x25AB9, offset: 0x25AB9, size: 0x8, addend: 0x0, symName: '__ZNSt3__110unique_ptrINS_10__function6__funcIZ7subsetsiNS_8functionIFvNS_6vectorIbNS_9allocatorIbEEEEEEEE3$_1NS5_ISA_EEFvvEEENS_22__allocator_destructorINS5_ISD_EEEEED2B8ue170006Ev', symObjAddr: 0xCBBC, symBinAddr: 0x10000EFA8, symSize: 0x30 }
  - { offsetInCU: 0x25AE3, offset: 0x25AE3, size: 0x8, addend: 0x0, symName: '__ZNSt3__110unique_ptrINS_10__function6__funcIZ7subsetsiNS_8functionIFvNS_6vectorIbNS_9allocatorIbEEEEEEEE3$_1NS5_ISA_EEFvvEEENS_22__allocator_destructorINS5_ISD_EEEEE5resetB8ue170006EPSD_', symObjAddr: 0xCBEC, symBinAddr: 0x10000EFD8, symSize: 0x78 }
  - { offsetInCU: 0x25B27, offset: 0x25B27, size: 0x8, addend: 0x0, symName: '__ZNSt3__117__compressed_pairIPNS_10__function6__funcIZ7subsetsiNS_8functionIFvNS_6vectorIbNS_9allocatorIbEEEEEEEE3$_1NS5_ISA_EEFvvEEENS_22__allocator_destructorINS5_ISD_EEEEE6secondB8ue170006Ev', symObjAddr: 0xCC64, symBinAddr: 0x10000F050, symSize: 0x28 }
  - { offsetInCU: 0x25B4D, offset: 0x25B4D, size: 0x8, addend: 0x0, symName: '__ZNSt3__122__allocator_destructorINS_9allocatorINS_10__function6__funcIZ7subsetsiNS_8functionIFvNS_6vectorIbNS1_IbEEEEEEEE3$_1NS1_ISA_EEFvvEEEEEEclB8ue170006EPSD_', symObjAddr: 0xCC8C, symBinAddr: 0x10000F078, symSize: 0x34 }
  - { offsetInCU: 0x25B81, offset: 0x25B81, size: 0x8, addend: 0x0, symName: '__ZNSt3__122__compressed_pair_elemINS_22__allocator_destructorINS_9allocatorINS_10__function6__funcIZ7subsetsiNS_8functionIFvNS_6vectorIbNS2_IbEEEEEEEE3$_1NS2_ISB_EEFvvEEEEEEELi1ELb0EE5__getB8ue170006Ev', symObjAddr: 0xCCC0, symBinAddr: 0x10000F0AC, symSize: 0x14 }
  - { offsetInCU: 0x25BA7, offset: 0x25BA7, size: 0x8, addend: 0x0, symName: '__ZNSt3__116allocator_traitsINS_9allocatorINS_10__function6__funcIZ7subsetsiNS_8functionIFvNS_6vectorIbNS1_IbEEEEEEEE3$_1NS1_ISA_EEFvvEEEEEE10deallocateB8ue170006ERSE_PSD_m', symObjAddr: 0xCCD4, symBinAddr: 0x10000F0C0, symSize: 0x34 }
  - { offsetInCU: 0x25BE9, offset: 0x25BE9, size: 0x8, addend: 0x0, symName: '__ZNSt3__19allocatorINS_10__function6__funcIZ7subsetsiNS_8functionIFvNS_6vectorIbNS0_IbEEEEEEEE3$_1NS0_IS9_EEFvvEEEE10deallocateB8ue170006EPSC_m', symObjAddr: 0xCD08, symBinAddr: 0x10000F0F4, symSize: 0x44 }
  - { offsetInCU: 0x25C2B, offset: 0x25C2B, size: 0x8, addend: 0x0, symName: '__ZNSt3__110__function6__funcIZ7subsetsiNS_8functionIFvNS_6vectorIbNS_9allocatorIbEEEEEEEE3$_1NS4_IS9_EEFvvEEC1B8ue170006ERKS9_RKSA_', symObjAddr: 0xCD4C, symBinAddr: 0x10000F138, symSize: 0x3C }
  - { offsetInCU: 0x25C73, offset: 0x25C73, size: 0x8, addend: 0x0, symName: '__ZNSt3__110__function6__funcIZ7subsetsiNS_8functionIFvNS_6vectorIbNS_9allocatorIbEEEEEEEE3$_1NS4_IS9_EEFvvEEC2B8ue170006ERKS9_RKSA_', symObjAddr: 0xCD88, symBinAddr: 0x10000F174, symSize: 0x88 }
  - { offsetInCU: 0x25CBB, offset: 0x25CBB, size: 0x8, addend: 0x0, symName: '__ZNSt3__110__function12__alloc_funcIZ7subsetsiNS_8functionIFvNS_6vectorIbNS_9allocatorIbEEEEEEEE3$_1NS4_IS9_EEFvvEEC1B8ue170006ERKS9_RKSA_', symObjAddr: 0xCE10, symBinAddr: 0x10000F1FC, symSize: 0x3C }
  - { offsetInCU: 0x25D01, offset: 0x25D01, size: 0x8, addend: 0x0, symName: '__ZNSt3__110__function12__alloc_funcIZ7subsetsiNS_8functionIFvNS_6vectorIbNS_9allocatorIbEEEEEEEE3$_1NS4_IS9_EEFvvEEC2B8ue170006ERKS9_RKSA_', symObjAddr: 0xCE4C, symBinAddr: 0x10000F238, symSize: 0x5C }
  - { offsetInCU: 0x25D47, offset: 0x25D47, size: 0x8, addend: 0x0, symName: '__ZNSt3__117__compressed_pairIZ7subsetsiNS_8functionIFvNS_6vectorIbNS_9allocatorIbEEEEEEEE3$_1NS3_IS8_EEEC1B8ue170006IJRKS8_EJRKS9_EEENS_21piecewise_construct_tENS_5tupleIJDpT_EEENSH_IJDpT0_EEE', symObjAddr: 0xCED4, symBinAddr: 0x10000F2C0, symSize: 0x3C }
  - { offsetInCU: 0x25DB1, offset: 0x25DB1, size: 0x8, addend: 0x0, symName: '__ZNSt3__15tupleIJRKNS_9allocatorIZ7subsetsiNS_8functionIFvNS_6vectorIbNS1_IbEEEEEEEE3$_1EEEEC1B8ue170006INS_4_AndELi0EEESB_', symObjAddr: 0xCF10, symBinAddr: 0x10000F2FC, symSize: 0x34 }
  - { offsetInCU: 0x25DF9, offset: 0x25DF9, size: 0x8, addend: 0x0, symName: '__ZNSt3__15tupleIJRKNS_9allocatorIZ7subsetsiNS_8functionIFvNS_6vectorIbNS1_IbEEEEEEEE3$_1EEEEC2B8ue170006INS_4_AndELi0EEESB_', symObjAddr: 0xCF44, symBinAddr: 0x10000F330, symSize: 0x34 }
  - { offsetInCU: 0x25E41, offset: 0x25E41, size: 0x8, addend: 0x0, symName: '__ZNSt3__112__tuple_implINS_15__tuple_indicesIJLm0EEEEJRKNS_9allocatorIZ7subsetsiNS_8functionIFvNS_6vectorIbNS3_IbEEEEEEEE3$_1EEEEC1B8ue170006IJLm0EEJSD_EJEJEJSD_EEENS1_IJXspT_EEEENS_13__tuple_typesIJDpT0_EEENS1_IJXspT1_EEEENSH_IJDpT2_EEEDpOT3_', symObjAddr: 0xCF78, symBinAddr: 0x10000F364, symSize: 0x34 }
  - { offsetInCU: 0x25ED6, offset: 0x25ED6, size: 0x8, addend: 0x0, symName: '__ZNSt3__112__tuple_implINS_15__tuple_indicesIJLm0EEEEJRKNS_9allocatorIZ7subsetsiNS_8functionIFvNS_6vectorIbNS3_IbEEEEEEEE3$_1EEEEC2B8ue170006IJLm0EEJSD_EJEJEJSD_EEENS1_IJXspT_EEEENS_13__tuple_typesIJDpT0_EEENS1_IJXspT1_EEEENSH_IJDpT2_EEEDpOT3_', symObjAddr: 0xCFAC, symBinAddr: 0x10000F398, symSize: 0x34 }
  - { offsetInCU: 0x25F6B, offset: 0x25F6B, size: 0x8, addend: 0x0, symName: '__ZNSt3__112__tuple_leafILm0ERKNS_9allocatorIZ7subsetsiNS_8functionIFvNS_6vectorIbNS1_IbEEEEEEEE3$_1EELb0EEC2B8ue170006ISB_vEEOT_', symObjAddr: 0xCFE0, symBinAddr: 0x10000F3CC, symSize: 0x20 }
  - { offsetInCU: 0x25FAE, offset: 0x25FAE, size: 0x8, addend: 0x0, symName: '__ZNSt3__117__compressed_pairIZ7subsetsiNS_8functionIFvNS_6vectorIbNS_9allocatorIbEEEEEEEE3$_1NS3_IS8_EEEC2B8ue170006IJRKS8_EJRKS9_EEENS_21piecewise_construct_tENS_5tupleIJDpT_EEENSH_IJDpT0_EEE', symObjAddr: 0xD000, symBinAddr: 0x10000F3EC, symSize: 0x54 }
  - { offsetInCU: 0x26018, offset: 0x26018, size: 0x8, addend: 0x0, symName: '__ZNSt3__122__compressed_pair_elemINS_9allocatorIZ7subsetsiNS_8functionIFvNS_6vectorIbNS1_IbEEEEEEEE3$_1EELi1ELb1EEC2B8ue170006IJRKS9_EJLm0EEEENS_21piecewise_construct_tENS_5tupleIJDpT_EEENS_15__tuple_indicesIJXspT0_EEEE', symObjAddr: 0xD054, symBinAddr: 0x10000F440, symSize: 0x38 }
  - { offsetInCU: 0x2607B, offset: 0x2607B, size: 0x8, addend: 0x0, symName: '__ZNSt3__112__tuple_leafILm0ERKNS_9allocatorIZ7subsetsiNS_8functionIFvNS_6vectorIbNS1_IbEEEEEEEE3$_1EELb0EE3getB8ue170006Ev', symObjAddr: 0xD0B0, symBinAddr: 0x10000F49C, symSize: 0x18 }
  - { offsetInCU: 0x260A1, offset: 0x260A1, size: 0x8, addend: 0x0, symName: '__ZNSt3__110__function12__alloc_funcIZ7subsetsiNS_8functionIFvNS_6vectorIbNS_9allocatorIbEEEEEEEE3$_1NS4_IS9_EEFvvEE7destroyB8ue170006Ev', symObjAddr: 0xD0C8, symBinAddr: 0x10000F4B4, symSize: 0x10 }
  - { offsetInCU: 0x260C7, offset: 0x260C7, size: 0x8, addend: 0x0, symName: '__ZNSt3__110__function12__alloc_funcIZ7subsetsiNS_8functionIFvNS_6vectorIbNS_9allocatorIbEEEEEEEE3$_1NS4_IS9_EEFvvEEclB8ue170006Ev', symObjAddr: 0xD0D8, symBinAddr: 0x10000F4C4, symSize: 0x28 }
  - { offsetInCU: 0x260ED, offset: 0x260ED, size: 0x8, addend: 0x0, symName: '__ZNSt3__128__invoke_void_return_wrapperIvLb1EE6__callB8ue170006IJRZ7subsetsiNS_8functionIFvNS_6vectorIbNS_9allocatorIbEEEEEEEE3$_1EEEvDpOT_', symObjAddr: 0xD100, symBinAddr: 0x10000F4EC, symSize: 0x24 }
  - { offsetInCU: 0x2611C, offset: 0x2611C, size: 0x8, addend: 0x0, symName: '__ZNSt3__117__compressed_pairIZ7subsetsiNS_8functionIFvNS_6vectorIbNS_9allocatorIbEEEEEEEE3$_1NS3_IS8_EEE5firstB8ue170006Ev', symObjAddr: 0xD124, symBinAddr: 0x10000F510, symSize: 0x24 }
  - { offsetInCU: 0x26148, offset: 0x26148, size: 0x8, addend: 0x0, symName: '__ZZ7subsetsiNSt3__18functionIFvNS_6vectorIbNS_9allocatorIbEEEEEEEENK3$_1clEv', symObjAddr: 0xD16C, symBinAddr: 0x10000F558, symSize: 0x100 }
  - { offsetInCU: 0x26172, offset: 0x26172, size: 0x8, addend: 0x0, symName: '__ZNSt3__122__compressed_pair_elemIZ7subsetsiNS_8functionIFvNS_6vectorIbNS_9allocatorIbEEEEEEEE3$_1Li0ELb0EE5__getB8ue170006Ev', symObjAddr: 0xD26C, symBinAddr: 0x10000F658, symSize: 0x14 }
  - { offsetInCU: 0x26198, offset: 0x26198, size: 0x8, addend: 0x0, symName: '__ZNSt3__110unique_ptrINS_10__function6__baseIFvvEEENS_22__allocator_destructorINS_9allocatorINS1_6__funcIZ7subsetsiNS_8functionIFvNS_6vectorIbNS6_IbEEEEEEEE3$_1NS6_ISE_EES3_EEEEEEED2B8ue170006Ev', symObjAddr: 0xD280, symBinAddr: 0x10000F66C, symSize: 0x30 }
  - { offsetInCU: 0x261C2, offset: 0x261C2, size: 0x8, addend: 0x0, symName: '__ZNSt3__110unique_ptrINS_10__function6__baseIFvvEEENS_22__allocator_destructorINS_9allocatorINS1_6__funcIZ7subsetsiNS_8functionIFvNS_6vectorIbNS6_IbEEEEEEEE3$_1NS6_ISE_EES3_EEEEEEE5resetB8ue170006EPSG_', symObjAddr: 0xD2B0, symBinAddr: 0x10000F69C, symSize: 0x78 }
  - { offsetInCU: 0x26206, offset: 0x26206, size: 0x8, addend: 0x0, symName: __ZNSt3__18functionIFvvEED2Ev, symObjAddr: 0xD328, symBinAddr: 0x10000F714, symSize: 0x2C }
  - { offsetInCU: 0x26232, offset: 0x26232, size: 0x8, addend: 0x0, symName: __ZNSt3__110__function12__value_funcIFvvEED1B8ue170006Ev, symObjAddr: 0xD354, symBinAddr: 0x10000F740, symSize: 0x2C }
  - { offsetInCU: 0x2625C, offset: 0x2625C, size: 0x8, addend: 0x0, symName: __ZNSt3__110__function12__value_funcIFvvEED2B8ue170006Ev, symObjAddr: 0xD380, symBinAddr: 0x10000F76C, symSize: 0x90 }
  - { offsetInCU: 0x26286, offset: 0x26286, size: 0x8, addend: 0x0, symName: __ZNSt3__16vectorI3GF4NS_9allocatorIS1_EEE11__make_iterB8ue170006EPS1_, symObjAddr: 0xD410, symBinAddr: 0x10000F7FC, symSize: 0x30 }
  - { offsetInCU: 0x262BB, offset: 0x262BB, size: 0x8, addend: 0x0, symName: __ZNSt3__111__wrap_iterIP3GF4EC1B8ue170006ES2_, symObjAddr: 0xD440, symBinAddr: 0x10000F82C, symSize: 0x34 }
  - { offsetInCU: 0x262F3, offset: 0x262F3, size: 0x8, addend: 0x0, symName: __ZNSt3__111__wrap_iterIP3GF4EC2B8ue170006ES2_, symObjAddr: 0xD474, symBinAddr: 0x10000F860, symSize: 0x20 }
  - { offsetInCU: 0x2632B, offset: 0x2632B, size: 0x8, addend: 0x0, symName: __ZNSt3__16vectorINS_4pairI6MatrixiEENS_9allocatorIS3_EEEC2B8ue170006Ev, symObjAddr: 0xD494, symBinAddr: 0x10000F880, symSize: 0x4C }
  - { offsetInCU: 0x26355, offset: 0x26355, size: 0x8, addend: 0x0, symName: __ZNSt3__117__compressed_pairIPNS_4pairI6MatrixiEENS_9allocatorIS3_EEEC1B8ue170006IDnNS_18__default_init_tagEEEOT_OT0_, symObjAddr: 0xD4E0, symBinAddr: 0x10000F8CC, symSize: 0x3C }
  - { offsetInCU: 0x263AD, offset: 0x263AD, size: 0x8, addend: 0x0, symName: __ZNSt3__117__compressed_pairIPNS_4pairI6MatrixiEENS_9allocatorIS3_EEEC2B8ue170006IDnNS_18__default_init_tagEEEOT_OT0_, symObjAddr: 0xD51C, symBinAddr: 0x10000F908, symSize: 0x40 }
  - { offsetInCU: 0x26405, offset: 0x26405, size: 0x8, addend: 0x0, symName: __ZNSt3__122__compressed_pair_elemIPNS_4pairI6MatrixiEELi0ELb0EEC2B8ue170006IDnvEEOT_, symObjAddr: 0xD55C, symBinAddr: 0x10000F948, symSize: 0x1C }
  - { offsetInCU: 0x26447, offset: 0x26447, size: 0x8, addend: 0x0, symName: __ZNSt3__122__compressed_pair_elemINS_9allocatorINS_4pairI6MatrixiEEEELi1ELb1EEC2B8ue170006ENS_18__default_init_tagE, symObjAddr: 0xD578, symBinAddr: 0x10000F964, symSize: 0x2C }
  - { offsetInCU: 0x2647B, offset: 0x2647B, size: 0x8, addend: 0x0, symName: __ZNSt3__19allocatorINS_4pairI6MatrixiEEEC2B8ue170006Ev, symObjAddr: 0xD5A4, symBinAddr: 0x10000F990, symSize: 0x2C }
  - { offsetInCU: 0x264A5, offset: 0x264A5, size: 0x8, addend: 0x0, symName: __ZNSt3__116__non_trivial_ifILb1ENS_9allocatorINS_4pairI6MatrixiEEEEEC2B8ue170006Ev, symObjAddr: 0xD5D0, symBinAddr: 0x10000F9BC, symSize: 0x14 }
  - { offsetInCU: 0x264CF, offset: 0x264CF, size: 0x8, addend: 0x0, symName: __ZNSt3__16vectorINS_4pairI6MatrixiEENS_9allocatorIS3_EEED2B8ue170006Ev, symObjAddr: 0xD5E4, symBinAddr: 0x10000F9D0, symSize: 0x44 }
  - { offsetInCU: 0x264F9, offset: 0x264F9, size: 0x8, addend: 0x0, symName: __ZNSt3__16vectorINS_4pairI6MatrixiEENS_9allocatorIS3_EEE16__destroy_vectorC1B8ue170006ERS6_, symObjAddr: 0xD628, symBinAddr: 0x10000FA14, symSize: 0x34 }
  - { offsetInCU: 0x26532, offset: 0x26532, size: 0x8, addend: 0x0, symName: __ZNSt3__16vectorINS_4pairI6MatrixiEENS_9allocatorIS3_EEE16__destroy_vectorclB8ue170006Ev, symObjAddr: 0xD65C, symBinAddr: 0x10000FA48, symSize: 0x90 }
  - { offsetInCU: 0x26558, offset: 0x26558, size: 0x8, addend: 0x0, symName: __ZNSt3__16vectorINS_4pairI6MatrixiEENS_9allocatorIS3_EEE16__destroy_vectorC2B8ue170006ERS6_, symObjAddr: 0xD6EC, symBinAddr: 0x10000FAD8, symSize: 0x20 }
  - { offsetInCU: 0x26591, offset: 0x26591, size: 0x8, addend: 0x0, symName: __ZNSt3__16vectorINS_4pairI6MatrixiEENS_9allocatorIS3_EEE7__clearB8ue170006Ev, symObjAddr: 0xD70C, symBinAddr: 0x10000FAF8, symSize: 0x28 }
  - { offsetInCU: 0x265B7, offset: 0x265B7, size: 0x8, addend: 0x0, symName: __ZNKSt3__16vectorINS_4pairI6MatrixiEENS_9allocatorIS3_EEE17__annotate_deleteB8ue170006Ev, symObjAddr: 0xD734, symBinAddr: 0x10000FB20, symSize: 0xD4 }
  - { offsetInCU: 0x265DD, offset: 0x265DD, size: 0x8, addend: 0x0, symName: __ZNSt3__116allocator_traitsINS_9allocatorINS_4pairI6MatrixiEEEEE10deallocateB8ue170006ERS5_PS4_m, symObjAddr: 0xD808, symBinAddr: 0x10000FBF4, symSize: 0x34 }
  - { offsetInCU: 0x2661F, offset: 0x2661F, size: 0x8, addend: 0x0, symName: __ZNSt3__16vectorINS_4pairI6MatrixiEENS_9allocatorIS3_EEE7__allocB8ue170006Ev, symObjAddr: 0xD83C, symBinAddr: 0x10000FC28, symSize: 0x28 }
  - { offsetInCU: 0x26645, offset: 0x26645, size: 0x8, addend: 0x0, symName: __ZNKSt3__16vectorINS_4pairI6MatrixiEENS_9allocatorIS3_EEE8capacityB8ue170006Ev, symObjAddr: 0xD864, symBinAddr: 0x10000FC50, symSize: 0x40 }
  - { offsetInCU: 0x2666B, offset: 0x2666B, size: 0x8, addend: 0x0, symName: __ZNSt3__16vectorINS_4pairI6MatrixiEENS_9allocatorIS3_EEE22__base_destruct_at_endB8ue170006EPS3_, symObjAddr: 0xD8A4, symBinAddr: 0x10000FC90, symSize: 0x8C }
  - { offsetInCU: 0x266AF, offset: 0x266AF, size: 0x8, addend: 0x0, symName: __ZNSt3__116allocator_traitsINS_9allocatorINS_4pairI6MatrixiEEEEE7destroyB8ue170006IS4_vEEvRS5_PT_, symObjAddr: 0xD930, symBinAddr: 0x10000FD1C, symSize: 0x2C }
  - { offsetInCU: 0x266EC, offset: 0x266EC, size: 0x8, addend: 0x0, symName: __ZNSt3__19allocatorINS_4pairI6MatrixiEEE7destroyB8ue170006EPS3_, symObjAddr: 0xD970, symBinAddr: 0x10000FD5C, symSize: 0x28 }
  - { offsetInCU: 0x26720, offset: 0x26720, size: 0x8, addend: 0x0, symName: __ZNKSt3__16vectorINS_4pairI6MatrixiEENS_9allocatorIS3_EEE31__annotate_contiguous_containerB8ue170006EPKvS8_S8_S8_, symObjAddr: 0xD998, symBinAddr: 0x10000FD84, symSize: 0x20 }
  - { offsetInCU: 0x26776, offset: 0x26776, size: 0x8, addend: 0x0, symName: __ZNKSt3__16vectorINS_4pairI6MatrixiEENS_9allocatorIS3_EEE4dataB8ue170006Ev, symObjAddr: 0xD9B8, symBinAddr: 0x10000FDA4, symSize: 0x28 }
  - { offsetInCU: 0x2679C, offset: 0x2679C, size: 0x8, addend: 0x0, symName: __ZNKSt3__16vectorINS_4pairI6MatrixiEENS_9allocatorIS3_EEE4sizeB8ue170006Ev, symObjAddr: 0xD9E0, symBinAddr: 0x10000FDCC, symSize: 0x28 }
  - { offsetInCU: 0x267C2, offset: 0x267C2, size: 0x8, addend: 0x0, symName: __ZNSt3__19allocatorINS_4pairI6MatrixiEEE10deallocateB8ue170006EPS3_m, symObjAddr: 0xDA08, symBinAddr: 0x10000FDF4, symSize: 0x44 }
  - { offsetInCU: 0x26804, offset: 0x26804, size: 0x8, addend: 0x0, symName: __ZNSt3__117__compressed_pairIPNS_4pairI6MatrixiEENS_9allocatorIS3_EEE6secondB8ue170006Ev, symObjAddr: 0xDA4C, symBinAddr: 0x10000FE38, symSize: 0x24 }
  - { offsetInCU: 0x2682A, offset: 0x2682A, size: 0x8, addend: 0x0, symName: __ZNSt3__122__compressed_pair_elemINS_9allocatorINS_4pairI6MatrixiEEEELi1ELb1EE5__getB8ue170006Ev, symObjAddr: 0xDA70, symBinAddr: 0x10000FE5C, symSize: 0x14 }
  - { offsetInCU: 0x26850, offset: 0x26850, size: 0x8, addend: 0x0, symName: __ZNKSt3__16vectorINS_4pairI6MatrixiEENS_9allocatorIS3_EEE9__end_capB8ue170006Ev, symObjAddr: 0xDA84, symBinAddr: 0x10000FE70, symSize: 0x28 }
  - { offsetInCU: 0x26876, offset: 0x26876, size: 0x8, addend: 0x0, symName: __ZNKSt3__117__compressed_pairIPNS_4pairI6MatrixiEENS_9allocatorIS3_EEE5firstB8ue170006Ev, symObjAddr: 0xDAAC, symBinAddr: 0x10000FE98, symSize: 0x24 }
  - { offsetInCU: 0x2689C, offset: 0x2689C, size: 0x8, addend: 0x0, symName: __ZNKSt3__122__compressed_pair_elemIPNS_4pairI6MatrixiEELi0ELb0EE5__getB8ue170006Ev, symObjAddr: 0xDAD0, symBinAddr: 0x10000FEBC, symSize: 0x14 }
  - { offsetInCU: 0x268C2, offset: 0x268C2, size: 0x8, addend: 0x0, symName: __ZNSt3__16vectorINS_4pairI6MatrixiEENS_9allocatorIS3_EEE9__end_capB8ue170006Ev, symObjAddr: 0xDAE4, symBinAddr: 0x10000FED0, symSize: 0x28 }
  - { offsetInCU: 0x268E8, offset: 0x268E8, size: 0x8, addend: 0x0, symName: __ZNSt3__16vectorINS_4pairI6MatrixiEENS_9allocatorIS3_EEE22__construct_one_at_endB8ue170006IJRS2_RiEEEvDpOT_, symObjAddr: 0xDB0C, symBinAddr: 0x10000FEF8, symSize: 0x98 }
  - { offsetInCU: 0x2694B, offset: 0x2694B, size: 0x8, addend: 0x0, symName: __ZNSt3__16vectorINS_4pairI6MatrixiEENS_9allocatorIS3_EEE24__emplace_back_slow_pathIJRS2_RiEEEvDpOT_, symObjAddr: 0xDBA4, symBinAddr: 0x10000FF90, symSize: 0xE0 }
  - { offsetInCU: 0x269BF, offset: 0x269BF, size: 0x8, addend: 0x0, symName: __ZNSt3__117__compressed_pairIPNS_4pairI6MatrixiEENS_9allocatorIS3_EEE5firstB8ue170006Ev, symObjAddr: 0xDC84, symBinAddr: 0x100010070, symSize: 0x24 }
  - { offsetInCU: 0x269E5, offset: 0x269E5, size: 0x8, addend: 0x0, symName: __ZNSt3__122__compressed_pair_elemIPNS_4pairI6MatrixiEELi0ELb0EE5__getB8ue170006Ev, symObjAddr: 0xDCA8, symBinAddr: 0x100010094, symSize: 0x14 }
  - { offsetInCU: 0x26A27, offset: 0x26A27, size: 0x8, addend: 0x0, symName: __ZNSt3__16vectorINS_4pairI6MatrixiEENS_9allocatorIS3_EEE21_ConstructTransactionC1B8ue170006ERS6_m, symObjAddr: 0xDCBC, symBinAddr: 0x1000100A8, symSize: 0x3C }
  - { offsetInCU: 0x26A6F, offset: 0x26A6F, size: 0x8, addend: 0x0, symName: __ZNSt3__116allocator_traitsINS_9allocatorINS_4pairI6MatrixiEEEEE9constructB8ue170006IS4_JRS3_RiEvEEvRS5_PT_DpOT0_, symObjAddr: 0xDCF8, symBinAddr: 0x1000100E4, symSize: 0x3C }
  - { offsetInCU: 0x26ADA, offset: 0x26ADA, size: 0x8, addend: 0x0, symName: __ZNSt3__16vectorINS_4pairI6MatrixiEENS_9allocatorIS3_EEE21_ConstructTransactionD1B8ue170006Ev, symObjAddr: 0xDD34, symBinAddr: 0x100010120, symSize: 0x2C }
  - { offsetInCU: 0x26B04, offset: 0x26B04, size: 0x8, addend: 0x0, symName: __ZNSt3__16vectorINS_4pairI6MatrixiEENS_9allocatorIS3_EEE21_ConstructTransactionC2B8ue170006ERS6_m, symObjAddr: 0xDD60, symBinAddr: 0x10001014C, symSize: 0x4C }
  - { offsetInCU: 0x26B4C, offset: 0x26B4C, size: 0x8, addend: 0x0, symName: __ZNSt3__19allocatorINS_4pairI6MatrixiEEE9constructB8ue170006IS3_JRS2_RiEEEvPT_DpOT0_, symObjAddr: 0xDDAC, symBinAddr: 0x100010198, symSize: 0x38 }
  - { offsetInCU: 0x26BB5, offset: 0x26BB5, size: 0x8, addend: 0x0, symName: __ZNSt3__14pairI6MatrixiEC1B8ue170006IRS1_RiLPv0EEEOT_OT0_, symObjAddr: 0xDDE4, symBinAddr: 0x1000101D0, symSize: 0x3C }
  - { offsetInCU: 0x26C13, offset: 0x26C13, size: 0x8, addend: 0x0, symName: __ZNSt3__14pairI6MatrixiEC2B8ue170006IRS1_RiLPv0EEEOT_OT0_, symObjAddr: 0xDE20, symBinAddr: 0x10001020C, symSize: 0x44 }
  - { offsetInCU: 0x26C71, offset: 0x26C71, size: 0x8, addend: 0x0, symName: __ZNSt3__16vectorINS_4pairI6MatrixiEENS_9allocatorIS3_EEE21_ConstructTransactionD2B8ue170006Ev, symObjAddr: 0xDE64, symBinAddr: 0x100010250, symSize: 0x20 }
  - { offsetInCU: 0x26C9B, offset: 0x26C9B, size: 0x8, addend: 0x0, symName: __ZNKSt3__16vectorINS_4pairI6MatrixiEENS_9allocatorIS3_EEE11__recommendB8ue170006Em, symObjAddr: 0xDE84, symBinAddr: 0x100010270, symSize: 0xB4 }
  - { offsetInCU: 0x26CF0, offset: 0x26CF0, size: 0x8, addend: 0x0, symName: __ZNSt3__114__split_bufferINS_4pairI6MatrixiEERNS_9allocatorIS3_EEEC1EmmS6_, symObjAddr: 0xDF38, symBinAddr: 0x100010324, symSize: 0x44 }
  - { offsetInCU: 0x26D46, offset: 0x26D46, size: 0x8, addend: 0x0, symName: __ZNSt3__114__split_bufferINS_4pairI6MatrixiEERNS_9allocatorIS3_EEED1Ev, symObjAddr: 0xE08C, symBinAddr: 0x100010478, symSize: 0x2C }
  - { offsetInCU: 0x26D72, offset: 0x26D72, size: 0x8, addend: 0x0, symName: __ZNKSt3__16vectorINS_4pairI6MatrixiEENS_9allocatorIS3_EEE8max_sizeEv, symObjAddr: 0xE0B8, symBinAddr: 0x1000104A4, symSize: 0x60 }
  - { offsetInCU: 0x26D9A, offset: 0x26D9A, size: 0x8, addend: 0x0, symName: __ZNKSt3__16vectorINS_4pairI6MatrixiEENS_9allocatorIS3_EEE20__throw_length_errorB8ue170006Ev, symObjAddr: 0xE118, symBinAddr: 0x100010504, symSize: 0x1C }
  - { offsetInCU: 0x26DCB, offset: 0x26DCB, size: 0x8, addend: 0x0, symName: __ZNSt3__116allocator_traitsINS_9allocatorINS_4pairI6MatrixiEEEEE8max_sizeB8ue170006IS5_vEEmRKS5_, symObjAddr: 0xE134, symBinAddr: 0x100010520, symSize: 0x24 }
  - { offsetInCU: 0x26DF9, offset: 0x26DF9, size: 0x8, addend: 0x0, symName: __ZNKSt3__16vectorINS_4pairI6MatrixiEENS_9allocatorIS3_EEE7__allocB8ue170006Ev, symObjAddr: 0xE158, symBinAddr: 0x100010544, symSize: 0x28 }
  - { offsetInCU: 0x26E1F, offset: 0x26E1F, size: 0x8, addend: 0x0, symName: __ZNKSt3__19allocatorINS_4pairI6MatrixiEEE8max_sizeB8ue170006Ev, symObjAddr: 0xE180, symBinAddr: 0x10001056C, symSize: 0x18 }
  - { offsetInCU: 0x26E45, offset: 0x26E45, size: 0x8, addend: 0x0, symName: __ZNKSt3__117__compressed_pairIPNS_4pairI6MatrixiEENS_9allocatorIS3_EEE6secondB8ue170006Ev, symObjAddr: 0xE198, symBinAddr: 0x100010584, symSize: 0x24 }
  - { offsetInCU: 0x26E6B, offset: 0x26E6B, size: 0x8, addend: 0x0, symName: __ZNKSt3__122__compressed_pair_elemINS_9allocatorINS_4pairI6MatrixiEEEELi1ELb1EE5__getB8ue170006Ev, symObjAddr: 0xE1BC, symBinAddr: 0x1000105A8, symSize: 0x14 }
  - { offsetInCU: 0x26E91, offset: 0x26E91, size: 0x8, addend: 0x0, symName: __ZNSt3__114__split_bufferINS_4pairI6MatrixiEERNS_9allocatorIS3_EEEC2EmmS6_, symObjAddr: 0xE1D0, symBinAddr: 0x1000105BC, symSize: 0xE0 }
  - { offsetInCU: 0x26F05, offset: 0x26F05, size: 0x8, addend: 0x0, symName: __ZNSt3__117__compressed_pairIPNS_4pairI6MatrixiEERNS_9allocatorIS3_EEEC1B8ue170006IDnS7_EEOT_OT0_, symObjAddr: 0xE2B0, symBinAddr: 0x10001069C, symSize: 0x3C }
  - { offsetInCU: 0x26F5D, offset: 0x26F5D, size: 0x8, addend: 0x0, symName: __ZNSt3__114__split_bufferINS_4pairI6MatrixiEERNS_9allocatorIS3_EEE7__allocB8ue170006Ev, symObjAddr: 0xE32C, symBinAddr: 0x100010718, symSize: 0x28 }
  - { offsetInCU: 0x26F83, offset: 0x26F83, size: 0x8, addend: 0x0, symName: __ZNSt3__114__split_bufferINS_4pairI6MatrixiEERNS_9allocatorIS3_EEE9__end_capB8ue170006Ev, symObjAddr: 0xE354, symBinAddr: 0x100010740, symSize: 0x28 }
  - { offsetInCU: 0x26FA9, offset: 0x26FA9, size: 0x8, addend: 0x0, symName: __ZNSt3__117__compressed_pairIPNS_4pairI6MatrixiEERNS_9allocatorIS3_EEEC2B8ue170006IDnS7_EEOT_OT0_, symObjAddr: 0xE37C, symBinAddr: 0x100010768, symSize: 0x48 }
  - { offsetInCU: 0x27001, offset: 0x27001, size: 0x8, addend: 0x0, symName: __ZNSt3__122__compressed_pair_elemIRNS_9allocatorINS_4pairI6MatrixiEEEELi1ELb0EEC2B8ue170006IS6_vEEOT_, symObjAddr: 0xE3C4, symBinAddr: 0x1000107B0, symSize: 0x20 }
  - { offsetInCU: 0x27043, offset: 0x27043, size: 0x8, addend: 0x0, symName: __ZNSt3__19allocatorINS_4pairI6MatrixiEEE8allocateB8ue170006Em, symObjAddr: 0xE3E4, symBinAddr: 0x1000107D0, symSize: 0x5C }
  - { offsetInCU: 0x27077, offset: 0x27077, size: 0x8, addend: 0x0, symName: __ZNSt3__117__compressed_pairIPNS_4pairI6MatrixiEERNS_9allocatorIS3_EEE6secondB8ue170006Ev, symObjAddr: 0xE440, symBinAddr: 0x10001082C, symSize: 0x28 }
  - { offsetInCU: 0x2709D, offset: 0x2709D, size: 0x8, addend: 0x0, symName: __ZNSt3__122__compressed_pair_elemIRNS_9allocatorINS_4pairI6MatrixiEEEELi1ELb0EE5__getB8ue170006Ev, symObjAddr: 0xE468, symBinAddr: 0x100010854, symSize: 0x18 }
  - { offsetInCU: 0x270C3, offset: 0x270C3, size: 0x8, addend: 0x0, symName: __ZNSt3__117__compressed_pairIPNS_4pairI6MatrixiEERNS_9allocatorIS3_EEE5firstB8ue170006Ev, symObjAddr: 0xE480, symBinAddr: 0x10001086C, symSize: 0x24 }
  - { offsetInCU: 0x270E9, offset: 0x270E9, size: 0x8, addend: 0x0, symName: __ZNSt3__116reverse_iteratorIPNS_4pairI6MatrixiEEEC1B8ue170006ES4_, symObjAddr: 0xE5D0, symBinAddr: 0x1000109BC, symSize: 0x34 }
  - { offsetInCU: 0x27121, offset: 0x27121, size: 0x8, addend: 0x0, symName: __ZNKSt3__116reverse_iteratorIPNS_4pairI6MatrixiEEE4baseB8ue170006Ev, symObjAddr: 0xE604, symBinAddr: 0x1000109F0, symSize: 0x18 }
  - { offsetInCU: 0x27147, offset: 0x27147, size: 0x8, addend: 0x0, symName: __ZNKSt3__16vectorINS_4pairI6MatrixiEENS_9allocatorIS3_EEE14__annotate_newB8ue170006Em, symObjAddr: 0xE658, symBinAddr: 0x100010A44, symSize: 0xC8 }
  - { offsetInCU: 0x2717C, offset: 0x2717C, size: 0x8, addend: 0x0, symName: __ZNSt3__129_AllocatorDestroyRangeReverseINS_9allocatorINS_4pairI6MatrixiEEEENS_16reverse_iteratorIPS4_EEEC1B8ue170006ERS5_RS8_SB_, symObjAddr: 0xE76C, symBinAddr: 0x100010B58, symSize: 0x44 }
  - { offsetInCU: 0x271D3, offset: 0x271D3, size: 0x8, addend: 0x0, symName: __ZNSt3__116allocator_traitsINS_9allocatorINS_4pairI6MatrixiEEEEE9constructB8ue170006IS4_JS4_EvEEvRS5_PT_DpOT0_, symObjAddr: 0xE7F8, symBinAddr: 0x100010BE4, symSize: 0x34 }
  - { offsetInCU: 0x2722A, offset: 0x2722A, size: 0x8, addend: 0x0, symName: __ZNKSt3__116reverse_iteratorIPNS_4pairI6MatrixiEEEdeB8ue170006Ev, symObjAddr: 0xE850, symBinAddr: 0x100010C3C, symSize: 0x28 }
  - { offsetInCU: 0x2725E, offset: 0x2725E, size: 0x8, addend: 0x0, symName: __ZNSt3__116reverse_iteratorIPNS_4pairI6MatrixiEEEppB8ue170006Ev, symObjAddr: 0xE878, symBinAddr: 0x100010C64, symSize: 0x20 }
  - { offsetInCU: 0x27284, offset: 0x27284, size: 0x8, addend: 0x0, symName: __ZNSt3__128__exception_guard_exceptionsINS_29_AllocatorDestroyRangeReverseINS_9allocatorINS_4pairI6MatrixiEEEENS_16reverse_iteratorIPS5_EEEEE10__completeB8ue170006Ev, symObjAddr: 0xE898, symBinAddr: 0x100010C84, symSize: 0x1C }
  - { offsetInCU: 0x272AA, offset: 0x272AA, size: 0x8, addend: 0x0, symName: __ZNSt3__128__exception_guard_exceptionsINS_29_AllocatorDestroyRangeReverseINS_9allocatorINS_4pairI6MatrixiEEEENS_16reverse_iteratorIPS5_EEEEED1B8ue170006Ev, symObjAddr: 0xE8B4, symBinAddr: 0x100010CA0, symSize: 0x2C }
  - { offsetInCU: 0x272D4, offset: 0x272D4, size: 0x8, addend: 0x0, symName: __ZNSt3__128__exception_guard_exceptionsINS_29_AllocatorDestroyRangeReverseINS_9allocatorINS_4pairI6MatrixiEEEENS_16reverse_iteratorIPS5_EEEEEC1B8ue170006ESA_, symObjAddr: 0xE8E0, symBinAddr: 0x100010CCC, symSize: 0x34 }
  - { offsetInCU: 0x2730D, offset: 0x2730D, size: 0x8, addend: 0x0, symName: __ZNSt3__128__exception_guard_exceptionsINS_29_AllocatorDestroyRangeReverseINS_9allocatorINS_4pairI6MatrixiEEEENS_16reverse_iteratorIPS5_EEEEEC2B8ue170006ESA_, symObjAddr: 0xE914, symBinAddr: 0x100010D00, symSize: 0x30 }
  - { offsetInCU: 0x27346, offset: 0x27346, size: 0x8, addend: 0x0, symName: __ZNSt3__129_AllocatorDestroyRangeReverseINS_9allocatorINS_4pairI6MatrixiEEEENS_16reverse_iteratorIPS4_EEEC2B8ue170006ERS5_RS8_SB_, symObjAddr: 0xE944, symBinAddr: 0x100010D30, symSize: 0x38 }
  - { offsetInCU: 0x2739D, offset: 0x2739D, size: 0x8, addend: 0x0, symName: __ZNSt3__19allocatorINS_4pairI6MatrixiEEE9constructB8ue170006IS3_JS3_EEEvPT_DpOT0_, symObjAddr: 0xE97C, symBinAddr: 0x100010D68, symSize: 0x30 }
  - { offsetInCU: 0x273F3, offset: 0x273F3, size: 0x8, addend: 0x0, symName: __ZNSt3__14pairI6MatrixiEC1B8ue170006EOS2_, symObjAddr: 0xE9AC, symBinAddr: 0x100010D98, symSize: 0x34 }
  - { offsetInCU: 0x27427, offset: 0x27427, size: 0x8, addend: 0x0, symName: __ZNSt3__14pairI6MatrixiEC2B8ue170006EOS2_, symObjAddr: 0xE9E0, symBinAddr: 0x100010DCC, symSize: 0x40 }
  - { offsetInCU: 0x27461, offset: 0x27461, size: 0x8, addend: 0x0, symName: __ZN6MatrixC1EOS_, symObjAddr: 0xEA20, symBinAddr: 0x100010E0C, symSize: 0x34 }
  - { offsetInCU: 0x27496, offset: 0x27496, size: 0x8, addend: 0x0, symName: __ZN6MatrixC2EOS_, symObjAddr: 0xEA54, symBinAddr: 0x100010E40, symSize: 0x40 }
  - { offsetInCU: 0x274CB, offset: 0x274CB, size: 0x8, addend: 0x0, symName: __ZNSt3__16vectorINS0_I3GF4NS_9allocatorIS1_EEEENS2_IS4_EEEC1B8ue170006EOS6_, symObjAddr: 0xEA94, symBinAddr: 0x100010E80, symSize: 0x34 }
  - { offsetInCU: 0x27506, offset: 0x27506, size: 0x8, addend: 0x0, symName: __ZNSt3__16vectorINS0_I3GF4NS_9allocatorIS1_EEEENS2_IS4_EEEC2B8ue170006EOS6_, symObjAddr: 0xEAC8, symBinAddr: 0x100010EB4, symSize: 0xC4 }
  - { offsetInCU: 0x27547, offset: 0x27547, size: 0x8, addend: 0x0, symName: __ZNSt3__119__to_address_helperINS_16reverse_iteratorIPNS_4pairI6MatrixiEEEEvE6__callB8ue170006ERKS6_, symObjAddr: 0xEB8C, symBinAddr: 0x100010F78, symSize: 0x38 }
  - { offsetInCU: 0x2756A, offset: 0x2756A, size: 0x8, addend: 0x0, symName: __ZNKSt3__116reverse_iteratorIPNS_4pairI6MatrixiEEEptB8ue170006Ev, symObjAddr: 0xEBC4, symBinAddr: 0x100010FB0, symSize: 0x24 }
  - { offsetInCU: 0x27590, offset: 0x27590, size: 0x8, addend: 0x0, symName: __ZNSt3__128__exception_guard_exceptionsINS_29_AllocatorDestroyRangeReverseINS_9allocatorINS_4pairI6MatrixiEEEENS_16reverse_iteratorIPS5_EEEEED2B8ue170006Ev, symObjAddr: 0xEBE8, symBinAddr: 0x100010FD4, symSize: 0x50 }
  - { offsetInCU: 0x275BA, offset: 0x275BA, size: 0x8, addend: 0x0, symName: __ZNKSt3__129_AllocatorDestroyRangeReverseINS_9allocatorINS_4pairI6MatrixiEEEENS_16reverse_iteratorIPS4_EEEclB8ue170006Ev, symObjAddr: 0xEC38, symBinAddr: 0x100011024, symSize: 0xB4 }
  - { offsetInCU: 0x275E1, offset: 0x275E1, size: 0x8, addend: 0x0, symName: __ZNSt3__116reverse_iteratorINS0_IPNS_4pairI6MatrixiEEEEEC1B8ue170006ES5_, symObjAddr: 0xED5C, symBinAddr: 0x100011148, symSize: 0x3C }
  - { offsetInCU: 0x27619, offset: 0x27619, size: 0x8, addend: 0x0, symName: __ZNSt3__116reverse_iteratorINS0_IPNS_4pairI6MatrixiEEEEEppB8ue170006Ev, symObjAddr: 0xEE1C, symBinAddr: 0x100011208, symSize: 0x30 }
  - { offsetInCU: 0x2763F, offset: 0x2763F, size: 0x8, addend: 0x0, symName: __ZNKSt3__116reverse_iteratorINS0_IPNS_4pairI6MatrixiEEEEE4baseB8ue170006Ev, symObjAddr: 0xEE4C, symBinAddr: 0x100011238, symSize: 0x24 }
  - { offsetInCU: 0x2766B, offset: 0x2766B, size: 0x8, addend: 0x0, symName: __ZNSt3__119__to_address_helperINS_16reverse_iteratorINS1_IPNS_4pairI6MatrixiEEEEEEvE6__callB8ue170006ERKS7_, symObjAddr: 0xEE70, symBinAddr: 0x10001125C, symSize: 0x38 }
  - { offsetInCU: 0x2768E, offset: 0x2768E, size: 0x8, addend: 0x0, symName: __ZNKSt3__116reverse_iteratorINS0_IPNS_4pairI6MatrixiEEEEEptB8ue170006Ev, symObjAddr: 0xEEA8, symBinAddr: 0x100011294, symSize: 0x24 }
  - { offsetInCU: 0x276B4, offset: 0x276B4, size: 0x8, addend: 0x0, symName: __ZNKSt3__116reverse_iteratorINS0_IPNS_4pairI6MatrixiEEEEEdeB8ue170006Ev, symObjAddr: 0xEECC, symBinAddr: 0x1000112B8, symSize: 0x34 }
  - { offsetInCU: 0x276E8, offset: 0x276E8, size: 0x8, addend: 0x0, symName: __ZNSt3__116reverse_iteratorIPNS_4pairI6MatrixiEEEmmB8ue170006Ev, symObjAddr: 0xEF00, symBinAddr: 0x1000112EC, symSize: 0x20 }
  - { offsetInCU: 0x2770E, offset: 0x2770E, size: 0x8, addend: 0x0, symName: __ZNSt3__116reverse_iteratorINS0_IPNS_4pairI6MatrixiEEEEEC2B8ue170006ES5_, symObjAddr: 0xEF20, symBinAddr: 0x10001130C, symSize: 0x2C }
  - { offsetInCU: 0x27746, offset: 0x27746, size: 0x8, addend: 0x0, symName: __ZNSt3__116reverse_iteratorIPNS_4pairI6MatrixiEEEC2B8ue170006ES4_, symObjAddr: 0xEF4C, symBinAddr: 0x100011338, symSize: 0x28 }
  - { offsetInCU: 0x2777E, offset: 0x2777E, size: 0x8, addend: 0x0, symName: __ZNSt3__114__split_bufferINS_4pairI6MatrixiEERNS_9allocatorIS3_EEED2Ev, symObjAddr: 0xEF74, symBinAddr: 0x100011360, symSize: 0x8C }
  - { offsetInCU: 0x277AA, offset: 0x277AA, size: 0x8, addend: 0x0, symName: __ZNSt3__114__split_bufferINS_4pairI6MatrixiEERNS_9allocatorIS3_EEE5clearB8ue170006Ev, symObjAddr: 0xF000, symBinAddr: 0x1000113EC, symSize: 0x28 }
  - { offsetInCU: 0x277D0, offset: 0x277D0, size: 0x8, addend: 0x0, symName: __ZNKSt3__114__split_bufferINS_4pairI6MatrixiEERNS_9allocatorIS3_EEE8capacityB8ue170006Ev, symObjAddr: 0xF028, symBinAddr: 0x100011414, symSize: 0x40 }
  - { offsetInCU: 0x277F6, offset: 0x277F6, size: 0x8, addend: 0x0, symName: __ZNSt3__114__split_bufferINS_4pairI6MatrixiEERNS_9allocatorIS3_EEE17__destruct_at_endB8ue170006EPS3_, symObjAddr: 0xF068, symBinAddr: 0x100011454, symSize: 0x2C }
  - { offsetInCU: 0x2782A, offset: 0x2782A, size: 0x8, addend: 0x0, symName: __ZNSt3__114__split_bufferINS_4pairI6MatrixiEERNS_9allocatorIS3_EEE17__destruct_at_endB8ue170006EPS3_NS_17integral_constantIbLb0EEE, symObjAddr: 0xF094, symBinAddr: 0x100011480, symSize: 0x80 }
  - { offsetInCU: 0x2786A, offset: 0x2786A, size: 0x8, addend: 0x0, symName: __ZNKSt3__114__split_bufferINS_4pairI6MatrixiEERNS_9allocatorIS3_EEE9__end_capB8ue170006Ev, symObjAddr: 0xF114, symBinAddr: 0x100011500, symSize: 0x28 }
  - { offsetInCU: 0x27890, offset: 0x27890, size: 0x8, addend: 0x0, symName: __ZNKSt3__117__compressed_pairIPNS_4pairI6MatrixiEERNS_9allocatorIS3_EEE5firstB8ue170006Ev, symObjAddr: 0xF13C, symBinAddr: 0x100011528, symSize: 0x24 }
  - { offsetInCU: 0x278B6, offset: 0x278B6, size: 0x8, addend: 0x0, symName: __ZNKSt3__16vectorINS_4pairI6MatrixiEENS_9allocatorIS3_EEE11__make_iterB8ue170006EPKS3_, symObjAddr: 0xF160, symBinAddr: 0x10001154C, symSize: 0x30 }
  - { offsetInCU: 0x278EB, offset: 0x278EB, size: 0x8, addend: 0x0, symName: __ZNSt3__111__wrap_iterIPKNS_4pairI6MatrixiEEEC1B8ue170006ES5_, symObjAddr: 0xF190, symBinAddr: 0x10001157C, symSize: 0x34 }
  - { offsetInCU: 0x27923, offset: 0x27923, size: 0x8, addend: 0x0, symName: __ZNSt3__111__wrap_iterIPKNS_4pairI6MatrixiEEEC2B8ue170006ES5_, symObjAddr: 0xF1C4, symBinAddr: 0x1000115B0, symSize: 0x20 }
  - { offsetInCU: 0x2795B, offset: 0x2795B, size: 0x8, addend: 0x0, symName: '__ZNSt3__18functionIFvNS_6vectorIbNS_9allocatorIbEEEEEEC2IZ36brouwer_zimmerman_meet_in_the_middleRKNS1_INS_4pairI6MatrixiEENS2_ISA_EEEEE3$_2vEET_', symObjAddr: 0xF1E4, symBinAddr: 0x1000115D0, symSize: 0x3C }
  - { offsetInCU: 0x279A0, offset: 0x279A0, size: 0x8, addend: 0x0, symName: '__ZNSt3__110__function12__value_funcIFvNS_6vectorIbNS_9allocatorIbEEEEEEC1B8ue170006IZ36brouwer_zimmerman_meet_in_the_middleRKNS2_INS_4pairI6MatrixiEENS3_ISB_EEEEE3$_2vEEOT_', symObjAddr: 0xF220, symBinAddr: 0x10001160C, symSize: 0x50 }
  - { offsetInCU: 0x279E3, offset: 0x279E3, size: 0x8, addend: 0x0, symName: '__ZNSt3__19allocatorIZ36brouwer_zimmerman_meet_in_the_middleRKNS_6vectorINS_4pairI6MatrixiEENS0_IS4_EEEEE3$_2EC1B8ue170006Ev', symObjAddr: 0xF270, symBinAddr: 0x10001165C, symSize: 0x2C }
  - { offsetInCU: 0x27A0D, offset: 0x27A0D, size: 0x8, addend: 0x0, symName: '__ZNSt3__110__function12__value_funcIFvNS_6vectorIbNS_9allocatorIbEEEEEEC1B8ue170006IZ36brouwer_zimmerman_meet_in_the_middleRKNS2_INS_4pairI6MatrixiEENS3_ISB_EEEEE3$_2NS3_ISG_EEEEOT_RKT0_', symObjAddr: 0xF29C, symBinAddr: 0x100011688, symSize: 0x3C }
  - { offsetInCU: 0x27A67, offset: 0x27A67, size: 0x8, addend: 0x0, symName: '__ZNSt3__19allocatorIZ36brouwer_zimmerman_meet_in_the_middleRKNS_6vectorINS_4pairI6MatrixiEENS0_IS4_EEEEE3$_2EC2B8ue170006Ev', symObjAddr: 0xF2D8, symBinAddr: 0x1000116C4, symSize: 0x2C }
  - { offsetInCU: 0x27A91, offset: 0x27A91, size: 0x8, addend: 0x0, symName: '__ZNSt3__116__non_trivial_ifILb1ENS_9allocatorIZ36brouwer_zimmerman_meet_in_the_middleRKNS_6vectorINS_4pairI6MatrixiEENS1_IS5_EEEEE3$_2EEEC2B8ue170006Ev', symObjAddr: 0xF304, symBinAddr: 0x1000116F0, symSize: 0x14 }
  - { offsetInCU: 0x27ABB, offset: 0x27ABB, size: 0x8, addend: 0x0, symName: '__ZNSt3__110__function12__value_funcIFvNS_6vectorIbNS_9allocatorIbEEEEEEC2B8ue170006IZ36brouwer_zimmerman_meet_in_the_middleRKNS2_INS_4pairI6MatrixiEENS3_ISB_EEEEE3$_2NS3_ISG_EEEEOT_RKT0_', symObjAddr: 0xF318, symBinAddr: 0x100011704, symSize: 0x94 }
  - { offsetInCU: 0x27B68, offset: 0x27B68, size: 0x8, addend: 0x0, symName: '__ZNSt3__19allocatorINS_10__function6__funcIZ36brouwer_zimmerman_meet_in_the_middleRKNS_6vectorINS_4pairI6MatrixiEENS0_IS6_EEEEE3$_2NS0_ISB_EEFvNS3_IbNS0_IbEEEEEEEEC1B8ue170006ISB_EERKNS0_IT_EE', symObjAddr: 0xF3C4, symBinAddr: 0x1000117B0, symSize: 0x34 }
  - { offsetInCU: 0x27BAB, offset: 0x27BAB, size: 0x8, addend: 0x0, symName: '__ZNSt3__19allocatorIZ36brouwer_zimmerman_meet_in_the_middleRKNS_6vectorINS_4pairI6MatrixiEENS0_IS4_EEEEE3$_2EC1B8ue170006INS_10__function6__funcIS9_SA_FvNS1_IbNS0_IbEEEEEEEEERKNS0_IT_EE', symObjAddr: 0xF3F8, symBinAddr: 0x1000117E4, symSize: 0x34 }
  - { offsetInCU: 0x27BE8, offset: 0x27BE8, size: 0x8, addend: 0x0, symName: '__ZNSt3__110__function6__funcIZ36brouwer_zimmerman_meet_in_the_middleRKNS_6vectorINS_4pairI6MatrixiEENS_9allocatorIS5_EEEEE3$_2NS6_ISB_EEFvNS2_IbNS6_IbEEEEEEC1B8ue170006EOSB_OSC_', symObjAddr: 0xF42C, symBinAddr: 0x100011818, symSize: 0x3C }
  - { offsetInCU: 0x27C30, offset: 0x27C30, size: 0x8, addend: 0x0, symName: '__ZNSt3__19allocatorINS_10__function6__funcIZ36brouwer_zimmerman_meet_in_the_middleRKNS_6vectorINS_4pairI6MatrixiEENS0_IS6_EEEEE3$_2NS0_ISB_EEFvNS3_IbNS0_IbEEEEEEEEC2B8ue170006ISB_EERKNS0_IT_EE', symObjAddr: 0xF468, symBinAddr: 0x100011854, symSize: 0x30 }
  - { offsetInCU: 0x27C6D, offset: 0x27C6D, size: 0x8, addend: 0x0, symName: '__ZNSt3__116__non_trivial_ifILb1ENS_9allocatorINS_10__function6__funcIZ36brouwer_zimmerman_meet_in_the_middleRKNS_6vectorINS_4pairI6MatrixiEENS1_IS7_EEEEE3$_2NS1_ISC_EEFvNS4_IbNS1_IbEEEEEEEEEEC2B8ue170006Ev', symObjAddr: 0xF498, symBinAddr: 0x100011884, symSize: 0x14 }
  - { offsetInCU: 0x27C97, offset: 0x27C97, size: 0x8, addend: 0x0, symName: '__ZNSt3__19allocatorIZ36brouwer_zimmerman_meet_in_the_middleRKNS_6vectorINS_4pairI6MatrixiEENS0_IS4_EEEEE3$_2EC2B8ue170006INS_10__function6__funcIS9_SA_FvNS1_IbNS0_IbEEEEEEEEERKNS0_IT_EE', symObjAddr: 0xF4AC, symBinAddr: 0x100011898, symSize: 0x30 }
  - { offsetInCU: 0x27CD4, offset: 0x27CD4, size: 0x8, addend: 0x0, symName: '__ZNSt3__110__function6__funcIZ36brouwer_zimmerman_meet_in_the_middleRKNS_6vectorINS_4pairI6MatrixiEENS_9allocatorIS5_EEEEE3$_2NS6_ISB_EEFvNS2_IbNS6_IbEEEEEEC2B8ue170006EOSB_OSC_', symObjAddr: 0xF4DC, symBinAddr: 0x1000118C8, symSize: 0x88 }
  - { offsetInCU: 0x27D1C, offset: 0x27D1C, size: 0x8, addend: 0x0, symName: __ZNSt3__110__function6__baseIFvNS_6vectorIbNS_9allocatorIbEEEEEEC2B8ue170006Ev, symObjAddr: 0xF564, symBinAddr: 0x100011950, symSize: 0x24 }
  - { offsetInCU: 0x27D46, offset: 0x27D46, size: 0x8, addend: 0x0, symName: '__ZNSt3__110__function12__alloc_funcIZ36brouwer_zimmerman_meet_in_the_middleRKNS_6vectorINS_4pairI6MatrixiEENS_9allocatorIS5_EEEEE3$_2NS6_ISB_EEFvNS2_IbNS6_IbEEEEEEC1B8ue170006EOSB_OSC_', symObjAddr: 0xF588, symBinAddr: 0x100011974, symSize: 0x3C }
  - { offsetInCU: 0x27D8C, offset: 0x27D8C, size: 0x8, addend: 0x0, symName: __ZNSt3__110__function6__baseIFvNS_6vectorIbNS_9allocatorIbEEEEEED2Ev, symObjAddr: 0xF5C4, symBinAddr: 0x1000119B0, symSize: 0x14 }
  - { offsetInCU: 0x27DB6, offset: 0x27DB6, size: 0x8, addend: 0x0, symName: '__ZNSt3__110__function6__funcIZ36brouwer_zimmerman_meet_in_the_middleRKNS_6vectorINS_4pairI6MatrixiEENS_9allocatorIS5_EEEEE3$_2NS6_ISB_EEFvNS2_IbNS6_IbEEEEEED1Ev', symObjAddr: 0xF5D8, symBinAddr: 0x1000119C4, symSize: 0x2C }
  - { offsetInCU: 0x27DE3, offset: 0x27DE3, size: 0x8, addend: 0x0, symName: '__ZNSt3__110__function6__funcIZ36brouwer_zimmerman_meet_in_the_middleRKNS_6vectorINS_4pairI6MatrixiEENS_9allocatorIS5_EEEEE3$_2NS6_ISB_EEFvNS2_IbNS6_IbEEEEEED0Ev', symObjAddr: 0xF604, symBinAddr: 0x1000119F0, symSize: 0x30 }
  - { offsetInCU: 0x27E10, offset: 0x27E10, size: 0x8, addend: 0x0, symName: '__ZNKSt3__110__function6__funcIZ36brouwer_zimmerman_meet_in_the_middleRKNS_6vectorINS_4pairI6MatrixiEENS_9allocatorIS5_EEEEE3$_2NS6_ISB_EEFvNS2_IbNS6_IbEEEEEE7__cloneEv', symObjAddr: 0xF634, symBinAddr: 0x100011A20, symSize: 0xFC }
  - { offsetInCU: 0x27E62, offset: 0x27E62, size: 0x8, addend: 0x0, symName: '__ZNKSt3__110__function6__funcIZ36brouwer_zimmerman_meet_in_the_middleRKNS_6vectorINS_4pairI6MatrixiEENS_9allocatorIS5_EEEEE3$_2NS6_ISB_EEFvNS2_IbNS6_IbEEEEEE7__cloneEPNS0_6__baseISF_EE', symObjAddr: 0xF730, symBinAddr: 0x100011B1C, symSize: 0x58 }
  - { offsetInCU: 0x27E99, offset: 0x27E99, size: 0x8, addend: 0x0, symName: '__ZNSt3__110__function6__funcIZ36brouwer_zimmerman_meet_in_the_middleRKNS_6vectorINS_4pairI6MatrixiEENS_9allocatorIS5_EEEEE3$_2NS6_ISB_EEFvNS2_IbNS6_IbEEEEEE7destroyEv', symObjAddr: 0xF788, symBinAddr: 0x100011B74, symSize: 0x28 }
  - { offsetInCU: 0x27EC1, offset: 0x27EC1, size: 0x8, addend: 0x0, symName: '__ZNSt3__110__function6__funcIZ36brouwer_zimmerman_meet_in_the_middleRKNS_6vectorINS_4pairI6MatrixiEENS_9allocatorIS5_EEEEE3$_2NS6_ISB_EEFvNS2_IbNS6_IbEEEEEE18destroy_deallocateEv', symObjAddr: 0xF7B0, symBinAddr: 0x100011B9C, symSize: 0x58 }
  - { offsetInCU: 0x27F04, offset: 0x27F04, size: 0x8, addend: 0x0, symName: '__ZNSt3__110__function6__funcIZ36brouwer_zimmerman_meet_in_the_middleRKNS_6vectorINS_4pairI6MatrixiEENS_9allocatorIS5_EEEEE3$_2NS6_ISB_EEFvNS2_IbNS6_IbEEEEEEclEOSE_', symObjAddr: 0xF808, symBinAddr: 0x100011BF4, symSize: 0x30 }
  - { offsetInCU: 0x27F3B, offset: 0x27F3B, size: 0x8, addend: 0x0, symName: '__ZNKSt3__110__function6__funcIZ36brouwer_zimmerman_meet_in_the_middleRKNS_6vectorINS_4pairI6MatrixiEENS_9allocatorIS5_EEEEE3$_2NS6_ISB_EEFvNS2_IbNS6_IbEEEEEE6targetERKSt9type_info', symObjAddr: 0xF838, symBinAddr: 0x100011C24, symSize: 0x60 }
  - { offsetInCU: 0x27F72, offset: 0x27F72, size: 0x8, addend: 0x0, symName: '__ZNKSt3__110__function6__funcIZ36brouwer_zimmerman_meet_in_the_middleRKNS_6vectorINS_4pairI6MatrixiEENS_9allocatorIS5_EEEEE3$_2NS6_ISB_EEFvNS2_IbNS6_IbEEEEEE11target_typeEv', symObjAddr: 0xF898, symBinAddr: 0x100011C84, symSize: 0x18 }
  - { offsetInCU: 0x27F9A, offset: 0x27F9A, size: 0x8, addend: 0x0, symName: __ZNSt3__110__function6__baseIFvNS_6vectorIbNS_9allocatorIbEEEEEED1Ev, symObjAddr: 0xF8B0, symBinAddr: 0x100011C9C, symSize: 0x14 }
  - { offsetInCU: 0x27FC4, offset: 0x27FC4, size: 0x8, addend: 0x0, symName: __ZNSt3__110__function6__baseIFvNS_6vectorIbNS_9allocatorIbEEEEEED0Ev, symObjAddr: 0xF8C4, symBinAddr: 0x100011CB0, symSize: 0xC }
  - { offsetInCU: 0x27FEE, offset: 0x27FEE, size: 0x8, addend: 0x0, symName: '__ZNSt3__110__function12__alloc_funcIZ36brouwer_zimmerman_meet_in_the_middleRKNS_6vectorINS_4pairI6MatrixiEENS_9allocatorIS5_EEEEE3$_2NS6_ISB_EEFvNS2_IbNS6_IbEEEEEEC2B8ue170006EOSB_OSC_', symObjAddr: 0xF8D0, symBinAddr: 0x100011CBC, symSize: 0x5C }
  - { offsetInCU: 0x28034, offset: 0x28034, size: 0x8, addend: 0x0, symName: '__ZNSt3__117__compressed_pairIZ36brouwer_zimmerman_meet_in_the_middleRKNS_6vectorINS_4pairI6MatrixiEENS_9allocatorIS4_EEEEE3$_2NS5_ISA_EEEC1B8ue170006IJOSA_EJOSB_EEENS_21piecewise_construct_tENS_5tupleIJDpT_EEENSH_IJDpT0_EEE', symObjAddr: 0xF984, symBinAddr: 0x100011D70, symSize: 0x3C }
  - { offsetInCU: 0x2809E, offset: 0x2809E, size: 0x8, addend: 0x0, symName: '__ZNSt3__15tupleIJOZ36brouwer_zimmerman_meet_in_the_middleRKNS_6vectorINS_4pairI6MatrixiEENS_9allocatorIS4_EEEEE3$_2EEC1B8ue170006IJSA_ELi0EEEDpOT_', symObjAddr: 0xF9C0, symBinAddr: 0x100011DAC, symSize: 0x34 }
  - { offsetInCU: 0x280E8, offset: 0x280E8, size: 0x8, addend: 0x0, symName: '__ZNSt3__15tupleIJOZ36brouwer_zimmerman_meet_in_the_middleRKNS_6vectorINS_4pairI6MatrixiEENS_9allocatorIS4_EEEEE3$_2EEC2B8ue170006IJSA_ELi0EEEDpOT_', symObjAddr: 0xF9F4, symBinAddr: 0x100011DE0, symSize: 0x34 }
  - { offsetInCU: 0x28132, offset: 0x28132, size: 0x8, addend: 0x0, symName: '__ZNSt3__112__tuple_implINS_15__tuple_indicesIJLm0EEEEJOZ36brouwer_zimmerman_meet_in_the_middleRKNS_6vectorINS_4pairI6MatrixiEENS_9allocatorIS6_EEEEE3$_2EEC1B8ue170006IJLm0EEJSD_EJEJEJSC_EEENS1_IJXspT_EEEENS_13__tuple_typesIJDpT0_EEENS1_IJXspT1_EEEENSH_IJDpT2_EEEDpOT3_', symObjAddr: 0xFA28, symBinAddr: 0x100011E14, symSize: 0x34 }
  - { offsetInCU: 0x281C7, offset: 0x281C7, size: 0x8, addend: 0x0, symName: '__ZNSt3__112__tuple_implINS_15__tuple_indicesIJLm0EEEEJOZ36brouwer_zimmerman_meet_in_the_middleRKNS_6vectorINS_4pairI6MatrixiEENS_9allocatorIS6_EEEEE3$_2EEC2B8ue170006IJLm0EEJSD_EJEJEJSC_EEENS1_IJXspT_EEEENS_13__tuple_typesIJDpT0_EEENS1_IJXspT1_EEEENSH_IJDpT2_EEEDpOT3_', symObjAddr: 0xFA5C, symBinAddr: 0x100011E48, symSize: 0x34 }
  - { offsetInCU: 0x2825C, offset: 0x2825C, size: 0x8, addend: 0x0, symName: '__ZNSt3__112__tuple_leafILm0EOZ36brouwer_zimmerman_meet_in_the_middleRKNS_6vectorINS_4pairI6MatrixiEENS_9allocatorIS4_EEEEE3$_2Lb0EEC2B8ue170006ISA_vEEOT_', symObjAddr: 0xFA90, symBinAddr: 0x100011E7C, symSize: 0x20 }
  - { offsetInCU: 0x2829F, offset: 0x2829F, size: 0x8, addend: 0x0, symName: '__ZNSt3__15tupleIJONS_9allocatorIZ36brouwer_zimmerman_meet_in_the_middleRKNS_6vectorINS_4pairI6MatrixiEENS1_IS5_EEEEE3$_2EEEEC1B8ue170006IJSB_ELi0EEEDpOT_', symObjAddr: 0xFAB0, symBinAddr: 0x100011E9C, symSize: 0x34 }
  - { offsetInCU: 0x282E9, offset: 0x282E9, size: 0x8, addend: 0x0, symName: '__ZNSt3__15tupleIJONS_9allocatorIZ36brouwer_zimmerman_meet_in_the_middleRKNS_6vectorINS_4pairI6MatrixiEENS1_IS5_EEEEE3$_2EEEEC2B8ue170006IJSB_ELi0EEEDpOT_', symObjAddr: 0xFAE4, symBinAddr: 0x100011ED0, symSize: 0x34 }
  - { offsetInCU: 0x28333, offset: 0x28333, size: 0x8, addend: 0x0, symName: '__ZNSt3__112__tuple_implINS_15__tuple_indicesIJLm0EEEEJONS_9allocatorIZ36brouwer_zimmerman_meet_in_the_middleRKNS_6vectorINS_4pairI6MatrixiEENS3_IS7_EEEEE3$_2EEEEC1B8ue170006IJLm0EEJSE_EJEJEJSD_EEENS1_IJXspT_EEEENS_13__tuple_typesIJDpT0_EEENS1_IJXspT1_EEEENSI_IJDpT2_EEEDpOT3_', symObjAddr: 0xFB18, symBinAddr: 0x100011F04, symSize: 0x34 }
  - { offsetInCU: 0x283C8, offset: 0x283C8, size: 0x8, addend: 0x0, symName: '__ZNSt3__112__tuple_implINS_15__tuple_indicesIJLm0EEEEJONS_9allocatorIZ36brouwer_zimmerman_meet_in_the_middleRKNS_6vectorINS_4pairI6MatrixiEENS3_IS7_EEEEE3$_2EEEEC2B8ue170006IJLm0EEJSE_EJEJEJSD_EEENS1_IJXspT_EEEENS_13__tuple_typesIJDpT0_EEENS1_IJXspT1_EEEENSI_IJDpT2_EEEDpOT3_', symObjAddr: 0xFB4C, symBinAddr: 0x100011F38, symSize: 0x34 }
  - { offsetInCU: 0x2845D, offset: 0x2845D, size: 0x8, addend: 0x0, symName: '__ZNSt3__112__tuple_leafILm0EONS_9allocatorIZ36brouwer_zimmerman_meet_in_the_middleRKNS_6vectorINS_4pairI6MatrixiEENS1_IS5_EEEEE3$_2EELb0EEC2B8ue170006ISB_vEEOT_', symObjAddr: 0xFB80, symBinAddr: 0x100011F6C, symSize: 0x20 }
  - { offsetInCU: 0x284A0, offset: 0x284A0, size: 0x8, addend: 0x0, symName: '__ZNSt3__117__compressed_pairIZ36brouwer_zimmerman_meet_in_the_middleRKNS_6vectorINS_4pairI6MatrixiEENS_9allocatorIS4_EEEEE3$_2NS5_ISA_EEEC2B8ue170006IJOSA_EJOSB_EEENS_21piecewise_construct_tENS_5tupleIJDpT_EEENSH_IJDpT0_EEE', symObjAddr: 0xFBA0, symBinAddr: 0x100011F8C, symSize: 0x54 }
  - { offsetInCU: 0x2850A, offset: 0x2850A, size: 0x8, addend: 0x0, symName: '__ZNSt3__122__compressed_pair_elemIZ36brouwer_zimmerman_meet_in_the_middleRKNS_6vectorINS_4pairI6MatrixiEENS_9allocatorIS4_EEEEE3$_2Li0ELb0EEC2B8ue170006IJOSA_EJLm0EEEENS_21piecewise_construct_tENS_5tupleIJDpT_EEENS_15__tuple_indicesIJXspT0_EEEE', symObjAddr: 0xFBF4, symBinAddr: 0x100011FE0, symSize: 0x44 }
  - { offsetInCU: 0x2856D, offset: 0x2856D, size: 0x8, addend: 0x0, symName: '__ZNSt3__122__compressed_pair_elemINS_9allocatorIZ36brouwer_zimmerman_meet_in_the_middleRKNS_6vectorINS_4pairI6MatrixiEENS1_IS5_EEEEE3$_2EELi1ELb1EEC2B8ue170006IJOSB_EJLm0EEEENS_21piecewise_construct_tENS_5tupleIJDpT_EEENS_15__tuple_indicesIJXspT0_EEEE', symObjAddr: 0xFC38, symBinAddr: 0x100012024, symSize: 0x38 }
  - { offsetInCU: 0x285D0, offset: 0x285D0, size: 0x8, addend: 0x0, symName: '__ZNSt3__112__tuple_leafILm0EOZ36brouwer_zimmerman_meet_in_the_middleRKNS_6vectorINS_4pairI6MatrixiEENS_9allocatorIS4_EEEEE3$_2Lb0EE3getB8ue170006Ev', symObjAddr: 0xFC94, symBinAddr: 0x100012080, symSize: 0x18 }
  - { offsetInCU: 0x285F6, offset: 0x285F6, size: 0x8, addend: 0x0, symName: '__ZNSt3__112__tuple_leafILm0EONS_9allocatorIZ36brouwer_zimmerman_meet_in_the_middleRKNS_6vectorINS_4pairI6MatrixiEENS1_IS5_EEEEE3$_2EELb0EE3getB8ue170006Ev', symObjAddr: 0xFCD0, symBinAddr: 0x1000120BC, symSize: 0x18 }
  - { offsetInCU: 0x2861C, offset: 0x2861C, size: 0x8, addend: 0x0, symName: '__ZNSt3__110__function6__funcIZ36brouwer_zimmerman_meet_in_the_middleRKNS_6vectorINS_4pairI6MatrixiEENS_9allocatorIS5_EEEEE3$_2NS6_ISB_EEFvNS2_IbNS6_IbEEEEEED2Ev', symObjAddr: 0xFCE8, symBinAddr: 0x1000120D4, symSize: 0x2C }
  - { offsetInCU: 0x28649, offset: 0x28649, size: 0x8, addend: 0x0, symName: '__ZNKSt3__110__function12__alloc_funcIZ36brouwer_zimmerman_meet_in_the_middleRKNS_6vectorINS_4pairI6MatrixiEENS_9allocatorIS5_EEEEE3$_2NS6_ISB_EEFvNS2_IbNS6_IbEEEEEE15__get_allocatorB8ue170006Ev', symObjAddr: 0xFD14, symBinAddr: 0x100012100, symSize: 0x24 }
  - { offsetInCU: 0x2866F, offset: 0x2866F, size: 0x8, addend: 0x0, symName: '__ZNSt3__19allocatorINS_10__function6__funcIZ36brouwer_zimmerman_meet_in_the_middleRKNS_6vectorINS_4pairI6MatrixiEENS0_IS6_EEEEE3$_2NS0_ISB_EEFvNS3_IbNS0_IbEEEEEEEE8allocateB8ue170006Em', symObjAddr: 0xFD38, symBinAddr: 0x100012124, symSize: 0x5C }
  - { offsetInCU: 0x286B5, offset: 0x286B5, size: 0x8, addend: 0x0, symName: '__ZNSt3__122__allocator_destructorINS_9allocatorINS_10__function6__funcIZ36brouwer_zimmerman_meet_in_the_middleRKNS_6vectorINS_4pairI6MatrixiEENS1_IS7_EEEEE3$_2NS1_ISC_EEFvNS4_IbNS1_IbEEEEEEEEEEC1B8ue170006ERSI_m', symObjAddr: 0xFD94, symBinAddr: 0x100012180, symSize: 0x3C }
  - { offsetInCU: 0x2879C, offset: 0x2879C, size: 0x8, addend: 0x0, symName: '__ZNSt3__110unique_ptrINS_10__function6__funcIZ36brouwer_zimmerman_meet_in_the_middleRKNS_6vectorINS_4pairI6MatrixiEENS_9allocatorIS6_EEEEE3$_2NS7_ISC_EEFvNS3_IbNS7_IbEEEEEEENS_22__allocator_destructorINS7_ISH_EEEEEC1B8ue170006ILb1EvEEPSH_NS_16__dependent_typeINS_27__unique_ptr_deleter_sfinaeISK_EEXT_EE20__good_rval_ref_typeE', symObjAddr: 0xFDD0, symBinAddr: 0x1000121BC, symSize: 0x3C }
  - { offsetInCU: 0x287ED, offset: 0x287ED, size: 0x8, addend: 0x0, symName: '__ZNKSt3__110unique_ptrINS_10__function6__funcIZ36brouwer_zimmerman_meet_in_the_middleRKNS_6vectorINS_4pairI6MatrixiEENS_9allocatorIS6_EEEEE3$_2NS7_ISC_EEFvNS3_IbNS7_IbEEEEEEENS_22__allocator_destructorINS7_ISH_EEEEE3getB8ue170006Ev', symObjAddr: 0xFE0C, symBinAddr: 0x1000121F8, symSize: 0x28 }
  - { offsetInCU: 0x28813, offset: 0x28813, size: 0x8, addend: 0x0, symName: '__ZNKSt3__110__function12__alloc_funcIZ36brouwer_zimmerman_meet_in_the_middleRKNS_6vectorINS_4pairI6MatrixiEENS_9allocatorIS5_EEEEE3$_2NS6_ISB_EEFvNS2_IbNS6_IbEEEEEE8__targetB8ue170006Ev', symObjAddr: 0xFE34, symBinAddr: 0x100012220, symSize: 0x24 }
  - { offsetInCU: 0x28839, offset: 0x28839, size: 0x8, addend: 0x0, symName: '__ZNSt3__110__function6__funcIZ36brouwer_zimmerman_meet_in_the_middleRKNS_6vectorINS_4pairI6MatrixiEENS_9allocatorIS5_EEEEE3$_2NS6_ISB_EEFvNS2_IbNS6_IbEEEEEEC1B8ue170006ERKSB_OSC_', symObjAddr: 0xFE58, symBinAddr: 0x100012244, symSize: 0x3C }
  - { offsetInCU: 0x28881, offset: 0x28881, size: 0x8, addend: 0x0, symName: '__ZNSt3__110unique_ptrINS_10__function6__funcIZ36brouwer_zimmerman_meet_in_the_middleRKNS_6vectorINS_4pairI6MatrixiEENS_9allocatorIS6_EEEEE3$_2NS7_ISC_EEFvNS3_IbNS7_IbEEEEEEENS_22__allocator_destructorINS7_ISH_EEEEE7releaseB8ue170006Ev', symObjAddr: 0xFE94, symBinAddr: 0x100012280, symSize: 0x44 }
  - { offsetInCU: 0x288B6, offset: 0x288B6, size: 0x8, addend: 0x0, symName: '__ZNSt3__110unique_ptrINS_10__function6__funcIZ36brouwer_zimmerman_meet_in_the_middleRKNS_6vectorINS_4pairI6MatrixiEENS_9allocatorIS6_EEEEE3$_2NS7_ISC_EEFvNS3_IbNS7_IbEEEEEEENS_22__allocator_destructorINS7_ISH_EEEEED1B8ue170006Ev', symObjAddr: 0xFED8, symBinAddr: 0x1000122C4, symSize: 0x2C }
  - { offsetInCU: 0x288E0, offset: 0x288E0, size: 0x8, addend: 0x0, symName: '__ZNKSt3__117__compressed_pairIZ36brouwer_zimmerman_meet_in_the_middleRKNS_6vectorINS_4pairI6MatrixiEENS_9allocatorIS4_EEEEE3$_2NS5_ISA_EEE6secondB8ue170006Ev', symObjAddr: 0xFF04, symBinAddr: 0x1000122F0, symSize: 0x24 }
  - { offsetInCU: 0x28906, offset: 0x28906, size: 0x8, addend: 0x0, symName: '__ZNKSt3__122__compressed_pair_elemINS_9allocatorIZ36brouwer_zimmerman_meet_in_the_middleRKNS_6vectorINS_4pairI6MatrixiEENS1_IS5_EEEEE3$_2EELi1ELb1EE5__getB8ue170006Ev', symObjAddr: 0xFF28, symBinAddr: 0x100012314, symSize: 0x14 }
  - { offsetInCU: 0x28937, offset: 0x28937, size: 0x8, addend: 0x0, symName: '__ZNSt3__116allocator_traitsINS_9allocatorINS_10__function6__funcIZ36brouwer_zimmerman_meet_in_the_middleRKNS_6vectorINS_4pairI6MatrixiEENS1_IS7_EEEEE3$_2NS1_ISC_EEFvNS4_IbNS1_IbEEEEEEEEEE8max_sizeB8ue170006ISI_vEEmRKSI_', symObjAddr: 0xFF3C, symBinAddr: 0x100012328, symSize: 0x24 }
  - { offsetInCU: 0x28965, offset: 0x28965, size: 0x8, addend: 0x0, symName: '__ZNKSt3__19allocatorINS_10__function6__funcIZ36brouwer_zimmerman_meet_in_the_middleRKNS_6vectorINS_4pairI6MatrixiEENS0_IS6_EEEEE3$_2NS0_ISB_EEFvNS3_IbNS0_IbEEEEEEEE8max_sizeB8ue170006Ev', symObjAddr: 0xFF60, symBinAddr: 0x10001234C, symSize: 0x18 }
  - { offsetInCU: 0x2898B, offset: 0x2898B, size: 0x8, addend: 0x0, symName: '__ZNSt3__122__allocator_destructorINS_9allocatorINS_10__function6__funcIZ36brouwer_zimmerman_meet_in_the_middleRKNS_6vectorINS_4pairI6MatrixiEENS1_IS7_EEEEE3$_2NS1_ISC_EEFvNS4_IbNS1_IbEEEEEEEEEEC2B8ue170006ERSI_m', symObjAddr: 0xFF78, symBinAddr: 0x100012364, symSize: 0x2C }
  - { offsetInCU: 0x289D1, offset: 0x289D1, size: 0x8, addend: 0x0, symName: '__ZNSt3__110unique_ptrINS_10__function6__funcIZ36brouwer_zimmerman_meet_in_the_middleRKNS_6vectorINS_4pairI6MatrixiEENS_9allocatorIS6_EEEEE3$_2NS7_ISC_EEFvNS3_IbNS7_IbEEEEEEENS_22__allocator_destructorINS7_ISH_EEEEEC2B8ue170006ILb1EvEEPSH_NS_16__dependent_typeINS_27__unique_ptr_deleter_sfinaeISK_EEXT_EE20__good_rval_ref_typeE', symObjAddr: 0xFFA4, symBinAddr: 0x100012390, symSize: 0x48 }
  - { offsetInCU: 0x28A22, offset: 0x28A22, size: 0x8, addend: 0x0, symName: '__ZNSt3__117__compressed_pairIPNS_10__function6__funcIZ36brouwer_zimmerman_meet_in_the_middleRKNS_6vectorINS_4pairI6MatrixiEENS_9allocatorIS6_EEEEE3$_2NS7_ISC_EEFvNS3_IbNS7_IbEEEEEEENS_22__allocator_destructorINS7_ISH_EEEEEC1B8ue170006IRSI_SL_EEOT_OT0_', symObjAddr: 0xFFEC, symBinAddr: 0x1000123D8, symSize: 0x3C }
  - { offsetInCU: 0x28A7A, offset: 0x28A7A, size: 0x8, addend: 0x0, symName: '__ZNSt3__117__compressed_pairIPNS_10__function6__funcIZ36brouwer_zimmerman_meet_in_the_middleRKNS_6vectorINS_4pairI6MatrixiEENS_9allocatorIS6_EEEEE3$_2NS7_ISC_EEFvNS3_IbNS7_IbEEEEEEENS_22__allocator_destructorINS7_ISH_EEEEEC2B8ue170006IRSI_SL_EEOT_OT0_', symObjAddr: 0x10028, symBinAddr: 0x100012414, symSize: 0x48 }
  - { offsetInCU: 0x28AD2, offset: 0x28AD2, size: 0x8, addend: 0x0, symName: '__ZNSt3__122__compressed_pair_elemIPNS_10__function6__funcIZ36brouwer_zimmerman_meet_in_the_middleRKNS_6vectorINS_4pairI6MatrixiEENS_9allocatorIS6_EEEEE3$_2NS7_ISC_EEFvNS3_IbNS7_IbEEEEEEELi0ELb0EEC2B8ue170006IRSI_vEEOT_', symObjAddr: 0x10070, symBinAddr: 0x10001245C, symSize: 0x24 }
  - { offsetInCU: 0x28B14, offset: 0x28B14, size: 0x8, addend: 0x0, symName: '__ZNSt3__122__compressed_pair_elemINS_22__allocator_destructorINS_9allocatorINS_10__function6__funcIZ36brouwer_zimmerman_meet_in_the_middleRKNS_6vectorINS_4pairI6MatrixiEENS2_IS8_EEEEE3$_2NS2_ISD_EEFvNS5_IbNS2_IbEEEEEEEEEEELi1ELb0EEC2B8ue170006ISK_vEEOT_', symObjAddr: 0x10094, symBinAddr: 0x100012480, symSize: 0x24 }
  - { offsetInCU: 0x28B56, offset: 0x28B56, size: 0x8, addend: 0x0, symName: '__ZNKSt3__117__compressed_pairIPNS_10__function6__funcIZ36brouwer_zimmerman_meet_in_the_middleRKNS_6vectorINS_4pairI6MatrixiEENS_9allocatorIS6_EEEEE3$_2NS7_ISC_EEFvNS3_IbNS7_IbEEEEEEENS_22__allocator_destructorINS7_ISH_EEEEE5firstB8ue170006Ev', symObjAddr: 0x100B8, symBinAddr: 0x1000124A4, symSize: 0x24 }
  - { offsetInCU: 0x28B7C, offset: 0x28B7C, size: 0x8, addend: 0x0, symName: '__ZNKSt3__122__compressed_pair_elemIPNS_10__function6__funcIZ36brouwer_zimmerman_meet_in_the_middleRKNS_6vectorINS_4pairI6MatrixiEENS_9allocatorIS6_EEEEE3$_2NS7_ISC_EEFvNS3_IbNS7_IbEEEEEEELi0ELb0EE5__getB8ue170006Ev', symObjAddr: 0x100DC, symBinAddr: 0x1000124C8, symSize: 0x14 }
  - { offsetInCU: 0x28BA2, offset: 0x28BA2, size: 0x8, addend: 0x0, symName: '__ZNKSt3__117__compressed_pairIZ36brouwer_zimmerman_meet_in_the_middleRKNS_6vectorINS_4pairI6MatrixiEENS_9allocatorIS4_EEEEE3$_2NS5_ISA_EEE5firstB8ue170006Ev', symObjAddr: 0x100F0, symBinAddr: 0x1000124DC, symSize: 0x24 }
  - { offsetInCU: 0x28BC8, offset: 0x28BC8, size: 0x8, addend: 0x0, symName: '__ZNKSt3__122__compressed_pair_elemIZ36brouwer_zimmerman_meet_in_the_middleRKNS_6vectorINS_4pairI6MatrixiEENS_9allocatorIS4_EEEEE3$_2Li0ELb0EE5__getB8ue170006Ev', symObjAddr: 0x10114, symBinAddr: 0x100012500, symSize: 0x14 }
  - { offsetInCU: 0x28BEE, offset: 0x28BEE, size: 0x8, addend: 0x0, symName: '__ZNSt3__110__function6__funcIZ36brouwer_zimmerman_meet_in_the_middleRKNS_6vectorINS_4pairI6MatrixiEENS_9allocatorIS5_EEEEE3$_2NS6_ISB_EEFvNS2_IbNS6_IbEEEEEEC2B8ue170006ERKSB_OSC_', symObjAddr: 0x10128, symBinAddr: 0x100012514, symSize: 0x88 }
  - { offsetInCU: 0x28C36, offset: 0x28C36, size: 0x8, addend: 0x0, symName: '__ZNSt3__110__function12__alloc_funcIZ36brouwer_zimmerman_meet_in_the_middleRKNS_6vectorINS_4pairI6MatrixiEENS_9allocatorIS5_EEEEE3$_2NS6_ISB_EEFvNS2_IbNS6_IbEEEEEEC1B8ue170006ERKSB_OSC_', symObjAddr: 0x101B0, symBinAddr: 0x10001259C, symSize: 0x3C }
  - { offsetInCU: 0x28C7C, offset: 0x28C7C, size: 0x8, addend: 0x0, symName: '__ZNSt3__110__function12__alloc_funcIZ36brouwer_zimmerman_meet_in_the_middleRKNS_6vectorINS_4pairI6MatrixiEENS_9allocatorIS5_EEEEE3$_2NS6_ISB_EEFvNS2_IbNS6_IbEEEEEEC2B8ue170006ERKSB_OSC_', symObjAddr: 0x101EC, symBinAddr: 0x1000125D8, symSize: 0x5C }
  - { offsetInCU: 0x28CC2, offset: 0x28CC2, size: 0x8, addend: 0x0, symName: '__ZNSt3__117__compressed_pairIZ36brouwer_zimmerman_meet_in_the_middleRKNS_6vectorINS_4pairI6MatrixiEENS_9allocatorIS4_EEEEE3$_2NS5_ISA_EEEC1B8ue170006IJRKSA_EJOSB_EEENS_21piecewise_construct_tENS_5tupleIJDpT_EEENSI_IJDpT0_EEE', symObjAddr: 0x10274, symBinAddr: 0x100012660, symSize: 0x3C }
  - { offsetInCU: 0x28D2C, offset: 0x28D2C, size: 0x8, addend: 0x0, symName: '__ZNSt3__15tupleIJRKZ36brouwer_zimmerman_meet_in_the_middleRKNS_6vectorINS_4pairI6MatrixiEENS_9allocatorIS4_EEEEE3$_2EEC1B8ue170006INS_4_AndELi0EEESC_', symObjAddr: 0x102B0, symBinAddr: 0x10001269C, symSize: 0x34 }
  - { offsetInCU: 0x28D74, offset: 0x28D74, size: 0x8, addend: 0x0, symName: '__ZNSt3__15tupleIJRKZ36brouwer_zimmerman_meet_in_the_middleRKNS_6vectorINS_4pairI6MatrixiEENS_9allocatorIS4_EEEEE3$_2EEC2B8ue170006INS_4_AndELi0EEESC_', symObjAddr: 0x102E4, symBinAddr: 0x1000126D0, symSize: 0x34 }
  - { offsetInCU: 0x28DBC, offset: 0x28DBC, size: 0x8, addend: 0x0, symName: '__ZNSt3__112__tuple_implINS_15__tuple_indicesIJLm0EEEEJRKZ36brouwer_zimmerman_meet_in_the_middleRKNS_6vectorINS_4pairI6MatrixiEENS_9allocatorIS6_EEEEE3$_2EEC1B8ue170006IJLm0EEJSE_EJEJEJSE_EEENS1_IJXspT_EEEENS_13__tuple_typesIJDpT0_EEENS1_IJXspT1_EEEENSI_IJDpT2_EEEDpOT3_', symObjAddr: 0x10318, symBinAddr: 0x100012704, symSize: 0x34 }
  - { offsetInCU: 0x28E51, offset: 0x28E51, size: 0x8, addend: 0x0, symName: '__ZNSt3__112__tuple_implINS_15__tuple_indicesIJLm0EEEEJRKZ36brouwer_zimmerman_meet_in_the_middleRKNS_6vectorINS_4pairI6MatrixiEENS_9allocatorIS6_EEEEE3$_2EEC2B8ue170006IJLm0EEJSE_EJEJEJSE_EEENS1_IJXspT_EEEENS_13__tuple_typesIJDpT0_EEENS1_IJXspT1_EEEENSI_IJDpT2_EEEDpOT3_', symObjAddr: 0x1034C, symBinAddr: 0x100012738, symSize: 0x34 }
  - { offsetInCU: 0x28EE6, offset: 0x28EE6, size: 0x8, addend: 0x0, symName: '__ZNSt3__112__tuple_leafILm0ERKZ36brouwer_zimmerman_meet_in_the_middleRKNS_6vectorINS_4pairI6MatrixiEENS_9allocatorIS4_EEEEE3$_2Lb0EEC2B8ue170006ISC_vEEOT_', symObjAddr: 0x10380, symBinAddr: 0x10001276C, symSize: 0x20 }
  - { offsetInCU: 0x28F29, offset: 0x28F29, size: 0x8, addend: 0x0, symName: '__ZNSt3__117__compressed_pairIZ36brouwer_zimmerman_meet_in_the_middleRKNS_6vectorINS_4pairI6MatrixiEENS_9allocatorIS4_EEEEE3$_2NS5_ISA_EEEC2B8ue170006IJRKSA_EJOSB_EEENS_21piecewise_construct_tENS_5tupleIJDpT_EEENSI_IJDpT0_EEE', symObjAddr: 0x103A0, symBinAddr: 0x10001278C, symSize: 0x54 }
  - { offsetInCU: 0x28F93, offset: 0x28F93, size: 0x8, addend: 0x0, symName: '__ZNSt3__122__compressed_pair_elemIZ36brouwer_zimmerman_meet_in_the_middleRKNS_6vectorINS_4pairI6MatrixiEENS_9allocatorIS4_EEEEE3$_2Li0ELb0EEC2B8ue170006IJRKSA_EJLm0EEEENS_21piecewise_construct_tENS_5tupleIJDpT_EEENS_15__tuple_indicesIJXspT0_EEEE', symObjAddr: 0x103F4, symBinAddr: 0x1000127E0, symSize: 0x44 }
  - { offsetInCU: 0x28FF6, offset: 0x28FF6, size: 0x8, addend: 0x0, symName: '__ZNSt3__112__tuple_leafILm0ERKZ36brouwer_zimmerman_meet_in_the_middleRKNS_6vectorINS_4pairI6MatrixiEENS_9allocatorIS4_EEEEE3$_2Lb0EE3getB8ue170006Ev', symObjAddr: 0x1045C, symBinAddr: 0x100012848, symSize: 0x18 }
  - { offsetInCU: 0x2901C, offset: 0x2901C, size: 0x8, addend: 0x0, symName: '__ZNSt3__117__compressed_pairIPNS_10__function6__funcIZ36brouwer_zimmerman_meet_in_the_middleRKNS_6vectorINS_4pairI6MatrixiEENS_9allocatorIS6_EEEEE3$_2NS7_ISC_EEFvNS3_IbNS7_IbEEEEEEENS_22__allocator_destructorINS7_ISH_EEEEE5firstB8ue170006Ev', symObjAddr: 0x10474, symBinAddr: 0x100012860, symSize: 0x24 }
  - { offsetInCU: 0x29042, offset: 0x29042, size: 0x8, addend: 0x0, symName: '__ZNSt3__122__compressed_pair_elemIPNS_10__function6__funcIZ36brouwer_zimmerman_meet_in_the_middleRKNS_6vectorINS_4pairI6MatrixiEENS_9allocatorIS6_EEEEE3$_2NS7_ISC_EEFvNS3_IbNS7_IbEEEEEEELi0ELb0EE5__getB8ue170006Ev', symObjAddr: 0x10498, symBinAddr: 0x100012884, symSize: 0x14 }
  - { offsetInCU: 0x29068, offset: 0x29068, size: 0x8, addend: 0x0, symName: '__ZNSt3__110unique_ptrINS_10__function6__funcIZ36brouwer_zimmerman_meet_in_the_middleRKNS_6vectorINS_4pairI6MatrixiEENS_9allocatorIS6_EEEEE3$_2NS7_ISC_EEFvNS3_IbNS7_IbEEEEEEENS_22__allocator_destructorINS7_ISH_EEEEED2B8ue170006Ev', symObjAddr: 0x104AC, symBinAddr: 0x100012898, symSize: 0x30 }
  - { offsetInCU: 0x29092, offset: 0x29092, size: 0x8, addend: 0x0, symName: '__ZNSt3__110unique_ptrINS_10__function6__funcIZ36brouwer_zimmerman_meet_in_the_middleRKNS_6vectorINS_4pairI6MatrixiEENS_9allocatorIS6_EEEEE3$_2NS7_ISC_EEFvNS3_IbNS7_IbEEEEEEENS_22__allocator_destructorINS7_ISH_EEEEE5resetB8ue170006EPSH_', symObjAddr: 0x104DC, symBinAddr: 0x1000128C8, symSize: 0x78 }
  - { offsetInCU: 0x290D6, offset: 0x290D6, size: 0x8, addend: 0x0, symName: '__ZNSt3__117__compressed_pairIPNS_10__function6__funcIZ36brouwer_zimmerman_meet_in_the_middleRKNS_6vectorINS_4pairI6MatrixiEENS_9allocatorIS6_EEEEE3$_2NS7_ISC_EEFvNS3_IbNS7_IbEEEEEEENS_22__allocator_destructorINS7_ISH_EEEEE6secondB8ue170006Ev', symObjAddr: 0x10554, symBinAddr: 0x100012940, symSize: 0x28 }
  - { offsetInCU: 0x290FC, offset: 0x290FC, size: 0x8, addend: 0x0, symName: '__ZNSt3__122__allocator_destructorINS_9allocatorINS_10__function6__funcIZ36brouwer_zimmerman_meet_in_the_middleRKNS_6vectorINS_4pairI6MatrixiEENS1_IS7_EEEEE3$_2NS1_ISC_EEFvNS4_IbNS1_IbEEEEEEEEEEclB8ue170006EPSH_', symObjAddr: 0x1057C, symBinAddr: 0x100012968, symSize: 0x34 }
  - { offsetInCU: 0x29130, offset: 0x29130, size: 0x8, addend: 0x0, symName: '__ZNSt3__122__compressed_pair_elemINS_22__allocator_destructorINS_9allocatorINS_10__function6__funcIZ36brouwer_zimmerman_meet_in_the_middleRKNS_6vectorINS_4pairI6MatrixiEENS2_IS8_EEEEE3$_2NS2_ISD_EEFvNS5_IbNS2_IbEEEEEEEEEEELi1ELb0EE5__getB8ue170006Ev', symObjAddr: 0x105B0, symBinAddr: 0x10001299C, symSize: 0x14 }
  - { offsetInCU: 0x29156, offset: 0x29156, size: 0x8, addend: 0x0, symName: '__ZNSt3__116allocator_traitsINS_9allocatorINS_10__function6__funcIZ36brouwer_zimmerman_meet_in_the_middleRKNS_6vectorINS_4pairI6MatrixiEENS1_IS7_EEEEE3$_2NS1_ISC_EEFvNS4_IbNS1_IbEEEEEEEEEE10deallocateB8ue170006ERSI_PSH_m', symObjAddr: 0x105C4, symBinAddr: 0x1000129B0, symSize: 0x34 }
  - { offsetInCU: 0x29198, offset: 0x29198, size: 0x8, addend: 0x0, symName: '__ZNSt3__19allocatorINS_10__function6__funcIZ36brouwer_zimmerman_meet_in_the_middleRKNS_6vectorINS_4pairI6MatrixiEENS0_IS6_EEEEE3$_2NS0_ISB_EEFvNS3_IbNS0_IbEEEEEEEE10deallocateB8ue170006EPSG_m', symObjAddr: 0x105F8, symBinAddr: 0x1000129E4, symSize: 0x44 }
  - { offsetInCU: 0x291DA, offset: 0x291DA, size: 0x8, addend: 0x0, symName: '__ZNSt3__110__function6__funcIZ36brouwer_zimmerman_meet_in_the_middleRKNS_6vectorINS_4pairI6MatrixiEENS_9allocatorIS5_EEEEE3$_2NS6_ISB_EEFvNS2_IbNS6_IbEEEEEEC1B8ue170006ERKSB_RKSC_', symObjAddr: 0x1063C, symBinAddr: 0x100012A28, symSize: 0x3C }
  - { offsetInCU: 0x29222, offset: 0x29222, size: 0x8, addend: 0x0, symName: '__ZNSt3__110__function6__funcIZ36brouwer_zimmerman_meet_in_the_middleRKNS_6vectorINS_4pairI6MatrixiEENS_9allocatorIS5_EEEEE3$_2NS6_ISB_EEFvNS2_IbNS6_IbEEEEEEC2B8ue170006ERKSB_RKSC_', symObjAddr: 0x10678, symBinAddr: 0x100012A64, symSize: 0x88 }
  - { offsetInCU: 0x2926A, offset: 0x2926A, size: 0x8, addend: 0x0, symName: '__ZNSt3__110__function12__alloc_funcIZ36brouwer_zimmerman_meet_in_the_middleRKNS_6vectorINS_4pairI6MatrixiEENS_9allocatorIS5_EEEEE3$_2NS6_ISB_EEFvNS2_IbNS6_IbEEEEEEC1B8ue170006ERKSB_RKSC_', symObjAddr: 0x10700, symBinAddr: 0x100012AEC, symSize: 0x3C }
  - { offsetInCU: 0x292B0, offset: 0x292B0, size: 0x8, addend: 0x0, symName: '__ZNSt3__110__function12__alloc_funcIZ36brouwer_zimmerman_meet_in_the_middleRKNS_6vectorINS_4pairI6MatrixiEENS_9allocatorIS5_EEEEE3$_2NS6_ISB_EEFvNS2_IbNS6_IbEEEEEEC2B8ue170006ERKSB_RKSC_', symObjAddr: 0x1073C, symBinAddr: 0x100012B28, symSize: 0x5C }
  - { offsetInCU: 0x292F6, offset: 0x292F6, size: 0x8, addend: 0x0, symName: '__ZNSt3__117__compressed_pairIZ36brouwer_zimmerman_meet_in_the_middleRKNS_6vectorINS_4pairI6MatrixiEENS_9allocatorIS4_EEEEE3$_2NS5_ISA_EEEC1B8ue170006IJRKSA_EJRKSB_EEENS_21piecewise_construct_tENS_5tupleIJDpT_EEENSJ_IJDpT0_EEE', symObjAddr: 0x107C4, symBinAddr: 0x100012BB0, symSize: 0x3C }
  - { offsetInCU: 0x29360, offset: 0x29360, size: 0x8, addend: 0x0, symName: '__ZNSt3__15tupleIJRKNS_9allocatorIZ36brouwer_zimmerman_meet_in_the_middleRKNS_6vectorINS_4pairI6MatrixiEENS1_IS5_EEEEE3$_2EEEEC1B8ue170006INS_4_AndELi0EEESD_', symObjAddr: 0x10800, symBinAddr: 0x100012BEC, symSize: 0x34 }
  - { offsetInCU: 0x293A8, offset: 0x293A8, size: 0x8, addend: 0x0, symName: '__ZNSt3__15tupleIJRKNS_9allocatorIZ36brouwer_zimmerman_meet_in_the_middleRKNS_6vectorINS_4pairI6MatrixiEENS1_IS5_EEEEE3$_2EEEEC2B8ue170006INS_4_AndELi0EEESD_', symObjAddr: 0x10834, symBinAddr: 0x100012C20, symSize: 0x34 }
  - { offsetInCU: 0x293F0, offset: 0x293F0, size: 0x8, addend: 0x0, symName: '__ZNSt3__112__tuple_implINS_15__tuple_indicesIJLm0EEEEJRKNS_9allocatorIZ36brouwer_zimmerman_meet_in_the_middleRKNS_6vectorINS_4pairI6MatrixiEENS3_IS7_EEEEE3$_2EEEEC1B8ue170006IJLm0EEJSF_EJEJEJSF_EEENS1_IJXspT_EEEENS_13__tuple_typesIJDpT0_EEENS1_IJXspT1_EEEENSJ_IJDpT2_EEEDpOT3_', symObjAddr: 0x10868, symBinAddr: 0x100012C54, symSize: 0x34 }
  - { offsetInCU: 0x29485, offset: 0x29485, size: 0x8, addend: 0x0, symName: '__ZNSt3__112__tuple_implINS_15__tuple_indicesIJLm0EEEEJRKNS_9allocatorIZ36brouwer_zimmerman_meet_in_the_middleRKNS_6vectorINS_4pairI6MatrixiEENS3_IS7_EEEEE3$_2EEEEC2B8ue170006IJLm0EEJSF_EJEJEJSF_EEENS1_IJXspT_EEEENS_13__tuple_typesIJDpT0_EEENS1_IJXspT1_EEEENSJ_IJDpT2_EEEDpOT3_', symObjAddr: 0x1089C, symBinAddr: 0x100012C88, symSize: 0x34 }
  - { offsetInCU: 0x2951A, offset: 0x2951A, size: 0x8, addend: 0x0, symName: '__ZNSt3__112__tuple_leafILm0ERKNS_9allocatorIZ36brouwer_zimmerman_meet_in_the_middleRKNS_6vectorINS_4pairI6MatrixiEENS1_IS5_EEEEE3$_2EELb0EEC2B8ue170006ISD_vEEOT_', symObjAddr: 0x108D0, symBinAddr: 0x100012CBC, symSize: 0x20 }
  - { offsetInCU: 0x2955D, offset: 0x2955D, size: 0x8, addend: 0x0, symName: '__ZNSt3__117__compressed_pairIZ36brouwer_zimmerman_meet_in_the_middleRKNS_6vectorINS_4pairI6MatrixiEENS_9allocatorIS4_EEEEE3$_2NS5_ISA_EEEC2B8ue170006IJRKSA_EJRKSB_EEENS_21piecewise_construct_tENS_5tupleIJDpT_EEENSJ_IJDpT0_EEE', symObjAddr: 0x108F0, symBinAddr: 0x100012CDC, symSize: 0x54 }
  - { offsetInCU: 0x295C7, offset: 0x295C7, size: 0x8, addend: 0x0, symName: '__ZNSt3__122__compressed_pair_elemINS_9allocatorIZ36brouwer_zimmerman_meet_in_the_middleRKNS_6vectorINS_4pairI6MatrixiEENS1_IS5_EEEEE3$_2EELi1ELb1EEC2B8ue170006IJRKSB_EJLm0EEEENS_21piecewise_construct_tENS_5tupleIJDpT_EEENS_15__tuple_indicesIJXspT0_EEEE', symObjAddr: 0x10944, symBinAddr: 0x100012D30, symSize: 0x38 }
  - { offsetInCU: 0x2962A, offset: 0x2962A, size: 0x8, addend: 0x0, symName: '__ZNSt3__112__tuple_leafILm0ERKNS_9allocatorIZ36brouwer_zimmerman_meet_in_the_middleRKNS_6vectorINS_4pairI6MatrixiEENS1_IS5_EEEEE3$_2EELb0EE3getB8ue170006Ev', symObjAddr: 0x109A0, symBinAddr: 0x100012D8C, symSize: 0x18 }
  - { offsetInCU: 0x29650, offset: 0x29650, size: 0x8, addend: 0x0, symName: '__ZNSt3__110__function12__alloc_funcIZ36brouwer_zimmerman_meet_in_the_middleRKNS_6vectorINS_4pairI6MatrixiEENS_9allocatorIS5_EEEEE3$_2NS6_ISB_EEFvNS2_IbNS6_IbEEEEEE7destroyB8ue170006Ev', symObjAddr: 0x109B8, symBinAddr: 0x100012DA4, symSize: 0x10 }
  - { offsetInCU: 0x29676, offset: 0x29676, size: 0x8, addend: 0x0, symName: '__ZNSt3__110__function12__alloc_funcIZ36brouwer_zimmerman_meet_in_the_middleRKNS_6vectorINS_4pairI6MatrixiEENS_9allocatorIS5_EEEEE3$_2NS6_ISB_EEFvNS2_IbNS6_IbEEEEEEclB8ue170006EOSE_', symObjAddr: 0x109C8, symBinAddr: 0x100012DB4, symSize: 0x30 }
  - { offsetInCU: 0x296AA, offset: 0x296AA, size: 0x8, addend: 0x0, symName: '__ZNSt3__128__invoke_void_return_wrapperIvLb1EE6__callB8ue170006IJRZ36brouwer_zimmerman_meet_in_the_middleRKNS_6vectorINS_4pairI6MatrixiEENS_9allocatorIS6_EEEEE3$_2NS3_IbNS7_IbEEEEEEEvDpOT_', symObjAddr: 0x109F8, symBinAddr: 0x100012DE4, symSize: 0x2C }
  - { offsetInCU: 0x296ED, offset: 0x296ED, size: 0x8, addend: 0x0, symName: '__ZNSt3__117__compressed_pairIZ36brouwer_zimmerman_meet_in_the_middleRKNS_6vectorINS_4pairI6MatrixiEENS_9allocatorIS4_EEEEE3$_2NS5_ISA_EEE5firstB8ue170006Ev', symObjAddr: 0x10A24, symBinAddr: 0x100012E10, symSize: 0x24 }
  - { offsetInCU: 0x29719, offset: 0x29719, size: 0x8, addend: 0x0, symName: '__ZZ36brouwer_zimmerman_meet_in_the_middleRKNSt3__16vectorINS_4pairI6MatrixiEENS_9allocatorIS3_EEEEENK3$_2clERKNS0_IbNS4_IbEEEE', symObjAddr: 0x10A74, symBinAddr: 0x100012E60, symSize: 0x140 }
  - { offsetInCU: 0x2975F, offset: 0x2975F, size: 0x8, addend: 0x0, symName: __ZmlNSt3__16vectorIbNS_9allocatorIbEEEE6Matrix, symObjAddr: 0x10BB4, symBinAddr: 0x100012FA0, symSize: 0x2B4 }
  - { offsetInCU: 0x29884, offset: 0x29884, size: 0x8, addend: 0x0, symName: __ZNSt3__16vectorI3GF4NS_9allocatorIS1_EEE7reserveEm, symObjAddr: 0x10E94, symBinAddr: 0x100013280, symSize: 0xE8 }
  - { offsetInCU: 0x298E0, offset: 0x298E0, size: 0x8, addend: 0x0, symName: __ZNSt3__16vectorI3GF4NS_9allocatorIS1_EEE9push_backB8ue170006EOS1_, symObjAddr: 0x10F7C, symBinAddr: 0x100013368, symSize: 0x6C }
  - { offsetInCU: 0x29917, offset: 0x29917, size: 0x8, addend: 0x0, symName: __ZN3GF4C1Eb, symObjAddr: 0x10FE8, symBinAddr: 0x1000133D4, symSize: 0x40 }
  - { offsetInCU: 0x2994F, offset: 0x2994F, size: 0x8, addend: 0x0, symName: __ZNSt3__16vectorI3GF4NS_9allocatorIS1_EEE9push_backB8ue170006ERKS1_, symObjAddr: 0x11028, symBinAddr: 0x100013414, symSize: 0x6C }
  - { offsetInCU: 0x29986, offset: 0x29986, size: 0x8, addend: 0x0, symName: __ZNSt3__16vectorI3GF4NS_9allocatorIS1_EEE22__construct_one_at_endB8ue170006IJS1_EEEvDpOT_, symObjAddr: 0x11094, symBinAddr: 0x100013480, symSize: 0x90 }
  - { offsetInCU: 0x299D5, offset: 0x299D5, size: 0x8, addend: 0x0, symName: __ZNSt3__16vectorI3GF4NS_9allocatorIS1_EEE21__push_back_slow_pathIS1_EEvOT_, symObjAddr: 0x11124, symBinAddr: 0x100013510, symSize: 0xD8 }
  - { offsetInCU: 0x29A33, offset: 0x29A33, size: 0x8, addend: 0x0, symName: __ZNSt3__116allocator_traitsINS_9allocatorI3GF4EEE9constructB8ue170006IS2_JS2_EvEEvRS3_PT_DpOT0_, symObjAddr: 0x111FC, symBinAddr: 0x1000135E8, symSize: 0x34 }
  - { offsetInCU: 0x29A8A, offset: 0x29A8A, size: 0x8, addend: 0x0, symName: __ZNSt3__19allocatorI3GF4E9constructB8ue170006IS1_JS1_EEEvPT_DpOT0_, symObjAddr: 0x11230, symBinAddr: 0x10001361C, symSize: 0x28 }
  - { offsetInCU: 0x29AE0, offset: 0x29AE0, size: 0x8, addend: 0x0, symName: __ZN3GF4C2Eb, symObjAddr: 0x11258, symBinAddr: 0x100013644, symSize: 0x38 }
  - { offsetInCU: 0x29B18, offset: 0x29B18, size: 0x8, addend: 0x0, symName: __ZNSt3__16vectorI3GF4NS_9allocatorIS1_EEE22__construct_one_at_endB8ue170006IJRKS1_EEEvDpOT_, symObjAddr: 0x11290, symBinAddr: 0x10001367C, symSize: 0x90 }
  - { offsetInCU: 0x29B67, offset: 0x29B67, size: 0x8, addend: 0x0, symName: __ZNSt3__16vectorI3GF4NS_9allocatorIS1_EEE21__push_back_slow_pathIRKS1_EEvOT_, symObjAddr: 0x11320, symBinAddr: 0x10001370C, symSize: 0xD8 }
  - { offsetInCU: 0x29BC5, offset: 0x29BC5, size: 0x8, addend: 0x0, symName: __ZNSt3__116allocator_traitsINS_9allocatorI3GF4EEE9constructB8ue170006IS2_JRKS2_EvEEvRS3_PT_DpOT0_, symObjAddr: 0x113F8, symBinAddr: 0x1000137E4, symSize: 0x34 }
  - { offsetInCU: 0x29C1C, offset: 0x29C1C, size: 0x8, addend: 0x0, symName: __ZNSt3__19allocatorI3GF4E9constructB8ue170006IS1_JRKS1_EEEvPT_DpOT0_, symObjAddr: 0x1142C, symBinAddr: 0x100013818, symSize: 0x28 }
  - { offsetInCU: 0x29C78, offset: 0x29C78, size: 0x8, addend: 0x0, symName: __ZNKSt3__16__lessIvvEclB8ue170006IiiEEbRKT_RKT0_, symObjAddr: 0x114A8, symBinAddr: 0x100013894, symSize: 0x34 }
  - { offsetInCU: 0x29CCC, offset: 0x29CCC, size: 0x8, addend: 0x0, symName: '__ZNSt3__122__compressed_pair_elemIZ36brouwer_zimmerman_meet_in_the_middleRKNS_6vectorINS_4pairI6MatrixiEENS_9allocatorIS4_EEEEE3$_2Li0ELb0EE5__getB8ue170006Ev', symObjAddr: 0x114DC, symBinAddr: 0x1000138C8, symSize: 0x14 }
  - { offsetInCU: 0x29CF2, offset: 0x29CF2, size: 0x8, addend: 0x0, symName: __ZNSt3__18functionIFvNS_6vectorIbNS_9allocatorIbEEEEEED2Ev, symObjAddr: 0x114F0, symBinAddr: 0x1000138DC, symSize: 0x2C }
  - { offsetInCU: 0x29D1E, offset: 0x29D1E, size: 0x8, addend: 0x0, symName: __ZNSt3__110__function12__value_funcIFvNS_6vectorIbNS_9allocatorIbEEEEEED1B8ue170006Ev, symObjAddr: 0x1151C, symBinAddr: 0x100013908, symSize: 0x2C }
  - { offsetInCU: 0x29D48, offset: 0x29D48, size: 0x8, addend: 0x0, symName: __ZNSt3__110__function12__value_funcIFvNS_6vectorIbNS_9allocatorIbEEEEEED2B8ue170006Ev, symObjAddr: 0x11548, symBinAddr: 0x100013934, symSize: 0x90 }
  - { offsetInCU: 0x29D72, offset: 0x29D72, size: 0x8, addend: 0x0, symName: '__ZNSt3__18functionIFvNS_6vectorIbNS_9allocatorIbEEEEEEC2IZ20brute_force_distance6MatrixE3$_3vEET_', symObjAddr: 0x115D8, symBinAddr: 0x1000139C4, symSize: 0x34 }
  - { offsetInCU: 0x29DB8, offset: 0x29DB8, size: 0x8, addend: 0x0, symName: '__ZNSt3__110__function12__value_funcIFvNS_6vectorIbNS_9allocatorIbEEEEEEC1B8ue170006IZ20brute_force_distance6MatrixE3$_3vEEOT_', symObjAddr: 0x1160C, symBinAddr: 0x1000139F8, symSize: 0x50 }
  - { offsetInCU: 0x29DFB, offset: 0x29DFB, size: 0x8, addend: 0x0, symName: '__ZNSt3__19allocatorIZ20brute_force_distance6MatrixE3$_3EC1B8ue170006Ev', symObjAddr: 0x1165C, symBinAddr: 0x100013A48, symSize: 0x2C }
  - { offsetInCU: 0x29E25, offset: 0x29E25, size: 0x8, addend: 0x0, symName: '__ZNSt3__110__function12__value_funcIFvNS_6vectorIbNS_9allocatorIbEEEEEEC1B8ue170006IZ20brute_force_distance6MatrixE3$_3NS3_ISA_EEEEOT_RKT0_', symObjAddr: 0x11688, symBinAddr: 0x100013A74, symSize: 0x3C }
  - { offsetInCU: 0x29E7F, offset: 0x29E7F, size: 0x8, addend: 0x0, symName: '__ZNSt3__19allocatorIZ20brute_force_distance6MatrixE3$_3EC2B8ue170006Ev', symObjAddr: 0x116C4, symBinAddr: 0x100013AB0, symSize: 0x2C }
  - { offsetInCU: 0x29EA9, offset: 0x29EA9, size: 0x8, addend: 0x0, symName: '__ZNSt3__116__non_trivial_ifILb1ENS_9allocatorIZ20brute_force_distance6MatrixE3$_3EEEC2B8ue170006Ev', symObjAddr: 0x116F0, symBinAddr: 0x100013ADC, symSize: 0x14 }
  - { offsetInCU: 0x29ED3, offset: 0x29ED3, size: 0x8, addend: 0x0, symName: '__ZNSt3__110__function12__value_funcIFvNS_6vectorIbNS_9allocatorIbEEEEEEC2B8ue170006IZ20brute_force_distance6MatrixE3$_3NS3_ISA_EEEEOT_RKT0_', symObjAddr: 0x11704, symBinAddr: 0x100013AF0, symSize: 0xF4 }
  - { offsetInCU: 0x29F8C, offset: 0x29F8C, size: 0x8, addend: 0x0, symName: '__ZNSt3__19allocatorINS_10__function6__funcIZ20brute_force_distance6MatrixE3$_3NS0_IS4_EEFvNS_6vectorIbNS0_IbEEEEEEEEC1B8ue170006IS4_EERKNS0_IT_EE', symObjAddr: 0x11810, symBinAddr: 0x100013BFC, symSize: 0x34 }
  - { offsetInCU: 0x29FC9, offset: 0x29FC9, size: 0x8, addend: 0x0, symName: '__ZNSt3__19allocatorINS_10__function6__funcIZ20brute_force_distance6MatrixE3$_3NS0_IS4_EEFvNS_6vectorIbNS0_IbEEEEEEEE8allocateB8ue170006Em', symObjAddr: 0x11844, symBinAddr: 0x100013C30, symSize: 0x58 }
  - { offsetInCU: 0x2A00F, offset: 0x2A00F, size: 0x8, addend: 0x0, symName: '__ZNSt3__122__allocator_destructorINS_9allocatorINS_10__function6__funcIZ20brute_force_distance6MatrixE3$_3NS1_IS5_EEFvNS_6vectorIbNS1_IbEEEEEEEEEEC1B8ue170006ERSC_m', symObjAddr: 0x1189C, symBinAddr: 0x100013C88, symSize: 0x3C }
  - { offsetInCU: 0x2A0F6, offset: 0x2A0F6, size: 0x8, addend: 0x0, symName: '__ZNSt3__110unique_ptrINS_10__function6__baseIFvNS_6vectorIbNS_9allocatorIbEEEEEEENS_22__allocator_destructorINS4_INS1_6__funcIZ20brute_force_distance6MatrixE3$_3NS4_ISC_EES7_EEEEEEEC1B8ue170006ILb1EvEEPSE_NS_16__dependent_typeINS_27__unique_ptr_deleter_sfinaeISG_EEXT_EE20__good_rval_ref_typeE', symObjAddr: 0x118D8, symBinAddr: 0x100013CC4, symSize: 0x3C }
  - { offsetInCU: 0x2A147, offset: 0x2A147, size: 0x8, addend: 0x0, symName: '__ZNKSt3__110unique_ptrINS_10__function6__baseIFvNS_6vectorIbNS_9allocatorIbEEEEEEENS_22__allocator_destructorINS4_INS1_6__funcIZ20brute_force_distance6MatrixE3$_3NS4_ISC_EES7_EEEEEEE3getB8ue170006Ev', symObjAddr: 0x11914, symBinAddr: 0x100013D00, symSize: 0x28 }
  - { offsetInCU: 0x2A16D, offset: 0x2A16D, size: 0x8, addend: 0x0, symName: '__ZNSt3__110__function6__funcIZ20brute_force_distance6MatrixE3$_3NS_9allocatorIS3_EEFvNS_6vectorIbNS4_IbEEEEEEC1B8ue170006EOS3_OS5_', symObjAddr: 0x1193C, symBinAddr: 0x100013D28, symSize: 0x3C }
  - { offsetInCU: 0x2A1B5, offset: 0x2A1B5, size: 0x8, addend: 0x0, symName: '__ZNSt3__110unique_ptrINS_10__function6__baseIFvNS_6vectorIbNS_9allocatorIbEEEEEEENS_22__allocator_destructorINS4_INS1_6__funcIZ20brute_force_distance6MatrixE3$_3NS4_ISC_EES7_EEEEEEE7releaseB8ue170006Ev', symObjAddr: 0x11978, symBinAddr: 0x100013D64, symSize: 0x44 }
  - { offsetInCU: 0x2A1EA, offset: 0x2A1EA, size: 0x8, addend: 0x0, symName: '__ZNSt3__110unique_ptrINS_10__function6__baseIFvNS_6vectorIbNS_9allocatorIbEEEEEEENS_22__allocator_destructorINS4_INS1_6__funcIZ20brute_force_distance6MatrixE3$_3NS4_ISC_EES7_EEEEEEED1B8ue170006Ev', symObjAddr: 0x119BC, symBinAddr: 0x100013DA8, symSize: 0x2C }
  - { offsetInCU: 0x2A214, offset: 0x2A214, size: 0x8, addend: 0x0, symName: '__ZNSt3__19allocatorINS_10__function6__funcIZ20brute_force_distance6MatrixE3$_3NS0_IS4_EEFvNS_6vectorIbNS0_IbEEEEEEEEC2B8ue170006IS4_EERKNS0_IT_EE', symObjAddr: 0x119E8, symBinAddr: 0x100013DD4, symSize: 0x30 }
  - { offsetInCU: 0x2A251, offset: 0x2A251, size: 0x8, addend: 0x0, symName: '__ZNSt3__116__non_trivial_ifILb1ENS_9allocatorINS_10__function6__funcIZ20brute_force_distance6MatrixE3$_3NS1_IS5_EEFvNS_6vectorIbNS1_IbEEEEEEEEEEC2B8ue170006Ev', symObjAddr: 0x11A18, symBinAddr: 0x100013E04, symSize: 0x14 }
  - { offsetInCU: 0x2A286, offset: 0x2A286, size: 0x8, addend: 0x0, symName: '__ZNSt3__116allocator_traitsINS_9allocatorINS_10__function6__funcIZ20brute_force_distance6MatrixE3$_3NS1_IS5_EEFvNS_6vectorIbNS1_IbEEEEEEEEEE8max_sizeB8ue170006ISC_vEEmRKSC_', symObjAddr: 0x11A2C, symBinAddr: 0x100013E18, symSize: 0x24 }
  - { offsetInCU: 0x2A2B4, offset: 0x2A2B4, size: 0x8, addend: 0x0, symName: '__ZNKSt3__19allocatorINS_10__function6__funcIZ20brute_force_distance6MatrixE3$_3NS0_IS4_EEFvNS_6vectorIbNS0_IbEEEEEEEE8max_sizeB8ue170006Ev', symObjAddr: 0x11A50, symBinAddr: 0x100013E3C, symSize: 0x14 }
  - { offsetInCU: 0x2A2DA, offset: 0x2A2DA, size: 0x8, addend: 0x0, symName: '__ZNSt3__122__allocator_destructorINS_9allocatorINS_10__function6__funcIZ20brute_force_distance6MatrixE3$_3NS1_IS5_EEFvNS_6vectorIbNS1_IbEEEEEEEEEEC2B8ue170006ERSC_m', symObjAddr: 0x11A64, symBinAddr: 0x100013E50, symSize: 0x2C }
  - { offsetInCU: 0x2A320, offset: 0x2A320, size: 0x8, addend: 0x0, symName: '__ZNSt3__110unique_ptrINS_10__function6__baseIFvNS_6vectorIbNS_9allocatorIbEEEEEEENS_22__allocator_destructorINS4_INS1_6__funcIZ20brute_force_distance6MatrixE3$_3NS4_ISC_EES7_EEEEEEEC2B8ue170006ILb1EvEEPSE_NS_16__dependent_typeINS_27__unique_ptr_deleter_sfinaeISG_EEXT_EE20__good_rval_ref_typeE', symObjAddr: 0x11A90, symBinAddr: 0x100013E7C, symSize: 0x48 }
  - { offsetInCU: 0x2A371, offset: 0x2A371, size: 0x8, addend: 0x0, symName: '__ZNSt3__117__compressed_pairIPNS_10__function6__funcIZ20brute_force_distance6MatrixE3$_3NS_9allocatorIS4_EEFvNS_6vectorIbNS5_IbEEEEEEENS_22__allocator_destructorINS5_ISB_EEEEEC1B8ue170006IRSC_SF_EEOT_OT0_', symObjAddr: 0x11AD8, symBinAddr: 0x100013EC4, symSize: 0x3C }
  - { offsetInCU: 0x2A3C9, offset: 0x2A3C9, size: 0x8, addend: 0x0, symName: '__ZNSt3__117__compressed_pairIPNS_10__function6__funcIZ20brute_force_distance6MatrixE3$_3NS_9allocatorIS4_EEFvNS_6vectorIbNS5_IbEEEEEEENS_22__allocator_destructorINS5_ISB_EEEEEC2B8ue170006IRSC_SF_EEOT_OT0_', symObjAddr: 0x11B14, symBinAddr: 0x100013F00, symSize: 0x48 }
  - { offsetInCU: 0x2A421, offset: 0x2A421, size: 0x8, addend: 0x0, symName: '__ZNSt3__122__compressed_pair_elemIPNS_10__function6__funcIZ20brute_force_distance6MatrixE3$_3NS_9allocatorIS4_EEFvNS_6vectorIbNS5_IbEEEEEEELi0ELb0EEC2B8ue170006IRSC_vEEOT_', symObjAddr: 0x11B5C, symBinAddr: 0x100013F48, symSize: 0x24 }
  - { offsetInCU: 0x2A463, offset: 0x2A463, size: 0x8, addend: 0x0, symName: '__ZNSt3__122__compressed_pair_elemINS_22__allocator_destructorINS_9allocatorINS_10__function6__funcIZ20brute_force_distance6MatrixE3$_3NS2_IS6_EEFvNS_6vectorIbNS2_IbEEEEEEEEEEELi1ELb0EEC2B8ue170006ISE_vEEOT_', symObjAddr: 0x11B80, symBinAddr: 0x100013F6C, symSize: 0x24 }
  - { offsetInCU: 0x2A4A5, offset: 0x2A4A5, size: 0x8, addend: 0x0, symName: '__ZNKSt3__117__compressed_pairIPNS_10__function6__funcIZ20brute_force_distance6MatrixE3$_3NS_9allocatorIS4_EEFvNS_6vectorIbNS5_IbEEEEEEENS_22__allocator_destructorINS5_ISB_EEEEE5firstB8ue170006Ev', symObjAddr: 0x11BA4, symBinAddr: 0x100013F90, symSize: 0x24 }
  - { offsetInCU: 0x2A4CB, offset: 0x2A4CB, size: 0x8, addend: 0x0, symName: '__ZNKSt3__122__compressed_pair_elemIPNS_10__function6__funcIZ20brute_force_distance6MatrixE3$_3NS_9allocatorIS4_EEFvNS_6vectorIbNS5_IbEEEEEEELi0ELb0EE5__getB8ue170006Ev', symObjAddr: 0x11BC8, symBinAddr: 0x100013FB4, symSize: 0x14 }
  - { offsetInCU: 0x2A4F1, offset: 0x2A4F1, size: 0x8, addend: 0x0, symName: '__ZNSt3__110__function6__funcIZ20brute_force_distance6MatrixE3$_3NS_9allocatorIS3_EEFvNS_6vectorIbNS4_IbEEEEEEC2B8ue170006EOS3_OS5_', symObjAddr: 0x11BDC, symBinAddr: 0x100013FC8, symSize: 0x88 }
  - { offsetInCU: 0x2A539, offset: 0x2A539, size: 0x8, addend: 0x0, symName: '__ZNSt3__110__function12__alloc_funcIZ20brute_force_distance6MatrixE3$_3NS_9allocatorIS3_EEFvNS_6vectorIbNS4_IbEEEEEEC1B8ue170006EOS3_OS5_', symObjAddr: 0x11C64, symBinAddr: 0x100014050, symSize: 0x3C }
  - { offsetInCU: 0x2A57F, offset: 0x2A57F, size: 0x8, addend: 0x0, symName: '__ZNSt3__110__function6__funcIZ20brute_force_distance6MatrixE3$_3NS_9allocatorIS3_EEFvNS_6vectorIbNS4_IbEEEEEED1Ev', symObjAddr: 0x11CA0, symBinAddr: 0x10001408C, symSize: 0x2C }
  - { offsetInCU: 0x2A5AC, offset: 0x2A5AC, size: 0x8, addend: 0x0, symName: '__ZNSt3__110__function6__funcIZ20brute_force_distance6MatrixE3$_3NS_9allocatorIS3_EEFvNS_6vectorIbNS4_IbEEEEEED0Ev', symObjAddr: 0x11CCC, symBinAddr: 0x1000140B8, symSize: 0x30 }
  - { offsetInCU: 0x2A5D9, offset: 0x2A5D9, size: 0x8, addend: 0x0, symName: '__ZNKSt3__110__function6__funcIZ20brute_force_distance6MatrixE3$_3NS_9allocatorIS3_EEFvNS_6vectorIbNS4_IbEEEEEE7__cloneEv', symObjAddr: 0x11CFC, symBinAddr: 0x1000140E8, symSize: 0xFC }
  - { offsetInCU: 0x2A62B, offset: 0x2A62B, size: 0x8, addend: 0x0, symName: '__ZNKSt3__110__function6__funcIZ20brute_force_distance6MatrixE3$_3NS_9allocatorIS3_EEFvNS_6vectorIbNS4_IbEEEEEE7__cloneEPNS0_6__baseIS9_EE', symObjAddr: 0x11DF8, symBinAddr: 0x1000141E4, symSize: 0x58 }
  - { offsetInCU: 0x2A662, offset: 0x2A662, size: 0x8, addend: 0x0, symName: '__ZNSt3__110__function6__funcIZ20brute_force_distance6MatrixE3$_3NS_9allocatorIS3_EEFvNS_6vectorIbNS4_IbEEEEEE7destroyEv', symObjAddr: 0x11E50, symBinAddr: 0x10001423C, symSize: 0x28 }
  - { offsetInCU: 0x2A68A, offset: 0x2A68A, size: 0x8, addend: 0x0, symName: '__ZNSt3__110__function6__funcIZ20brute_force_distance6MatrixE3$_3NS_9allocatorIS3_EEFvNS_6vectorIbNS4_IbEEEEEE18destroy_deallocateEv', symObjAddr: 0x11E78, symBinAddr: 0x100014264, symSize: 0x58 }
  - { offsetInCU: 0x2A6CD, offset: 0x2A6CD, size: 0x8, addend: 0x0, symName: '__ZNSt3__110__function6__funcIZ20brute_force_distance6MatrixE3$_3NS_9allocatorIS3_EEFvNS_6vectorIbNS4_IbEEEEEEclEOS8_', symObjAddr: 0x11ED0, symBinAddr: 0x1000142BC, symSize: 0x30 }
  - { offsetInCU: 0x2A704, offset: 0x2A704, size: 0x8, addend: 0x0, symName: '__ZNKSt3__110__function6__funcIZ20brute_force_distance6MatrixE3$_3NS_9allocatorIS3_EEFvNS_6vectorIbNS4_IbEEEEEE6targetERKSt9type_info', symObjAddr: 0x11F00, symBinAddr: 0x1000142EC, symSize: 0x60 }
  - { offsetInCU: 0x2A73B, offset: 0x2A73B, size: 0x8, addend: 0x0, symName: '__ZNKSt3__110__function6__funcIZ20brute_force_distance6MatrixE3$_3NS_9allocatorIS3_EEFvNS_6vectorIbNS4_IbEEEEEE11target_typeEv', symObjAddr: 0x11F60, symBinAddr: 0x10001434C, symSize: 0x18 }
  - { offsetInCU: 0x2A763, offset: 0x2A763, size: 0x8, addend: 0x0, symName: '__ZNSt3__110__function12__alloc_funcIZ20brute_force_distance6MatrixE3$_3NS_9allocatorIS3_EEFvNS_6vectorIbNS4_IbEEEEEEC2B8ue170006EOS3_OS5_', symObjAddr: 0x11F78, symBinAddr: 0x100014364, symSize: 0x5C }
  - { offsetInCU: 0x2A7A9, offset: 0x2A7A9, size: 0x8, addend: 0x0, symName: '__ZNSt3__117__compressed_pairIZ20brute_force_distance6MatrixE3$_3NS_9allocatorIS2_EEEC1B8ue170006IJOS2_EJOS4_EEENS_21piecewise_construct_tENS_5tupleIJDpT_EEENSA_IJDpT0_EEE', symObjAddr: 0x1202C, symBinAddr: 0x100014418, symSize: 0x3C }
  - { offsetInCU: 0x2A813, offset: 0x2A813, size: 0x8, addend: 0x0, symName: '__ZNSt3__15tupleIJOZ20brute_force_distance6MatrixE3$_3EEC1B8ue170006IJS2_ELi0EEEDpOT_', symObjAddr: 0x12068, symBinAddr: 0x100014454, symSize: 0x34 }
  - { offsetInCU: 0x2A85D, offset: 0x2A85D, size: 0x8, addend: 0x0, symName: '__ZNSt3__15tupleIJOZ20brute_force_distance6MatrixE3$_3EEC2B8ue170006IJS2_ELi0EEEDpOT_', symObjAddr: 0x1209C, symBinAddr: 0x100014488, symSize: 0x34 }
  - { offsetInCU: 0x2A8A7, offset: 0x2A8A7, size: 0x8, addend: 0x0, symName: '__ZNSt3__112__tuple_implINS_15__tuple_indicesIJLm0EEEEJOZ20brute_force_distance6MatrixE3$_3EEC1B8ue170006IJLm0EEJS5_EJEJEJS4_EEENS1_IJXspT_EEEENS_13__tuple_typesIJDpT0_EEENS1_IJXspT1_EEEENS9_IJDpT2_EEEDpOT3_', symObjAddr: 0x120D0, symBinAddr: 0x1000144BC, symSize: 0x34 }
  - { offsetInCU: 0x2A93C, offset: 0x2A93C, size: 0x8, addend: 0x0, symName: '__ZNSt3__112__tuple_implINS_15__tuple_indicesIJLm0EEEEJOZ20brute_force_distance6MatrixE3$_3EEC2B8ue170006IJLm0EEJS5_EJEJEJS4_EEENS1_IJXspT_EEEENS_13__tuple_typesIJDpT0_EEENS1_IJXspT1_EEEENS9_IJDpT2_EEEDpOT3_', symObjAddr: 0x12104, symBinAddr: 0x1000144F0, symSize: 0x34 }
  - { offsetInCU: 0x2A9D1, offset: 0x2A9D1, size: 0x8, addend: 0x0, symName: '__ZNSt3__112__tuple_leafILm0EOZ20brute_force_distance6MatrixE3$_3Lb0EEC2B8ue170006IS2_vEEOT_', symObjAddr: 0x12138, symBinAddr: 0x100014524, symSize: 0x20 }
  - { offsetInCU: 0x2AA14, offset: 0x2AA14, size: 0x8, addend: 0x0, symName: '__ZNSt3__15tupleIJONS_9allocatorIZ20brute_force_distance6MatrixE3$_3EEEEC1B8ue170006IJS4_ELi0EEEDpOT_', symObjAddr: 0x12158, symBinAddr: 0x100014544, symSize: 0x34 }
  - { offsetInCU: 0x2AA5E, offset: 0x2AA5E, size: 0x8, addend: 0x0, symName: '__ZNSt3__15tupleIJONS_9allocatorIZ20brute_force_distance6MatrixE3$_3EEEEC2B8ue170006IJS4_ELi0EEEDpOT_', symObjAddr: 0x1218C, symBinAddr: 0x100014578, symSize: 0x34 }
  - { offsetInCU: 0x2AAA8, offset: 0x2AAA8, size: 0x8, addend: 0x0, symName: '__ZNSt3__112__tuple_implINS_15__tuple_indicesIJLm0EEEEJONS_9allocatorIZ20brute_force_distance6MatrixE3$_3EEEEC1B8ue170006IJLm0EEJS7_EJEJEJS6_EEENS1_IJXspT_EEEENS_13__tuple_typesIJDpT0_EEENS1_IJXspT1_EEEENSB_IJDpT2_EEEDpOT3_', symObjAddr: 0x121C0, symBinAddr: 0x1000145AC, symSize: 0x34 }
  - { offsetInCU: 0x2AB3D, offset: 0x2AB3D, size: 0x8, addend: 0x0, symName: '__ZNSt3__112__tuple_implINS_15__tuple_indicesIJLm0EEEEJONS_9allocatorIZ20brute_force_distance6MatrixE3$_3EEEEC2B8ue170006IJLm0EEJS7_EJEJEJS6_EEENS1_IJXspT_EEEENS_13__tuple_typesIJDpT0_EEENS1_IJXspT1_EEEENSB_IJDpT2_EEEDpOT3_', symObjAddr: 0x121F4, symBinAddr: 0x1000145E0, symSize: 0x34 }
  - { offsetInCU: 0x2ABD2, offset: 0x2ABD2, size: 0x8, addend: 0x0, symName: '__ZNSt3__112__tuple_leafILm0EONS_9allocatorIZ20brute_force_distance6MatrixE3$_3EELb0EEC2B8ue170006IS4_vEEOT_', symObjAddr: 0x12228, symBinAddr: 0x100014614, symSize: 0x20 }
  - { offsetInCU: 0x2AC15, offset: 0x2AC15, size: 0x8, addend: 0x0, symName: '__ZNSt3__117__compressed_pairIZ20brute_force_distance6MatrixE3$_3NS_9allocatorIS2_EEEC2B8ue170006IJOS2_EJOS4_EEENS_21piecewise_construct_tENS_5tupleIJDpT_EEENSA_IJDpT0_EEE', symObjAddr: 0x12248, symBinAddr: 0x100014634, symSize: 0x54 }
  - { offsetInCU: 0x2AC7F, offset: 0x2AC7F, size: 0x8, addend: 0x0, symName: '__ZNSt3__122__compressed_pair_elemIZ20brute_force_distance6MatrixE3$_3Li0ELb0EEC2B8ue170006IJOS2_EJLm0EEEENS_21piecewise_construct_tENS_5tupleIJDpT_EEENS_15__tuple_indicesIJXspT0_EEEE', symObjAddr: 0x1229C, symBinAddr: 0x100014688, symSize: 0x4C }
  - { offsetInCU: 0x2ACE2, offset: 0x2ACE2, size: 0x8, addend: 0x0, symName: '__ZNSt3__122__compressed_pair_elemINS_9allocatorIZ20brute_force_distance6MatrixE3$_3EELi1ELb1EEC2B8ue170006IJOS4_EJLm0EEEENS_21piecewise_construct_tENS_5tupleIJDpT_EEENS_15__tuple_indicesIJXspT0_EEEE', symObjAddr: 0x122E8, symBinAddr: 0x1000146D4, symSize: 0x38 }
  - { offsetInCU: 0x2AD45, offset: 0x2AD45, size: 0x8, addend: 0x0, symName: '__ZNSt3__112__tuple_leafILm0EOZ20brute_force_distance6MatrixE3$_3Lb0EE3getB8ue170006Ev', symObjAddr: 0x12344, symBinAddr: 0x100014730, symSize: 0x18 }
  - { offsetInCU: 0x2AD6B, offset: 0x2AD6B, size: 0x8, addend: 0x0, symName: '__ZNSt3__112__tuple_leafILm0EONS_9allocatorIZ20brute_force_distance6MatrixE3$_3EELb0EE3getB8ue170006Ev', symObjAddr: 0x12380, symBinAddr: 0x10001476C, symSize: 0x18 }
  - { offsetInCU: 0x2AD91, offset: 0x2AD91, size: 0x8, addend: 0x0, symName: '__ZNSt3__110__function6__funcIZ20brute_force_distance6MatrixE3$_3NS_9allocatorIS3_EEFvNS_6vectorIbNS4_IbEEEEEED2Ev', symObjAddr: 0x12398, symBinAddr: 0x100014784, symSize: 0x2C }
  - { offsetInCU: 0x2ADBE, offset: 0x2ADBE, size: 0x8, addend: 0x0, symName: '__ZNKSt3__110__function12__alloc_funcIZ20brute_force_distance6MatrixE3$_3NS_9allocatorIS3_EEFvNS_6vectorIbNS4_IbEEEEEE15__get_allocatorB8ue170006Ev', symObjAddr: 0x123C4, symBinAddr: 0x1000147B0, symSize: 0x24 }
  - { offsetInCU: 0x2AE12, offset: 0x2AE12, size: 0x8, addend: 0x0, symName: '__ZNSt3__110unique_ptrINS_10__function6__funcIZ20brute_force_distance6MatrixE3$_3NS_9allocatorIS4_EEFvNS_6vectorIbNS5_IbEEEEEEENS_22__allocator_destructorINS5_ISB_EEEEEC1B8ue170006ILb1EvEEPSB_NS_16__dependent_typeINS_27__unique_ptr_deleter_sfinaeISE_EEXT_EE20__good_rval_ref_typeE', symObjAddr: 0x123E8, symBinAddr: 0x1000147D4, symSize: 0x3C }
  - { offsetInCU: 0x2AE63, offset: 0x2AE63, size: 0x8, addend: 0x0, symName: '__ZNKSt3__110unique_ptrINS_10__function6__funcIZ20brute_force_distance6MatrixE3$_3NS_9allocatorIS4_EEFvNS_6vectorIbNS5_IbEEEEEEENS_22__allocator_destructorINS5_ISB_EEEEE3getB8ue170006Ev', symObjAddr: 0x12424, symBinAddr: 0x100014810, symSize: 0x28 }
  - { offsetInCU: 0x2AE89, offset: 0x2AE89, size: 0x8, addend: 0x0, symName: '__ZNKSt3__110__function12__alloc_funcIZ20brute_force_distance6MatrixE3$_3NS_9allocatorIS3_EEFvNS_6vectorIbNS4_IbEEEEEE8__targetB8ue170006Ev', symObjAddr: 0x1244C, symBinAddr: 0x100014838, symSize: 0x24 }
  - { offsetInCU: 0x2AEB5, offset: 0x2AEB5, size: 0x8, addend: 0x0, symName: '__ZNSt3__19allocatorIZ20brute_force_distance6MatrixE3$_3EC1B8ue170006INS_10__function6__funcIS2_S3_FvNS_6vectorIbNS0_IbEEEEEEEEERKNS0_IT_EE', symObjAddr: 0x12470, symBinAddr: 0x10001485C, symSize: 0x34 }
  - { offsetInCU: 0x2AEF2, offset: 0x2AEF2, size: 0x8, addend: 0x0, symName: '__ZNSt3__110__function6__funcIZ20brute_force_distance6MatrixE3$_3NS_9allocatorIS3_EEFvNS_6vectorIbNS4_IbEEEEEEC1B8ue170006ERKS3_OS5_', symObjAddr: 0x124A4, symBinAddr: 0x100014890, symSize: 0x3C }
  - { offsetInCU: 0x2AF3A, offset: 0x2AF3A, size: 0x8, addend: 0x0, symName: '__ZNSt3__110unique_ptrINS_10__function6__funcIZ20brute_force_distance6MatrixE3$_3NS_9allocatorIS4_EEFvNS_6vectorIbNS5_IbEEEEEEENS_22__allocator_destructorINS5_ISB_EEEEE7releaseB8ue170006Ev', symObjAddr: 0x124E0, symBinAddr: 0x1000148CC, symSize: 0x44 }
  - { offsetInCU: 0x2AF6F, offset: 0x2AF6F, size: 0x8, addend: 0x0, symName: '__ZNSt3__110unique_ptrINS_10__function6__funcIZ20brute_force_distance6MatrixE3$_3NS_9allocatorIS4_EEFvNS_6vectorIbNS5_IbEEEEEEENS_22__allocator_destructorINS5_ISB_EEEEED1B8ue170006Ev', symObjAddr: 0x12524, symBinAddr: 0x100014910, symSize: 0x2C }
  - { offsetInCU: 0x2AF99, offset: 0x2AF99, size: 0x8, addend: 0x0, symName: '__ZNKSt3__117__compressed_pairIZ20brute_force_distance6MatrixE3$_3NS_9allocatorIS2_EEE6secondB8ue170006Ev', symObjAddr: 0x12550, symBinAddr: 0x10001493C, symSize: 0x24 }
  - { offsetInCU: 0x2AFBF, offset: 0x2AFBF, size: 0x8, addend: 0x0, symName: '__ZNKSt3__122__compressed_pair_elemINS_9allocatorIZ20brute_force_distance6MatrixE3$_3EELi1ELb1EE5__getB8ue170006Ev', symObjAddr: 0x12574, symBinAddr: 0x100014960, symSize: 0x14 }
  - { offsetInCU: 0x2AFE5, offset: 0x2AFE5, size: 0x8, addend: 0x0, symName: '__ZNSt3__110unique_ptrINS_10__function6__funcIZ20brute_force_distance6MatrixE3$_3NS_9allocatorIS4_EEFvNS_6vectorIbNS5_IbEEEEEEENS_22__allocator_destructorINS5_ISB_EEEEEC2B8ue170006ILb1EvEEPSB_NS_16__dependent_typeINS_27__unique_ptr_deleter_sfinaeISE_EEXT_EE20__good_rval_ref_typeE', symObjAddr: 0x12588, symBinAddr: 0x100014974, symSize: 0x48 }
  - { offsetInCU: 0x2B036, offset: 0x2B036, size: 0x8, addend: 0x0, symName: '__ZNKSt3__117__compressed_pairIZ20brute_force_distance6MatrixE3$_3NS_9allocatorIS2_EEE5firstB8ue170006Ev', symObjAddr: 0x125D0, symBinAddr: 0x1000149BC, symSize: 0x24 }
  - { offsetInCU: 0x2B05C, offset: 0x2B05C, size: 0x8, addend: 0x0, symName: '__ZNKSt3__122__compressed_pair_elemIZ20brute_force_distance6MatrixE3$_3Li0ELb0EE5__getB8ue170006Ev', symObjAddr: 0x125F4, symBinAddr: 0x1000149E0, symSize: 0x14 }
  - { offsetInCU: 0x2B082, offset: 0x2B082, size: 0x8, addend: 0x0, symName: '__ZNSt3__19allocatorIZ20brute_force_distance6MatrixE3$_3EC2B8ue170006INS_10__function6__funcIS2_S3_FvNS_6vectorIbNS0_IbEEEEEEEEERKNS0_IT_EE', symObjAddr: 0x12608, symBinAddr: 0x1000149F4, symSize: 0x30 }
  - { offsetInCU: 0x2B0BF, offset: 0x2B0BF, size: 0x8, addend: 0x0, symName: '__ZNSt3__110__function6__funcIZ20brute_force_distance6MatrixE3$_3NS_9allocatorIS3_EEFvNS_6vectorIbNS4_IbEEEEEEC2B8ue170006ERKS3_OS5_', symObjAddr: 0x12638, symBinAddr: 0x100014A24, symSize: 0x88 }
  - { offsetInCU: 0x2B107, offset: 0x2B107, size: 0x8, addend: 0x0, symName: '__ZNSt3__110__function12__alloc_funcIZ20brute_force_distance6MatrixE3$_3NS_9allocatorIS3_EEFvNS_6vectorIbNS4_IbEEEEEEC1B8ue170006ERKS3_OS5_', symObjAddr: 0x126C0, symBinAddr: 0x100014AAC, symSize: 0x3C }
  - { offsetInCU: 0x2B14D, offset: 0x2B14D, size: 0x8, addend: 0x0, symName: '__ZNSt3__110__function12__alloc_funcIZ20brute_force_distance6MatrixE3$_3NS_9allocatorIS3_EEFvNS_6vectorIbNS4_IbEEEEEEC2B8ue170006ERKS3_OS5_', symObjAddr: 0x126FC, symBinAddr: 0x100014AE8, symSize: 0x5C }
  - { offsetInCU: 0x2B193, offset: 0x2B193, size: 0x8, addend: 0x0, symName: '__ZNSt3__117__compressed_pairIZ20brute_force_distance6MatrixE3$_3NS_9allocatorIS2_EEEC1B8ue170006IJRKS2_EJOS4_EEENS_21piecewise_construct_tENS_5tupleIJDpT_EEENSB_IJDpT0_EEE', symObjAddr: 0x12784, symBinAddr: 0x100014B70, symSize: 0x3C }
  - { offsetInCU: 0x2B1FD, offset: 0x2B1FD, size: 0x8, addend: 0x0, symName: '__ZNSt3__15tupleIJRKZ20brute_force_distance6MatrixE3$_3EEC1B8ue170006INS_4_AndELi0EEES4_', symObjAddr: 0x127C0, symBinAddr: 0x100014BAC, symSize: 0x34 }
  - { offsetInCU: 0x2B245, offset: 0x2B245, size: 0x8, addend: 0x0, symName: '__ZNSt3__15tupleIJRKZ20brute_force_distance6MatrixE3$_3EEC2B8ue170006INS_4_AndELi0EEES4_', symObjAddr: 0x127F4, symBinAddr: 0x100014BE0, symSize: 0x34 }
  - { offsetInCU: 0x2B28D, offset: 0x2B28D, size: 0x8, addend: 0x0, symName: '__ZNSt3__112__tuple_implINS_15__tuple_indicesIJLm0EEEEJRKZ20brute_force_distance6MatrixE3$_3EEC1B8ue170006IJLm0EEJS6_EJEJEJS6_EEENS1_IJXspT_EEEENS_13__tuple_typesIJDpT0_EEENS1_IJXspT1_EEEENSA_IJDpT2_EEEDpOT3_', symObjAddr: 0x12828, symBinAddr: 0x100014C14, symSize: 0x34 }
  - { offsetInCU: 0x2B322, offset: 0x2B322, size: 0x8, addend: 0x0, symName: '__ZNSt3__112__tuple_implINS_15__tuple_indicesIJLm0EEEEJRKZ20brute_force_distance6MatrixE3$_3EEC2B8ue170006IJLm0EEJS6_EJEJEJS6_EEENS1_IJXspT_EEEENS_13__tuple_typesIJDpT0_EEENS1_IJXspT1_EEEENSA_IJDpT2_EEEDpOT3_', symObjAddr: 0x1285C, symBinAddr: 0x100014C48, symSize: 0x34 }
  - { offsetInCU: 0x2B3B7, offset: 0x2B3B7, size: 0x8, addend: 0x0, symName: '__ZNSt3__112__tuple_leafILm0ERKZ20brute_force_distance6MatrixE3$_3Lb0EEC2B8ue170006IS4_vEEOT_', symObjAddr: 0x12890, symBinAddr: 0x100014C7C, symSize: 0x20 }
  - { offsetInCU: 0x2B3FA, offset: 0x2B3FA, size: 0x8, addend: 0x0, symName: '__ZNSt3__117__compressed_pairIZ20brute_force_distance6MatrixE3$_3NS_9allocatorIS2_EEEC2B8ue170006IJRKS2_EJOS4_EEENS_21piecewise_construct_tENS_5tupleIJDpT_EEENSB_IJDpT0_EEE', symObjAddr: 0x128B0, symBinAddr: 0x100014C9C, symSize: 0x54 }
  - { offsetInCU: 0x2B464, offset: 0x2B464, size: 0x8, addend: 0x0, symName: '__ZNSt3__122__compressed_pair_elemIZ20brute_force_distance6MatrixE3$_3Li0ELb0EEC2B8ue170006IJRKS2_EJLm0EEEENS_21piecewise_construct_tENS_5tupleIJDpT_EEENS_15__tuple_indicesIJXspT0_EEEE', symObjAddr: 0x12904, symBinAddr: 0x100014CF0, symSize: 0x4C }
  - { offsetInCU: 0x2B4C7, offset: 0x2B4C7, size: 0x8, addend: 0x0, symName: '__ZNSt3__112__tuple_leafILm0ERKZ20brute_force_distance6MatrixE3$_3Lb0EE3getB8ue170006Ev', symObjAddr: 0x12974, symBinAddr: 0x100014D60, symSize: 0x18 }
  - { offsetInCU: 0x2B4ED, offset: 0x2B4ED, size: 0x8, addend: 0x0, symName: '__ZNSt3__117__compressed_pairIPNS_10__function6__funcIZ20brute_force_distance6MatrixE3$_3NS_9allocatorIS4_EEFvNS_6vectorIbNS5_IbEEEEEEENS_22__allocator_destructorINS5_ISB_EEEEE5firstB8ue170006Ev', symObjAddr: 0x1298C, symBinAddr: 0x100014D78, symSize: 0x24 }
  - { offsetInCU: 0x2B513, offset: 0x2B513, size: 0x8, addend: 0x0, symName: '__ZNSt3__122__compressed_pair_elemIPNS_10__function6__funcIZ20brute_force_distance6MatrixE3$_3NS_9allocatorIS4_EEFvNS_6vectorIbNS5_IbEEEEEEELi0ELb0EE5__getB8ue170006Ev', symObjAddr: 0x129B0, symBinAddr: 0x100014D9C, symSize: 0x14 }
  - { offsetInCU: 0x2B539, offset: 0x2B539, size: 0x8, addend: 0x0, symName: '__ZNSt3__110unique_ptrINS_10__function6__funcIZ20brute_force_distance6MatrixE3$_3NS_9allocatorIS4_EEFvNS_6vectorIbNS5_IbEEEEEEENS_22__allocator_destructorINS5_ISB_EEEEED2B8ue170006Ev', symObjAddr: 0x129C4, symBinAddr: 0x100014DB0, symSize: 0x30 }
  - { offsetInCU: 0x2B563, offset: 0x2B563, size: 0x8, addend: 0x0, symName: '__ZNSt3__110unique_ptrINS_10__function6__funcIZ20brute_force_distance6MatrixE3$_3NS_9allocatorIS4_EEFvNS_6vectorIbNS5_IbEEEEEEENS_22__allocator_destructorINS5_ISB_EEEEE5resetB8ue170006EPSB_', symObjAddr: 0x129F4, symBinAddr: 0x100014DE0, symSize: 0x78 }
  - { offsetInCU: 0x2B5A7, offset: 0x2B5A7, size: 0x8, addend: 0x0, symName: '__ZNSt3__117__compressed_pairIPNS_10__function6__funcIZ20brute_force_distance6MatrixE3$_3NS_9allocatorIS4_EEFvNS_6vectorIbNS5_IbEEEEEEENS_22__allocator_destructorINS5_ISB_EEEEE6secondB8ue170006Ev', symObjAddr: 0x12A6C, symBinAddr: 0x100014E58, symSize: 0x28 }
  - { offsetInCU: 0x2B5CD, offset: 0x2B5CD, size: 0x8, addend: 0x0, symName: '__ZNSt3__122__allocator_destructorINS_9allocatorINS_10__function6__funcIZ20brute_force_distance6MatrixE3$_3NS1_IS5_EEFvNS_6vectorIbNS1_IbEEEEEEEEEEclB8ue170006EPSB_', symObjAddr: 0x12A94, symBinAddr: 0x100014E80, symSize: 0x34 }
  - { offsetInCU: 0x2B601, offset: 0x2B601, size: 0x8, addend: 0x0, symName: '__ZNSt3__122__compressed_pair_elemINS_22__allocator_destructorINS_9allocatorINS_10__function6__funcIZ20brute_force_distance6MatrixE3$_3NS2_IS6_EEFvNS_6vectorIbNS2_IbEEEEEEEEEEELi1ELb0EE5__getB8ue170006Ev', symObjAddr: 0x12AC8, symBinAddr: 0x100014EB4, symSize: 0x14 }
  - { offsetInCU: 0x2B627, offset: 0x2B627, size: 0x8, addend: 0x0, symName: '__ZNSt3__116allocator_traitsINS_9allocatorINS_10__function6__funcIZ20brute_force_distance6MatrixE3$_3NS1_IS5_EEFvNS_6vectorIbNS1_IbEEEEEEEEEE10deallocateB8ue170006ERSC_PSB_m', symObjAddr: 0x12ADC, symBinAddr: 0x100014EC8, symSize: 0x34 }
  - { offsetInCU: 0x2B669, offset: 0x2B669, size: 0x8, addend: 0x0, symName: '__ZNSt3__19allocatorINS_10__function6__funcIZ20brute_force_distance6MatrixE3$_3NS0_IS4_EEFvNS_6vectorIbNS0_IbEEEEEEEE10deallocateB8ue170006EPSA_m', symObjAddr: 0x12B10, symBinAddr: 0x100014EFC, symSize: 0x40 }
  - { offsetInCU: 0x2B6AB, offset: 0x2B6AB, size: 0x8, addend: 0x0, symName: '__ZNSt3__110__function6__funcIZ20brute_force_distance6MatrixE3$_3NS_9allocatorIS3_EEFvNS_6vectorIbNS4_IbEEEEEEC1B8ue170006ERKS3_RKS5_', symObjAddr: 0x12B50, symBinAddr: 0x100014F3C, symSize: 0x3C }
  - { offsetInCU: 0x2B6F3, offset: 0x2B6F3, size: 0x8, addend: 0x0, symName: '__ZNSt3__110__function6__funcIZ20brute_force_distance6MatrixE3$_3NS_9allocatorIS3_EEFvNS_6vectorIbNS4_IbEEEEEEC2B8ue170006ERKS3_RKS5_', symObjAddr: 0x12B8C, symBinAddr: 0x100014F78, symSize: 0x88 }
  - { offsetInCU: 0x2B73B, offset: 0x2B73B, size: 0x8, addend: 0x0, symName: '__ZNSt3__110__function12__alloc_funcIZ20brute_force_distance6MatrixE3$_3NS_9allocatorIS3_EEFvNS_6vectorIbNS4_IbEEEEEEC1B8ue170006ERKS3_RKS5_', symObjAddr: 0x12C14, symBinAddr: 0x100015000, symSize: 0x3C }
  - { offsetInCU: 0x2B781, offset: 0x2B781, size: 0x8, addend: 0x0, symName: '__ZNSt3__110__function12__alloc_funcIZ20brute_force_distance6MatrixE3$_3NS_9allocatorIS3_EEFvNS_6vectorIbNS4_IbEEEEEEC2B8ue170006ERKS3_RKS5_', symObjAddr: 0x12C50, symBinAddr: 0x10001503C, symSize: 0x5C }
  - { offsetInCU: 0x2B7C7, offset: 0x2B7C7, size: 0x8, addend: 0x0, symName: '__ZNSt3__117__compressed_pairIZ20brute_force_distance6MatrixE3$_3NS_9allocatorIS2_EEEC1B8ue170006IJRKS2_EJRKS4_EEENS_21piecewise_construct_tENS_5tupleIJDpT_EEENSC_IJDpT0_EEE', symObjAddr: 0x12CD8, symBinAddr: 0x1000150C4, symSize: 0x3C }
  - { offsetInCU: 0x2B831, offset: 0x2B831, size: 0x8, addend: 0x0, symName: '__ZNSt3__15tupleIJRKNS_9allocatorIZ20brute_force_distance6MatrixE3$_3EEEEC1B8ue170006INS_4_AndELi0EEES6_', symObjAddr: 0x12D14, symBinAddr: 0x100015100, symSize: 0x34 }
  - { offsetInCU: 0x2B879, offset: 0x2B879, size: 0x8, addend: 0x0, symName: '__ZNSt3__15tupleIJRKNS_9allocatorIZ20brute_force_distance6MatrixE3$_3EEEEC2B8ue170006INS_4_AndELi0EEES6_', symObjAddr: 0x12D48, symBinAddr: 0x100015134, symSize: 0x34 }
  - { offsetInCU: 0x2B8C1, offset: 0x2B8C1, size: 0x8, addend: 0x0, symName: '__ZNSt3__112__tuple_implINS_15__tuple_indicesIJLm0EEEEJRKNS_9allocatorIZ20brute_force_distance6MatrixE3$_3EEEEC1B8ue170006IJLm0EEJS8_EJEJEJS8_EEENS1_IJXspT_EEEENS_13__tuple_typesIJDpT0_EEENS1_IJXspT1_EEEENSC_IJDpT2_EEEDpOT3_', symObjAddr: 0x12D7C, symBinAddr: 0x100015168, symSize: 0x34 }
  - { offsetInCU: 0x2B956, offset: 0x2B956, size: 0x8, addend: 0x0, symName: '__ZNSt3__112__tuple_implINS_15__tuple_indicesIJLm0EEEEJRKNS_9allocatorIZ20brute_force_distance6MatrixE3$_3EEEEC2B8ue170006IJLm0EEJS8_EJEJEJS8_EEENS1_IJXspT_EEEENS_13__tuple_typesIJDpT0_EEENS1_IJXspT1_EEEENSC_IJDpT2_EEEDpOT3_', symObjAddr: 0x12DB0, symBinAddr: 0x10001519C, symSize: 0x34 }
  - { offsetInCU: 0x2B9EB, offset: 0x2B9EB, size: 0x8, addend: 0x0, symName: '__ZNSt3__112__tuple_leafILm0ERKNS_9allocatorIZ20brute_force_distance6MatrixE3$_3EELb0EEC2B8ue170006IS6_vEEOT_', symObjAddr: 0x12DE4, symBinAddr: 0x1000151D0, symSize: 0x20 }
  - { offsetInCU: 0x2BA2E, offset: 0x2BA2E, size: 0x8, addend: 0x0, symName: '__ZNSt3__117__compressed_pairIZ20brute_force_distance6MatrixE3$_3NS_9allocatorIS2_EEEC2B8ue170006IJRKS2_EJRKS4_EEENS_21piecewise_construct_tENS_5tupleIJDpT_EEENSC_IJDpT0_EEE', symObjAddr: 0x12E04, symBinAddr: 0x1000151F0, symSize: 0x54 }
  - { offsetInCU: 0x2BA98, offset: 0x2BA98, size: 0x8, addend: 0x0, symName: '__ZNSt3__122__compressed_pair_elemINS_9allocatorIZ20brute_force_distance6MatrixE3$_3EELi1ELb1EEC2B8ue170006IJRKS4_EJLm0EEEENS_21piecewise_construct_tENS_5tupleIJDpT_EEENS_15__tuple_indicesIJXspT0_EEEE', symObjAddr: 0x12E58, symBinAddr: 0x100015244, symSize: 0x38 }
  - { offsetInCU: 0x2BAFB, offset: 0x2BAFB, size: 0x8, addend: 0x0, symName: '__ZNSt3__112__tuple_leafILm0ERKNS_9allocatorIZ20brute_force_distance6MatrixE3$_3EELb0EE3getB8ue170006Ev', symObjAddr: 0x12EB4, symBinAddr: 0x1000152A0, symSize: 0x18 }
  - { offsetInCU: 0x2BB21, offset: 0x2BB21, size: 0x8, addend: 0x0, symName: '__ZNSt3__110__function12__alloc_funcIZ20brute_force_distance6MatrixE3$_3NS_9allocatorIS3_EEFvNS_6vectorIbNS4_IbEEEEEE7destroyB8ue170006Ev', symObjAddr: 0x12ECC, symBinAddr: 0x1000152B8, symSize: 0x10 }
  - { offsetInCU: 0x2BB47, offset: 0x2BB47, size: 0x8, addend: 0x0, symName: '__ZNSt3__110__function12__alloc_funcIZ20brute_force_distance6MatrixE3$_3NS_9allocatorIS3_EEFvNS_6vectorIbNS4_IbEEEEEEclB8ue170006EOS8_', symObjAddr: 0x12EDC, symBinAddr: 0x1000152C8, symSize: 0x30 }
  - { offsetInCU: 0x2BB7B, offset: 0x2BB7B, size: 0x8, addend: 0x0, symName: '__ZNSt3__128__invoke_void_return_wrapperIvLb1EE6__callB8ue170006IJRZ20brute_force_distance6MatrixE3$_3NS_6vectorIbNS_9allocatorIbEEEEEEEvDpOT_', symObjAddr: 0x12F0C, symBinAddr: 0x1000152F8, symSize: 0x2C }
  - { offsetInCU: 0x2BBBE, offset: 0x2BBBE, size: 0x8, addend: 0x0, symName: '__ZNSt3__117__compressed_pairIZ20brute_force_distance6MatrixE3$_3NS_9allocatorIS2_EEE5firstB8ue170006Ev', symObjAddr: 0x12F38, symBinAddr: 0x100015324, symSize: 0x24 }
  - { offsetInCU: 0x2BBEA, offset: 0x2BBEA, size: 0x8, addend: 0x0, symName: '__ZZ20brute_force_distance6MatrixENK3$_3clENSt3__16vectorIbNS1_9allocatorIbEEEE', symObjAddr: 0x12FCC, symBinAddr: 0x1000153B8, symSize: 0x1C4 }
  - { offsetInCU: 0x2BC8A, offset: 0x2BC8A, size: 0x8, addend: 0x0, symName: __ZNSt3__16vectorIbNS_9allocatorIbEEEC1B8ue170006EOS3_, symObjAddr: 0x13190, symBinAddr: 0x10001557C, symSize: 0x34 }
  - { offsetInCU: 0x2BCE8, offset: 0x2BCE8, size: 0x8, addend: 0x0, symName: __ZNKSt3__113basic_ostreamIcNS_11char_traitsIcEEE6sentrycvbB8ue170006Ev, symObjAddr: 0x1342C, symBinAddr: 0x100015818, symSize: 0x1C }
  - { offsetInCU: 0x2BD0E, offset: 0x2BD0E, size: 0x8, addend: 0x0, symName: __ZNSt3__119ostreambuf_iteratorIcNS_11char_traitsIcEEEC1B8ue170006ERNS_13basic_ostreamIcS2_EE, symObjAddr: 0x13688, symBinAddr: 0x100015A74, symSize: 0x34 }
  - { offsetInCU: 0x2BD46, offset: 0x2BD46, size: 0x8, addend: 0x0, symName: __ZNKSt3__18ios_base5flagsB8ue170006Ev, symObjAddr: 0x136BC, symBinAddr: 0x100015AA8, symSize: 0x18 }
  - { offsetInCU: 0x2BD6E, offset: 0x2BD6E, size: 0x8, addend: 0x0, symName: __ZNKSt3__19basic_iosIcNS_11char_traitsIcEEE4fillB8ue170006Ev, symObjAddr: 0x136D4, symBinAddr: 0x100015AC0, symSize: 0x64 }
  - { offsetInCU: 0x2BD96, offset: 0x2BD96, size: 0x8, addend: 0x0, symName: __ZNKSt3__119ostreambuf_iteratorIcNS_11char_traitsIcEEE6failedB8ue170006Ev, symObjAddr: 0x13738, symBinAddr: 0x100015B24, symSize: 0x24 }
  - { offsetInCU: 0x2BDBC, offset: 0x2BDBC, size: 0x8, addend: 0x0, symName: __ZNSt3__19basic_iosIcNS_11char_traitsIcEEE8setstateB8ue170006Ej, symObjAddr: 0x1375C, symBinAddr: 0x100015B48, symSize: 0x2C }
  - { offsetInCU: 0x2BDF1, offset: 0x2BDF1, size: 0x8, addend: 0x0, symName: __ZNKSt3__18ios_base5widthB8ue170006Ev, symObjAddr: 0x13788, symBinAddr: 0x100015B74, symSize: 0x18 }
  - { offsetInCU: 0x2BE19, offset: 0x2BE19, size: 0x8, addend: 0x0, symName: __ZNSt3__115basic_streambufIcNS_11char_traitsIcEEE5sputnB8ue170006EPKcl, symObjAddr: 0x137A0, symBinAddr: 0x100015B8C, symSize: 0x3C }
  - { offsetInCU: 0x2BE5B, offset: 0x2BE5B, size: 0x8, addend: 0x0, symName: __ZNSt3__112basic_stringIcNS_11char_traitsIcEENS_9allocatorIcEEEC1B8ue170006Emc, symObjAddr: 0x137DC, symBinAddr: 0x100015BC8, symSize: 0x3C }
  - { offsetInCU: 0x2BEA3, offset: 0x2BEA3, size: 0x8, addend: 0x0, symName: __ZNKSt3__112basic_stringIcNS_11char_traitsIcEENS_9allocatorIcEEE4dataB8ue170006Ev, symObjAddr: 0x13818, symBinAddr: 0x100015C04, symSize: 0x28 }
  - { offsetInCU: 0x2BEC9, offset: 0x2BEC9, size: 0x8, addend: 0x0, symName: __ZNSt3__18ios_base5widthB8ue170006El, symObjAddr: 0x13840, symBinAddr: 0x100015C2C, symSize: 0x2C }
  - { offsetInCU: 0x2BF0F, offset: 0x2BF0F, size: 0x8, addend: 0x0, symName: __ZNSt3__112basic_stringIcNS_11char_traitsIcEENS_9allocatorIcEEEC2B8ue170006Emc, symObjAddr: 0x1386C, symBinAddr: 0x100015C58, symSize: 0x4C }
  - { offsetInCU: 0x2BF57, offset: 0x2BF57, size: 0x8, addend: 0x0, symName: __ZNSt3__117__compressed_pairINS_12basic_stringIcNS_11char_traitsIcEENS_9allocatorIcEEE5__repES5_EC1B8ue170006INS_18__default_init_tagESA_EEOT_OT0_, symObjAddr: 0x138B8, symBinAddr: 0x100015CA4, symSize: 0x3C }
  - { offsetInCU: 0x2BFAF, offset: 0x2BFAF, size: 0x8, addend: 0x0, symName: __ZNSt3__117__compressed_pairINS_12basic_stringIcNS_11char_traitsIcEENS_9allocatorIcEEE5__repES5_EC2B8ue170006INS_18__default_init_tagESA_EEOT_OT0_, symObjAddr: 0x138F4, symBinAddr: 0x100015CE0, symSize: 0x3C }
  - { offsetInCU: 0x2C007, offset: 0x2C007, size: 0x8, addend: 0x0, symName: __ZNSt3__122__compressed_pair_elemINS_12basic_stringIcNS_11char_traitsIcEENS_9allocatorIcEEE5__repELi0ELb0EEC2B8ue170006ENS_18__default_init_tagE, symObjAddr: 0x13930, symBinAddr: 0x100015D1C, symSize: 0x14 }
  - { offsetInCU: 0x2C03B, offset: 0x2C03B, size: 0x8, addend: 0x0, symName: __ZNSt3__122__compressed_pair_elemINS_9allocatorIcEELi1ELb1EEC2B8ue170006ENS_18__default_init_tagE, symObjAddr: 0x13944, symBinAddr: 0x100015D30, symSize: 0x2C }
  - { offsetInCU: 0x2C06F, offset: 0x2C06F, size: 0x8, addend: 0x0, symName: __ZNSt3__19allocatorIcEC2B8ue170006Ev, symObjAddr: 0x13970, symBinAddr: 0x100015D5C, symSize: 0x2C }
  - { offsetInCU: 0x2C099, offset: 0x2C099, size: 0x8, addend: 0x0, symName: __ZNSt3__116__non_trivial_ifILb1ENS_9allocatorIcEEEC2B8ue170006Ev, symObjAddr: 0x1399C, symBinAddr: 0x100015D88, symSize: 0x14 }
  - { offsetInCU: 0x2C0C3, offset: 0x2C0C3, size: 0x8, addend: 0x0, symName: __ZNKSt3__112basic_stringIcNS_11char_traitsIcEENS_9allocatorIcEEE13__get_pointerB8ue170006Ev, symObjAddr: 0x139C4, symBinAddr: 0x100015DB0, symSize: 0x54 }
  - { offsetInCU: 0x2C0E9, offset: 0x2C0E9, size: 0x8, addend: 0x0, symName: __ZNKSt3__112basic_stringIcNS_11char_traitsIcEENS_9allocatorIcEEE9__is_longB8ue170006Ev, symObjAddr: 0x13A18, symBinAddr: 0x100015E04, symSize: 0x38 }
  - { offsetInCU: 0x2C10F, offset: 0x2C10F, size: 0x8, addend: 0x0, symName: __ZNKSt3__112basic_stringIcNS_11char_traitsIcEENS_9allocatorIcEEE18__get_long_pointerB8ue170006Ev, symObjAddr: 0x13A50, symBinAddr: 0x100015E3C, symSize: 0x28 }
  - { offsetInCU: 0x2C135, offset: 0x2C135, size: 0x8, addend: 0x0, symName: __ZNKSt3__112basic_stringIcNS_11char_traitsIcEENS_9allocatorIcEEE19__get_short_pointerB8ue170006Ev, symObjAddr: 0x13A78, symBinAddr: 0x100015E64, symSize: 0x28 }
  - { offsetInCU: 0x2C15B, offset: 0x2C15B, size: 0x8, addend: 0x0, symName: __ZNKSt3__117__compressed_pairINS_12basic_stringIcNS_11char_traitsIcEENS_9allocatorIcEEE5__repES5_E5firstB8ue170006Ev, symObjAddr: 0x13AA0, symBinAddr: 0x100015E8C, symSize: 0x24 }
  - { offsetInCU: 0x2C181, offset: 0x2C181, size: 0x8, addend: 0x0, symName: __ZNKSt3__122__compressed_pair_elemINS_12basic_stringIcNS_11char_traitsIcEENS_9allocatorIcEEE5__repELi0ELb0EE5__getB8ue170006Ev, symObjAddr: 0x13AC4, symBinAddr: 0x100015EB0, symSize: 0x14 }
  - { offsetInCU: 0x2C1A7, offset: 0x2C1A7, size: 0x8, addend: 0x0, symName: __ZNSt3__114pointer_traitsIPKcE10pointer_toB8ue170006ERS1_, symObjAddr: 0x13AD8, symBinAddr: 0x100015EC4, symSize: 0x14 }
  - { offsetInCU: 0x2C1CA, offset: 0x2C1CA, size: 0x8, addend: 0x0, symName: __ZNSt3__119ostreambuf_iteratorIcNS_11char_traitsIcEEEC2B8ue170006ERNS_13basic_ostreamIcS2_EE, symObjAddr: 0x13AEC, symBinAddr: 0x100015ED8, symSize: 0x54 }
  - { offsetInCU: 0x2C202, offset: 0x2C202, size: 0x8, addend: 0x0, symName: __ZNKSt3__19basic_iosIcNS_11char_traitsIcEEE5rdbufB8ue170006Ev, symObjAddr: 0x13B40, symBinAddr: 0x100015F2C, symSize: 0x24 }
  - { offsetInCU: 0x2C22A, offset: 0x2C22A, size: 0x8, addend: 0x0, symName: __ZNKSt3__18ios_base5rdbufB8ue170006Ev, symObjAddr: 0x13B64, symBinAddr: 0x100015F50, symSize: 0x18 }
  - { offsetInCU: 0x2C250, offset: 0x2C250, size: 0x8, addend: 0x0, symName: __ZNSt3__111char_traitsIcE11eq_int_typeB8ue170006Eii, symObjAddr: 0x13B7C, symBinAddr: 0x100015F68, symSize: 0x28 }
  - { offsetInCU: 0x2C283, offset: 0x2C283, size: 0x8, addend: 0x0, symName: __ZNSt3__111char_traitsIcE3eofB8ue170006Ev, symObjAddr: 0x13BA4, symBinAddr: 0x100015F90, symSize: 0x8 }
  - { offsetInCU: 0x2C297, offset: 0x2C297, size: 0x8, addend: 0x0, symName: __ZNKSt3__19basic_iosIcNS_11char_traitsIcEEE5widenB8ue170006Ec, symObjAddr: 0x13BAC, symBinAddr: 0x100015F98, symSize: 0x84 }
  - { offsetInCU: 0x2C307, offset: 0x2C307, size: 0x8, addend: 0x0, symName: __ZNKSt3__15ctypeIcE5widenB8ue170006Ec, symObjAddr: 0x13C5C, symBinAddr: 0x100016048, symSize: 0x38 }
  - { offsetInCU: 0x2C33C, offset: 0x2C33C, size: 0x8, addend: 0x0, symName: __ZNSt3__18ios_base8setstateB8ue170006Ej, symObjAddr: 0x13C94, symBinAddr: 0x100016080, symSize: 0x34 }
  - { offsetInCU: 0x2C373, offset: 0x2C373, size: 0x8, addend: 0x0, symName: __ZNSt3__111char_traitsIcE6lengthB8ue170006EPKc, symObjAddr: 0x13CC8, symBinAddr: 0x1000160B4, symSize: 0x34 }
  - { offsetInCU: 0x2C396, offset: 0x2C396, size: 0x8, addend: 0x0, symName: __ZNSt3__16vectorIbNS_9allocatorIbEEEC2B8ue170006EOS3_, symObjAddr: 0x13D20, symBinAddr: 0x10001610C, symSize: 0x70 }
  - { offsetInCU: 0x2C3D1, offset: 0x2C3D1, size: 0x8, addend: 0x0, symName: '__ZNSt3__122__compressed_pair_elemIZ20brute_force_distance6MatrixE3$_3Li0ELb0EE5__getB8ue170006Ev', symObjAddr: 0x13D90, symBinAddr: 0x10001617C, symSize: 0x14 }
  - { offsetInCU: 0x2C3F7, offset: 0x2C3F7, size: 0x8, addend: 0x0, symName: '__ZNSt3__110unique_ptrINS_10__function6__baseIFvNS_6vectorIbNS_9allocatorIbEEEEEEENS_22__allocator_destructorINS4_INS1_6__funcIZ20brute_force_distance6MatrixE3$_3NS4_ISC_EES7_EEEEEEED2B8ue170006Ev', symObjAddr: 0x13DA4, symBinAddr: 0x100016190, symSize: 0x30 }
  - { offsetInCU: 0x2C421, offset: 0x2C421, size: 0x8, addend: 0x0, symName: '__ZNSt3__110unique_ptrINS_10__function6__baseIFvNS_6vectorIbNS_9allocatorIbEEEEEEENS_22__allocator_destructorINS4_INS1_6__funcIZ20brute_force_distance6MatrixE3$_3NS4_ISC_EES7_EEEEEEE5resetB8ue170006EPSE_', symObjAddr: 0x13DD4, symBinAddr: 0x1000161C0, symSize: 0x78 }
...
