---
triple:          'arm64-apple-darwin'
binary-path:     '/Users/serban.cercelescu/Library/CloudStorage/OneDrive-QuantinuumLLC/Desktop/Qubitserf/main'
relocations:
  - { offsetInCU: 0x9C, offset: 0x9C, size: 0x8, addend: 0x0, symName: __ZNSt3__1L19piecewise_constructE, symObjAddr: 0x25E8A, symBinAddr: 0x10002A572, symSize: 0x0 }
  - { offsetInCU: 0x888F, offset: 0x888F, size: 0x8, addend: 0x0, symName: __ZNSt3__17advanceB8ue170006IP7BVectorllvEEvRT_T0_, symObjAddr: 0xC0A4, symBinAddr: 0x1000100F0, symSize: 0x38 }
  - { offsetInCU: 0x88FA, offset: 0x88FA, size: 0x8, addend: 0x0, symName: __ZNSt3__17advanceB8ue170006IPyllvEEvRT_T0_, symObjAddr: 0xC5CC, symBinAddr: 0x100010618, symSize: 0x38 }
  - { offsetInCU: 0x8965, offset: 0x8965, size: 0x8, addend: 0x0, symName: __ZNSt3__111__introsortINS_17_ClassicAlgPolicyERZN7BMatrix9sort_rowsEvEUlRK7BVectorS5_E_PS3_Lb0EEEvT1_S9_T0_NS_15iterator_traitsIS9_E15difference_typeEb, symObjAddr: 0xCD3C, symBinAddr: 0x100010D88, symSize: 0x434 }
  - { offsetInCU: 0x8A90, offset: 0x8A90, size: 0x8, addend: 0x0, symName: __ZNSt3__126__insertion_sort_unguardedB8ue170006INS_17_ClassicAlgPolicyERZN7BMatrix9sort_rowsEvEUlRK7BVectorS5_E_PS3_EEvT1_S9_T0_, symObjAddr: 0xD46C, symBinAddr: 0x1000114B8, symSize: 0x164 }
  - { offsetInCU: 0x8B68, offset: 0x8B68, size: 0x8, addend: 0x0, symName: __ZNSt3__111__sift_downB8ue170006INS_17_ClassicAlgPolicyERZN7BMatrix9sort_rowsEvEUlRK7BVectorS5_E_PS3_EEvT1_OT0_NS_15iterator_traitsIS9_E15difference_typeES9_, symObjAddr: 0xEC88, symBinAddr: 0x100012CD4, symSize: 0x25C }
  - { offsetInCU: 0x8C15, offset: 0x8C15, size: 0x8, addend: 0x0, symName: __ZNSt3__117__floyd_sift_downB8ue170006INS_17_ClassicAlgPolicyERZN7BMatrix9sort_rowsEvEUlRK7BVectorS5_E_PS3_EET1_S9_OT0_NS_15iterator_traitsIS9_E15difference_typeE, symObjAddr: 0xF0C4, symBinAddr: 0x100013110, symSize: 0x100 }
  - { offsetInCU: 0x8CAD, offset: 0x8CAD, size: 0x8, addend: 0x0, symName: __ZNSt3__131__partition_with_equals_on_leftB8ue170006INS_17_ClassicAlgPolicyEP7BVectorRZN7BMatrix9sort_rowsEvEUlRKS2_S6_E_EET0_S9_S9_T1_, symObjAddr: 0xD7DC, symBinAddr: 0x100011828, symSize: 0x298 }
  - { offsetInCU: 0x8D6A, offset: 0x8D6A, size: 0x8, addend: 0x0, symName: __ZNSt3__118__bitset_partitionB8ue170006INS_17_ClassicAlgPolicyEP7BVectorRZN7BMatrix9sort_rowsEvEUlRKS2_S6_E_EENS_4pairIT0_bEESA_SA_T1_, symObjAddr: 0xDA74, symBinAddr: 0x100011AC0, symSize: 0x3AC }
  - { offsetInCU: 0x8E67, offset: 0x8E67, size: 0x8, addend: 0x0, symName: __ZNSt3__124__swap_bitmap_pos_withinB8ue170006INS_17_ClassicAlgPolicyEP7BVectorEEvRT0_S5_RyS6_, symObjAddr: 0xF854, symBinAddr: 0x1000138A0, symSize: 0x1E0 }
  - { offsetInCU: 0x8F34, offset: 0x8F34, size: 0x8, addend: 0x0, symName: __ZNSt3__132__partition_with_equals_on_rightB8ue170006INS_17_ClassicAlgPolicyEP7BVectorRZN7BMatrix9sort_rowsEvEUlRKS2_S6_E_EENS_4pairIT0_bEESA_SA_T1_, symObjAddr: 0xDE20, symBinAddr: 0x100011E6C, symSize: 0x29C }
  - { offsetInCU: 0x8FFF, offset: 0x8FFF, size: 0x8, addend: 0x0, symName: __ZNSt3__127__insertion_sort_incompleteB8ue170006INS_17_ClassicAlgPolicyERZN7BMatrix9sort_rowsEvEUlRK7BVectorS5_E_PS3_EEbT1_S9_T0_, symObjAddr: 0xE0BC, symBinAddr: 0x100012108, symSize: 0x36C }
  - { offsetInCU: 0x90E4, offset: 0x90E4, size: 0x8, addend: 0x0, symName: __ZNSt3__124__put_character_sequenceB8ue170006IcNS_11char_traitsIcEEEERNS_13basic_ostreamIT_T0_EES7_PKS4_m, symObjAddr: 0xFEBC, symBinAddr: 0x100013F08, symSize: 0x1EC }
  - { offsetInCU: 0xD365, offset: 0xD365, size: 0x8, addend: 0x0, symName: '__ZNSt3__110__function10__not_nullB8ue170006IZ10partitionsiNS_8functionIFvNS_6vectorIbNS_9allocatorIbEEEEEEEE3$_0EEbRKT_', symObjAddr: 0x14698, symBinAddr: 0x1000186E4, symSize: 0x18 }
  - { offsetInCU: 0xD396, offset: 0xD396, size: 0x8, addend: 0x0, symName: '__ZNSt3__110__function10__not_nullB8ue170006IZ12combinationsiiNS_8functionIFvNS_6vectorIbNS_9allocatorIbEEEEEEEE3$_1EEbRKT_', symObjAddr: 0x16528, symBinAddr: 0x10001A574, symSize: 0x18 }
  - { offsetInCU: 0xD3C7, offset: 0xD3C7, size: 0x8, addend: 0x0, symName: '__ZNSt3__110__function10__not_nullB8ue170006IZ23iterate_words_of_weightiiNS_8functionIFvNS_6vectorIbNS_9allocatorIbEEEEEEEE3$_2EEbRKT_', symObjAddr: 0x18250, symBinAddr: 0x10001C29C, symSize: 0x18 }
  - { offsetInCU: 0xD3F8, offset: 0xD3F8, size: 0x8, addend: 0x0, symName: '__ZNSt3__110__function10__not_nullB8ue170006IZ20bruteforce_distance07BMatrixE3$_3EEbRKT_', symObjAddr: 0x19F40, symBinAddr: 0x10001DF8C, symSize: 0x18 }
  - { offsetInCU: 0xD429, offset: 0xD429, size: 0x8, addend: 0x0, symName: '__ZNSt3__110__function10__not_nullB8ue170006IZ17brouwer_zimmerman7BMatrixS2_E3$_4EEbRKT_', symObjAddr: 0x1EA10, symBinAddr: 0x100022A5C, symSize: 0x18 }
  - { offsetInCU: 0x18D7F, offset: 0x18D7F, size: 0x8, addend: 0x0, symName: __ZNSt3__1lsB8ue170006INS_11char_traitsIcEEEERNS_13basic_ostreamIcT_EES6_c, symObjAddr: 0x180, symBinAddr: 0x1000041CC, symSize: 0x34 }
  - { offsetInCU: 0x18DC5, offset: 0x18DC5, size: 0x8, addend: 0x0, symName: __ZNSt3__14endlB8ue170006IcNS_11char_traitsIcEEEERNS_13basic_ostreamIT_T0_EES7_, symObjAddr: 0x670, symBinAddr: 0x1000046BC, symSize: 0x58 }
  - { offsetInCU: 0x18E05, offset: 0x18E05, size: 0x8, addend: 0x0, symName: __ZNSt3__19make_pairB8ue170006IR7BMatrixS2_EENS_4pairINS_18__unwrap_ref_decayIT_E4typeENS4_IT0_E4typeEEEOS5_OS8_, symObjAddr: 0x2FDC, symBinAddr: 0x100007028, symSize: 0x40 }
  - { offsetInCU: 0x18E54, offset: 0x18E54, size: 0x8, addend: 0x0, symName: __ZNSt3__1neB8ue170006IPiEEbRKNS_11__wrap_iterIT_EES6_, symObjAddr: 0x351C, symBinAddr: 0x100007568, symSize: 0x34 }
  - { offsetInCU: 0x18E97, offset: 0x18E97, size: 0x8, addend: 0x0, symName: __ZNSt3__1neB8ue170006IPNS_4pairI7BMatrixiEEEEbRKNS_11__wrap_iterIT_EES9_, symObjAddr: 0x3F68, symBinAddr: 0x100007FB4, symSize: 0x34 }
  - { offsetInCU: 0x18EDA, offset: 0x18EDA, size: 0x8, addend: 0x0, symName: __ZNSt3__13maxB8ue170006IiEERKT_S3_S3_, symObjAddr: 0x4068, symBinAddr: 0x1000080B4, symSize: 0x2C }
  - { offsetInCU: 0x18F1D, offset: 0x18F1D, size: 0x8, addend: 0x0, symName: __ZNSt3__13tieB8ue170006IJ7BMatrixS1_EEENS_5tupleIJDpRT_EEES5_, symObjAddr: 0x44C4, symBinAddr: 0x100008510, symSize: 0x38 }
  - { offsetInCU: 0x19471, offset: 0x19471, size: 0x8, addend: 0x0, symName: __ZNSt3__13minB8ue170006IiEERKT_S3_S3_, symObjAddr: 0x46C8, symBinAddr: 0x100008714, symSize: 0x2C }
  - { offsetInCU: 0x1A265, offset: 0x1A265, size: 0x8, addend: 0x0, symName: __ZNSt3__17getlineB8ue170006IcNS_11char_traitsIcEENS_9allocatorIcEEEERNS_13basic_istreamIT_T0_EES9_RNS_12basic_stringIS6_S7_T1_EE, symObjAddr: 0x5384, symBinAddr: 0x1000093D0, symSize: 0x5C }
  - { offsetInCU: 0x1A2BD, offset: 0x1A2BD, size: 0x8, addend: 0x0, symName: __ZNSt3__1eqB8ue170006IcNS_11char_traitsIcEENS_9allocatorIcEEEEbRKNS_12basic_stringIT_T0_T1_EEPKS6_, symObjAddr: 0x540C, symBinAddr: 0x100009458, symSize: 0xAC }
  - { offsetInCU: 0x1A330, offset: 0x1A330, size: 0x8, addend: 0x0, symName: __ZNSt3__112__to_addressB8ue170006IyEEPT_S2_, symObjAddr: 0x6110, symBinAddr: 0x10000A15C, symSize: 0x14 }
  - { offsetInCU: 0x1A365, offset: 0x1A365, size: 0x8, addend: 0x0, symName: __ZNSt3__13maxB8ue170006ImEERKT_S3_S3_, symObjAddr: 0x62C4, symBinAddr: 0x10000A310, symSize: 0x2C }
  - { offsetInCU: 0x1A3A8, offset: 0x1A3A8, size: 0x8, addend: 0x0, symName: __ZNSt3__13minB8ue170006ImEERKT_S3_S3_, symObjAddr: 0x62F0, symBinAddr: 0x10000A33C, symSize: 0x2C }
  - { offsetInCU: 0x1A5F6, offset: 0x1A5F6, size: 0x8, addend: 0x0, symName: __ZNSt3__13minB8ue170006ImNS_6__lessIvvEEEERKT_S5_S5_T0_, symObjAddr: 0x637C, symBinAddr: 0x10000A3C8, symSize: 0x54 }
  - { offsetInCU: 0x1A6FA, offset: 0x1A6FA, size: 0x8, addend: 0x0, symName: __ZNSt3__120__throw_length_errorB8ue170006EPKc, symObjAddr: 0x6458, symBinAddr: 0x10000A4A4, symSize: 0x64 }
  - { offsetInCU: 0x1A724, offset: 0x1A724, size: 0x8, addend: 0x0, symName: __ZNSt3__13maxB8ue170006ImNS_6__lessIvvEEEERKT_S5_S5_T0_, symObjAddr: 0x659C, symBinAddr: 0x10000A5E8, symSize: 0x54 }
  - { offsetInCU: 0x1A77E, offset: 0x1A77E, size: 0x8, addend: 0x0, symName: __ZNSt3__119__allocate_at_leastB8ue170006INS_9allocatorIyEEEENS_19__allocation_resultINS_16allocator_traitsIT_E7pointerEEERS5_m, symObjAddr: 0x6700, symBinAddr: 0x10000A74C, symSize: 0x40 }
  - { offsetInCU: 0x1A7C1, offset: 0x1A7C1, size: 0x8, addend: 0x0, symName: __ZNSt3__117__libcpp_allocateB8ue170006Emm, symObjAddr: 0x6884, symBinAddr: 0x10000A8D0, symSize: 0x28 }
  - { offsetInCU: 0x1A7FE, offset: 0x1A7FE, size: 0x8, addend: 0x0, symName: __ZNSt3__121__libcpp_operator_newB8ue170006IJmEEEPvDpT_, symObjAddr: 0x68AC, symBinAddr: 0x10000A8F8, symSize: 0x24 }
  - { offsetInCU: 0x1A837, offset: 0x1A837, size: 0x8, addend: 0x0, symName: __ZNSt3__142__uninitialized_allocator_move_if_noexceptB8ue170006INS_9allocatorIyEENS_16reverse_iteratorIPyEES5_yvEET1_RT_T0_S9_S6_, symObjAddr: 0x6AB8, symBinAddr: 0x10000AB04, symSize: 0x78 }
  - { offsetInCU: 0x1A8B6, offset: 0x1A8B6, size: 0x8, addend: 0x0, symName: __ZNSt3__14swapB8ue170006IPyEENS_9enable_ifIXaasr21is_move_constructibleIT_EE5valuesr18is_move_assignableIS3_EE5valueEvE4typeERS3_S6_, symObjAddr: 0x6B7C, symBinAddr: 0x10000ABC8, symSize: 0x3C }
  - { offsetInCU: 0x1A907, offset: 0x1A907, size: 0x8, addend: 0x0, symName: __ZNSt3__14moveB8ue170006INS_16reverse_iteratorIPyEES3_EET0_T_S5_S4_, symObjAddr: 0x6CAC, symBinAddr: 0x10000ACF8, symSize: 0x78 }
  - { offsetInCU: 0x1A961, offset: 0x1A961, size: 0x8, addend: 0x0, symName: __ZNSt3__16__moveB8ue170006INS_17_ClassicAlgPolicyENS_16reverse_iteratorIPyEES4_S4_EENS_4pairIT0_T2_EES6_T1_S7_, symObjAddr: 0x6D24, symBinAddr: 0x10000AD70, symSize: 0x64 }
  - { offsetInCU: 0x1A9CD, offset: 0x1A9CD, size: 0x8, addend: 0x0, symName: __ZNSt3__123__dispatch_copy_or_moveB8ue170006INS_17_ClassicAlgPolicyENS_11__move_loopIS1_EENS_14__move_trivialENS_16reverse_iteratorIPyEES7_S7_EENS_4pairIT2_T4_EES9_T3_SA_, symObjAddr: 0x6D88, symBinAddr: 0x10000ADD4, symSize: 0x64 }
  - { offsetInCU: 0x1AA4B, offset: 0x1AA4B, size: 0x8, addend: 0x0, symName: __ZNSt3__121__unwrap_and_dispatchB8ue170006INS_10__overloadINS_11__move_loopINS_17_ClassicAlgPolicyEEENS_14__move_trivialEEENS_16reverse_iteratorIPyEES9_S9_Li0EEENS_4pairIT0_T2_EESB_T1_SC_, symObjAddr: 0x6DEC, symBinAddr: 0x10000AE38, symSize: 0x12C }
  - { offsetInCU: 0x1AADB, offset: 0x1AADB, size: 0x8, addend: 0x0, symName: __ZNSt3__114__unwrap_rangeB8ue170006INS_16reverse_iteratorIPyEES3_EENS_4pairIT0_S5_EET_S7_, symObjAddr: 0x6F18, symBinAddr: 0x10000AF64, symSize: 0x84 }
  - { offsetInCU: 0x1AC95, offset: 0x1AC95, size: 0x8, addend: 0x0, symName: __ZNSt3__113__unwrap_iterB8ue170006INS_16reverse_iteratorIPyEENS_18__unwrap_iter_implIS3_Lb0EEELi0EEEDTclsrT0_8__unwrapclsr3stdE7declvalIT_EEEES7_, symObjAddr: 0x703C, symBinAddr: 0x10000B088, symSize: 0x44 }
  - { offsetInCU: 0x1ACD9, offset: 0x1ACD9, size: 0x8, addend: 0x0, symName: __ZNSt3__19make_pairB8ue170006INS_16reverse_iteratorIPyEES3_EENS_4pairINS_18__unwrap_ref_decayIT_E4typeENS5_IT0_E4typeEEEOS6_OS9_, symObjAddr: 0x7080, symBinAddr: 0x10000B0CC, symSize: 0x38 }
  - { offsetInCU: 0x1AD28, offset: 0x1AD28, size: 0x8, addend: 0x0, symName: __ZNSt3__114__rewrap_rangeB8ue170006INS_16reverse_iteratorIPyEES3_EET_S4_T0_, symObjAddr: 0x70B8, symBinAddr: 0x10000B104, symSize: 0x5C }
  - { offsetInCU: 0x1AD74, offset: 0x1AD74, size: 0x8, addend: 0x0, symName: __ZNSt3__113__rewrap_iterB8ue170006INS_16reverse_iteratorIPyEES3_NS_18__unwrap_iter_implIS3_Lb0EEEEET_S6_T0_, symObjAddr: 0x7114, symBinAddr: 0x10000B160, symSize: 0x74 }
  - { offsetInCU: 0x1ADC9, offset: 0x1ADC9, size: 0x8, addend: 0x0, symName: __ZNSt3__1neB8ue170006IPyS1_EEbRKNS_16reverse_iteratorIT_EERKNS2_IT0_EE, symObjAddr: 0x7188, symBinAddr: 0x10000B1D4, symSize: 0x48 }
  - { offsetInCU: 0x1AFC8, offset: 0x1AFC8, size: 0x8, addend: 0x0, symName: __ZNSt3__119__libcpp_deallocateB8ue170006EPvmm, symObjAddr: 0x7580, symBinAddr: 0x10000B5CC, symSize: 0x30 }
  - { offsetInCU: 0x1B010, offset: 0x1B010, size: 0x8, addend: 0x0, symName: __ZNSt3__127__do_deallocate_handle_sizeB8ue170006IJEEEvPvmDpT_, symObjAddr: 0x75B0, symBinAddr: 0x10000B5FC, symSize: 0x28 }
  - { offsetInCU: 0x1B04E, offset: 0x1B04E, size: 0x8, addend: 0x0, symName: __ZNSt3__124__libcpp_operator_deleteB8ue170006IJPvEEEvDpT_, symObjAddr: 0x75D8, symBinAddr: 0x10000B624, symSize: 0x24 }
  - { offsetInCU: 0x1B083, offset: 0x1B083, size: 0x8, addend: 0x0, symName: __ZNSt3__1neB8ue170006IP7BVectorEEbRKNS_11__wrap_iterIT_EES7_, symObjAddr: 0x7B48, symBinAddr: 0x10000BB94, symSize: 0x34 }
  - { offsetInCU: 0x1B0C7, offset: 0x1B0C7, size: 0x8, addend: 0x0, symName: __ZNSt3__112__to_addressB8ue170006I7BVectorEEPT_S3_, symObjAddr: 0x834C, symBinAddr: 0x10000C398, symSize: 0x14 }
  - { offsetInCU: 0x1B0FC, offset: 0x1B0FC, size: 0x8, addend: 0x0, symName: __ZNSt3__119__allocate_at_leastB8ue170006INS_9allocatorI7BVectorEEEENS_19__allocation_resultINS_16allocator_traitsIT_E7pointerEEERS6_m, symObjAddr: 0x8770, symBinAddr: 0x10000C7BC, symSize: 0x40 }
  - { offsetInCU: 0x1B13F, offset: 0x1B13F, size: 0x8, addend: 0x0, symName: __ZNSt3__142__uninitialized_allocator_move_if_noexceptB8ue170006INS_9allocatorI7BVectorEENS_16reverse_iteratorIPS2_EES6_S6_EET2_RT_T0_T1_S7_, symObjAddr: 0x8AA8, symBinAddr: 0x10000CAF4, symSize: 0x12C }
  - { offsetInCU: 0x1B1E0, offset: 0x1B1E0, size: 0x8, addend: 0x0, symName: __ZNSt3__14swapB8ue170006IP7BVectorEENS_9enable_ifIXaasr21is_move_constructibleIT_EE5valuesr18is_move_assignableIS4_EE5valueEvE4typeERS4_S7_, symObjAddr: 0x8C20, symBinAddr: 0x10000CC6C, symSize: 0x3C }
  - { offsetInCU: 0x1B231, offset: 0x1B231, size: 0x8, addend: 0x0, symName: __ZNSt3__122__make_exception_guardB8ue170006INS_29_AllocatorDestroyRangeReverseINS_9allocatorI7BVectorEENS_16reverse_iteratorIPS3_EEEEEENS_28__exception_guard_exceptionsIT_EESA_, symObjAddr: 0x8D50, symBinAddr: 0x10000CD9C, symSize: 0x4C }
  - { offsetInCU: 0x1B267, offset: 0x1B267, size: 0x8, addend: 0x0, symName: __ZNSt3__1neB8ue170006IP7BVectorS2_EEbRKNS_16reverse_iteratorIT_EERKNS3_IT0_EE, symObjAddr: 0x8DE0, symBinAddr: 0x10000CE2C, symSize: 0x48 }
  - { offsetInCU: 0x1B2B3, offset: 0x1B2B3, size: 0x8, addend: 0x0, symName: __ZNSt3__112__to_addressB8ue170006INS_16reverse_iteratorIP7BVectorEEvEEu7__decayIDTclsr19__to_address_helperIT_EE6__callclsr3stdE7declvalIRKS5_EEEEES7_, symObjAddr: 0x8E5C, symBinAddr: 0x10000CEA8, symSize: 0x24 }
  - { offsetInCU: 0x1B313, offset: 0x1B313, size: 0x8, addend: 0x0, symName: __ZNSt3__119__allocator_destroyB8ue170006INS_9allocatorI7BVectorEENS_16reverse_iteratorINS4_IPS2_EEEES7_EEvRT_T0_T1_, symObjAddr: 0x913C, symBinAddr: 0x10000D188, symSize: 0x70 }
  - { offsetInCU: 0x1B378, offset: 0x1B378, size: 0x8, addend: 0x0, symName: __ZNSt3__1neB8ue170006INS_16reverse_iteratorIP7BVectorEES4_EEbRKNS1_IT_EERKNS1_IT0_EE, symObjAddr: 0x91E8, symBinAddr: 0x10000D234, symSize: 0x60 }
  - { offsetInCU: 0x1B3C4, offset: 0x1B3C4, size: 0x8, addend: 0x0, symName: __ZNSt3__112__to_addressB8ue170006INS_16reverse_iteratorINS1_IP7BVectorEEEEvEEu7__decayIDTclsr19__to_address_helperIT_EE6__callclsr3stdE7declvalIRKS6_EEEEES8_, symObjAddr: 0x9274, symBinAddr: 0x10000D2C0, symSize: 0x24 }
  - { offsetInCU: 0x1B424, offset: 0x1B424, size: 0x8, addend: 0x0, symName: __ZNSt3__1eqB8ue170006IP7BVectorEEbRKNS_11__wrap_iterIT_EES7_, symObjAddr: 0x983C, symBinAddr: 0x10000D888, symSize: 0x48 }
  - { offsetInCU: 0x1B467, offset: 0x1B467, size: 0x8, addend: 0x0, symName: __ZNSt3__14swapB8ue170006I7BVectorEENS_9enable_ifIXaasr21is_move_constructibleIT_EE5valuesr18is_move_assignableIS3_EE5valueEvE4typeERS3_S6_, symObjAddr: 0x9A18, symBinAddr: 0x10000DA64, symSize: 0x50 }
  - { offsetInCU: 0x1B4B8, offset: 0x1B4B8, size: 0x8, addend: 0x0, symName: __ZNSt3__122__make_exception_guardB8ue170006INS_6vectorIyNS_9allocatorIyEEE16__destroy_vectorEEENS_28__exception_guard_exceptionsIT_EES7_, symObjAddr: 0xA00C, symBinAddr: 0x10000E058, symSize: 0x40 }
  - { offsetInCU: 0x1B4ED, offset: 0x1B4ED, size: 0x8, addend: 0x0, symName: __ZNSt3__130__uninitialized_allocator_copyB8ue170006INS_9allocatorIyEEPyS3_S3_EET2_RT_T0_T1_S4_, symObjAddr: 0xA224, symBinAddr: 0x10000E270, symSize: 0x80 }
  - { offsetInCU: 0x1B58A, offset: 0x1B58A, size: 0x8, addend: 0x0, symName: __ZNSt3__114__unwrap_rangeB8ue170006IPyS1_EENS_4pairIT0_S3_EET_S5_, symObjAddr: 0xA2A4, symBinAddr: 0x10000E2F0, symSize: 0x60 }
  - { offsetInCU: 0x1B5D6, offset: 0x1B5D6, size: 0x8, addend: 0x0, symName: __ZNSt3__135__uninitialized_allocator_copy_implB8ue170006INS_9allocatorIyEEyyyLPv0EEEPT2_RT_PT0_S9_S5_, symObjAddr: 0xA304, symBinAddr: 0x10000E350, symSize: 0x38 }
  - { offsetInCU: 0x1B658, offset: 0x1B658, size: 0x8, addend: 0x0, symName: __ZNSt3__113__unwrap_iterB8ue170006IPyNS_18__unwrap_iter_implIS1_Lb1EEELi0EEEDTclsrT0_8__unwrapclsr3stdE7declvalIT_EEEES5_, symObjAddr: 0xA33C, symBinAddr: 0x10000E388, symSize: 0x24 }
  - { offsetInCU: 0x1B69C, offset: 0x1B69C, size: 0x8, addend: 0x0, symName: __ZNSt3__113__rewrap_iterB8ue170006IPyS1_NS_18__unwrap_iter_implIS1_Lb1EEEEET_S4_T0_, symObjAddr: 0xA360, symBinAddr: 0x10000E3AC, symSize: 0x3C }
  - { offsetInCU: 0x1B6F1, offset: 0x1B6F1, size: 0x8, addend: 0x0, symName: __ZNSt3__19make_pairB8ue170006IPyS1_EENS_4pairINS_18__unwrap_ref_decayIT_E4typeENS3_IT0_E4typeEEEOS4_OS7_, symObjAddr: 0xA39C, symBinAddr: 0x10000E3E8, symSize: 0x38 }
  - { offsetInCU: 0x1B843, offset: 0x1B843, size: 0x8, addend: 0x0, symName: __ZNSt3__14copyB8ue170006IPyS1_EET0_T_S3_S2_, symObjAddr: 0xA444, symBinAddr: 0x10000E490, symSize: 0x40 }
  - { offsetInCU: 0x1B89D, offset: 0x1B89D, size: 0x8, addend: 0x0, symName: __ZNSt3__16__copyB8ue170006INS_17_ClassicAlgPolicyEPyS2_S2_EENS_4pairIT0_T2_EES4_T1_S5_, symObjAddr: 0xA484, symBinAddr: 0x10000E4D0, symSize: 0x44 }
  - { offsetInCU: 0x1B909, offset: 0x1B909, size: 0x8, addend: 0x0, symName: __ZNSt3__123__dispatch_copy_or_moveB8ue170006INS_17_ClassicAlgPolicyENS_11__copy_loopIS1_EENS_14__copy_trivialEPyS5_S5_EENS_4pairIT2_T4_EES7_T3_S8_, symObjAddr: 0xA4C8, symBinAddr: 0x10000E514, symSize: 0x44 }
  - { offsetInCU: 0x1B987, offset: 0x1B987, size: 0x8, addend: 0x0, symName: __ZNSt3__121__unwrap_and_dispatchB8ue170006INS_10__overloadINS_11__copy_loopINS_17_ClassicAlgPolicyEEENS_14__copy_trivialEEEPyS7_S7_Li0EEENS_4pairIT0_T2_EES9_T1_SA_, symObjAddr: 0xA50C, symBinAddr: 0x10000E558, symSize: 0xB4 }
  - { offsetInCU: 0x1BA97, offset: 0x1BA97, size: 0x8, addend: 0x0, symName: __ZNSt3__114__rewrap_rangeB8ue170006IPyS1_EET_S2_T0_, symObjAddr: 0xA608, symBinAddr: 0x10000E654, symSize: 0x2C }
  - { offsetInCU: 0x1BAE3, offset: 0x1BAE3, size: 0x8, addend: 0x0, symName: __ZNSt3__119__copy_trivial_implB8ue170006IyyEENS_4pairIPT_PT0_EES3_S3_S5_, symObjAddr: 0xA634, symBinAddr: 0x10000E680, symSize: 0x80 }
  - { offsetInCU: 0x1BB4B, offset: 0x1BB4B, size: 0x8, addend: 0x0, symName: __ZNSt3__119__constexpr_memmoveB8ue170006IyyLi0EEEPT_S2_PT0_NS_15__element_countE, symObjAddr: 0xA6B4, symBinAddr: 0x10000E700, symSize: 0x64 }
  - { offsetInCU: 0x1BBB9, offset: 0x1BBB9, size: 0x8, addend: 0x0, symName: __ZNSt3__19make_pairB8ue170006IRPyS1_EENS_4pairINS_18__unwrap_ref_decayIT_E4typeENS4_IT0_E4typeEEEOS5_OS8_, symObjAddr: 0xA718, symBinAddr: 0x10000E764, symSize: 0x38 }
  - { offsetInCU: 0x1BC5B, offset: 0x1BC5B, size: 0x8, addend: 0x0, symName: __ZNSt3__1neB8ue170006IPyEEbRKNS_11__wrap_iterIT_EES6_, symObjAddr: 0xA8DC, symBinAddr: 0x10000E928, symSize: 0x34 }
  - { offsetInCU: 0x1BC9E, offset: 0x1BC9E, size: 0x8, addend: 0x0, symName: __ZNSt3__1eqB8ue170006IPyEEbRKNS_11__wrap_iterIT_EES6_, symObjAddr: 0xA9CC, symBinAddr: 0x10000EA18, symSize: 0x48 }
  - { offsetInCU: 0x1BCE1, offset: 0x1BCE1, size: 0x8, addend: 0x0, symName: __ZNSt3__122__make_exception_guardB8ue170006INS_6vectorI7BVectorNS_9allocatorIS2_EEE16__destroy_vectorEEENS_28__exception_guard_exceptionsIT_EES8_, symObjAddr: 0xAF28, symBinAddr: 0x10000EF74, symSize: 0x40 }
  - { offsetInCU: 0x1BD16, offset: 0x1BD16, size: 0x8, addend: 0x0, symName: __ZNSt3__130__uninitialized_allocator_copyB8ue170006INS_9allocatorI7BVectorEEPS2_S4_S4_EET2_RT_T0_T1_S5_, symObjAddr: 0xB140, symBinAddr: 0x10000F18C, symSize: 0x80 }
  - { offsetInCU: 0x1BDB3, offset: 0x1BDB3, size: 0x8, addend: 0x0, symName: __ZNSt3__114__unwrap_rangeB8ue170006IP7BVectorS2_EENS_4pairIT0_S4_EET_S6_, symObjAddr: 0xB1C0, symBinAddr: 0x10000F20C, symSize: 0x60 }
  - { offsetInCU: 0x1BDFF, offset: 0x1BDFF, size: 0x8, addend: 0x0, symName: __ZNSt3__135__uninitialized_allocator_copy_implB8ue170006INS_9allocatorI7BVectorEEPS2_S4_S4_EET2_RT_T0_T1_S5_, symObjAddr: 0xB220, symBinAddr: 0x10000F26C, symSize: 0xF4 }
  - { offsetInCU: 0x1BE9D, offset: 0x1BE9D, size: 0x8, addend: 0x0, symName: __ZNSt3__113__unwrap_iterB8ue170006IP7BVectorNS_18__unwrap_iter_implIS2_Lb1EEELi0EEEDTclsrT0_8__unwrapclsr3stdE7declvalIT_EEEES6_, symObjAddr: 0xB314, symBinAddr: 0x10000F360, symSize: 0x24 }
  - { offsetInCU: 0x1BEE1, offset: 0x1BEE1, size: 0x8, addend: 0x0, symName: __ZNSt3__113__rewrap_iterB8ue170006IP7BVectorS2_NS_18__unwrap_iter_implIS2_Lb1EEEEET_S5_T0_, symObjAddr: 0xB338, symBinAddr: 0x10000F384, symSize: 0x3C }
  - { offsetInCU: 0x1BF36, offset: 0x1BF36, size: 0x8, addend: 0x0, symName: __ZNSt3__19make_pairB8ue170006IP7BVectorS2_EENS_4pairINS_18__unwrap_ref_decayIT_E4typeENS4_IT0_E4typeEEEOS5_OS8_, symObjAddr: 0xB374, symBinAddr: 0x10000F3C0, symSize: 0x38 }
  - { offsetInCU: 0x1C059, offset: 0x1C059, size: 0x8, addend: 0x0, symName: __ZNSt3__122__make_exception_guardB8ue170006INS_29_AllocatorDestroyRangeReverseINS_9allocatorI7BVectorEEPS3_EEEENS_28__exception_guard_exceptionsIT_EES8_, symObjAddr: 0xB41C, symBinAddr: 0x10000F468, symSize: 0x4C }
  - { offsetInCU: 0x1C08F, offset: 0x1C08F, size: 0x8, addend: 0x0, symName: __ZNSt3__119__allocator_destroyB8ue170006INS_9allocatorI7BVectorEENS_16reverse_iteratorIPS2_EES6_EEvRT_T0_T1_, symObjAddr: 0xB6AC, symBinAddr: 0x10000F6F8, symSize: 0x70 }
  - { offsetInCU: 0x1C145, offset: 0x1C145, size: 0x8, addend: 0x0, symName: __ZNSt3__1eqB8ue170006IPiEEbRKNS_11__wrap_iterIT_EES6_, symObjAddr: 0xBC64, symBinAddr: 0x10000FCB0, symSize: 0x48 }
  - { offsetInCU: 0x1C188, offset: 0x1C188, size: 0x8, addend: 0x0, symName: __ZNSt3__18distanceB8ue170006IP7BVectorEENS_15iterator_traitsIT_E15difference_typeES4_S4_, symObjAddr: 0xBF2C, symBinAddr: 0x10000FF78, symSize: 0x2C }
  - { offsetInCU: 0x1C1CB, offset: 0x1C1CB, size: 0x8, addend: 0x0, symName: __ZNSt3__14nextB8ue170006IP7BVectorEENS_9enable_ifIXsr29__has_input_iterator_categoryIT_EE5valueES4_E4typeES4_NS_15iterator_traitsIS4_E15difference_typeE, symObjAddr: 0xBF58, symBinAddr: 0x10000FFA4, symSize: 0x34 }
  - { offsetInCU: 0x1C20E, offset: 0x1C20E, size: 0x8, addend: 0x0, symName: __ZNSt3__14copyB8ue170006IP7BVectorS2_EET0_T_S4_S3_, symObjAddr: 0xBF8C, symBinAddr: 0x10000FFD8, symSize: 0x40 }
  - { offsetInCU: 0x1C268, offset: 0x1C268, size: 0x8, addend: 0x0, symName: __ZNSt3__16__copyB8ue170006INS_17_ClassicAlgPolicyEP7BVectorS3_S3_EENS_4pairIT0_T2_EES5_T1_S6_, symObjAddr: 0xBFCC, symBinAddr: 0x100010018, symSize: 0x44 }
  - { offsetInCU: 0x1C2D5, offset: 0x1C2D5, size: 0x8, addend: 0x0, symName: __ZNSt3__121__convert_to_integralB8ue170006El, symObjAddr: 0xC0DC, symBinAddr: 0x100010128, symSize: 0x14 }
  - { offsetInCU: 0x1C302, offset: 0x1C302, size: 0x8, addend: 0x0, symName: __ZNSt3__19__advanceB8ue170006IP7BVectorEEvRT_NS_15iterator_traitsIS3_E15difference_typeENS_26random_access_iterator_tagE, symObjAddr: 0xC0F0, symBinAddr: 0x10001013C, symSize: 0x28 }
  - { offsetInCU: 0x1C34B, offset: 0x1C34B, size: 0x8, addend: 0x0, symName: __ZNSt3__123__dispatch_copy_or_moveB8ue170006INS_17_ClassicAlgPolicyENS_11__copy_loopIS1_EENS_14__copy_trivialEP7BVectorS6_S6_EENS_4pairIT2_T4_EES8_T3_S9_, symObjAddr: 0xC118, symBinAddr: 0x100010164, symSize: 0x44 }
  - { offsetInCU: 0x1C3C9, offset: 0x1C3C9, size: 0x8, addend: 0x0, symName: __ZNSt3__121__unwrap_and_dispatchB8ue170006INS_10__overloadINS_11__copy_loopINS_17_ClassicAlgPolicyEEENS_14__copy_trivialEEEP7BVectorS8_S8_Li0EEENS_4pairIT0_T2_EESA_T1_SB_, symObjAddr: 0xC15C, symBinAddr: 0x1000101A8, symSize: 0xB4 }
  - { offsetInCU: 0x1C527, offset: 0x1C527, size: 0x8, addend: 0x0, symName: __ZNSt3__114__rewrap_rangeB8ue170006IP7BVectorS2_EET_S3_T0_, symObjAddr: 0xC298, symBinAddr: 0x1000102E4, symSize: 0x2C }
  - { offsetInCU: 0x1C573, offset: 0x1C573, size: 0x8, addend: 0x0, symName: __ZNSt3__18distanceB8ue170006IPyEENS_15iterator_traitsIT_E15difference_typeES3_S3_, symObjAddr: 0xC56C, symBinAddr: 0x1000105B8, symSize: 0x2C }
  - { offsetInCU: 0x1C5B6, offset: 0x1C5B6, size: 0x8, addend: 0x0, symName: __ZNSt3__14nextB8ue170006IPyEENS_9enable_ifIXsr29__has_input_iterator_categoryIT_EE5valueES3_E4typeES3_NS_15iterator_traitsIS3_E15difference_typeE, symObjAddr: 0xC598, symBinAddr: 0x1000105E4, symSize: 0x34 }
  - { offsetInCU: 0x1C5FA, offset: 0x1C5FA, size: 0x8, addend: 0x0, symName: __ZNSt3__19__advanceB8ue170006IPyEEvRT_NS_15iterator_traitsIS2_E15difference_typeENS_26random_access_iterator_tagE, symObjAddr: 0xC604, symBinAddr: 0x100010650, symSize: 0x28 }
  - { offsetInCU: 0x1C644, offset: 0x1C644, size: 0x8, addend: 0x0, symName: __ZNSt3__110__distanceB8ue170006IPyEENS_15iterator_traitsIT_E15difference_typeES3_S3_NS_26random_access_iterator_tagE, symObjAddr: 0xC62C, symBinAddr: 0x100010678, symSize: 0x28 }
  - { offsetInCU: 0x1C692, offset: 0x1C692, size: 0x8, addend: 0x0, symName: __ZNSt3__110__distanceB8ue170006IP7BVectorEENS_15iterator_traitsIT_E15difference_typeES4_S4_NS_26random_access_iterator_tagE, symObjAddr: 0xC698, symBinAddr: 0x1000106E4, symSize: 0x28 }
  - { offsetInCU: 0x1C6DF, offset: 0x1C6DF, size: 0x8, addend: 0x0, symName: __ZNSt3__1eqB8ue170006IPNS_4pairI7BMatrixiEEEEbRKNS_11__wrap_iterIT_EES9_, symObjAddr: 0xC6C0, symBinAddr: 0x10001070C, symSize: 0x48 }
  - { offsetInCU: 0x1C722, offset: 0x1C722, size: 0x8, addend: 0x0, symName: __ZNSt3__13maxB8ue170006IiNS_6__lessIvvEEEERKT_S5_S5_T0_, symObjAddr: 0xC78C, symBinAddr: 0x1000107D8, symSize: 0x54 }
  - { offsetInCU: 0x1C7B1, offset: 0x1C7B1, size: 0x8, addend: 0x0, symName: __ZNSt3__14sortB8ue170006INS_11__wrap_iterIP7BVectorEEZN7BMatrix9sort_rowsEvEUlRKS2_S7_E_EEvT_S9_T0_, symObjAddr: 0xCB44, symBinAddr: 0x100010B90, symSize: 0x40 }
  - { offsetInCU: 0x1C80B, offset: 0x1C80B, size: 0x8, addend: 0x0, symName: __ZNSt3__111__sort_implB8ue170006INS_17_ClassicAlgPolicyENS_11__wrap_iterIP7BVectorEEZN7BMatrix9sort_rowsEvEUlRKS3_S8_E_EEvT0_SA_RT1_, symObjAddr: 0xCB84, symBinAddr: 0x100010BD0, symSize: 0xA8 }
  - { offsetInCU: 0x1C86F, offset: 0x1C86F, size: 0x8, addend: 0x0, symName: __ZNSt3__123__debug_randomize_rangeB8ue170006INS_17_ClassicAlgPolicyENS_11__wrap_iterIP7BVectorEES5_EEvT0_T1_, symObjAddr: 0xCC2C, symBinAddr: 0x100010C78, symSize: 0x14 }
  - { offsetInCU: 0x1C8C0, offset: 0x1C8C0, size: 0x8, addend: 0x0, symName: __ZNSt3__115__sort_dispatchB8ue170006INS_17_ClassicAlgPolicyEP7BVectorZN7BMatrix9sort_rowsEvEUlRKS2_S6_E_EEvT0_S8_RT1_, symObjAddr: 0xCC40, symBinAddr: 0x100010C8C, symSize: 0x64 }
  - { offsetInCU: 0x1C93E, offset: 0x1C93E, size: 0x8, addend: 0x0, symName: __ZNSt3__113__unwrap_iterB8ue170006INS_11__wrap_iterIP7BVectorEENS_18__unwrap_iter_implIS4_Lb1EEELi0EEEDTclsrT0_8__unwrapclsr3stdE7declvalIT_EEEES8_, symObjAddr: 0xCCA4, symBinAddr: 0x100010CF0, symSize: 0x2C }
  - { offsetInCU: 0x1C983, offset: 0x1C983, size: 0x8, addend: 0x0, symName: __ZNSt3__135__check_strict_weak_ordering_sortedB8ue170006IP7BVectorZN7BMatrix9sort_rowsEvEUlRKS1_S5_E_EEvT_S7_RT0_, symObjAddr: 0xCCD0, symBinAddr: 0x100010D1C, symSize: 0x18 }
  - { offsetInCU: 0x1C9D9, offset: 0x1C9D9, size: 0x8, addend: 0x0, symName: __ZNSt3__17__log2iB8ue170006IlEET_S1_, symObjAddr: 0xCCE8, symBinAddr: 0x100010D34, symSize: 0x54 }
  - { offsetInCU: 0x1CA11, offset: 0x1CA11, size: 0x8, addend: 0x0, symName: __ZNSt3__112__libcpp_clzB8ue170006Em, symObjAddr: 0xD188, symBinAddr: 0x1000111D4, symSize: 0x1C }
  - { offsetInCU: 0x1CA3D, offset: 0x1CA3D, size: 0x8, addend: 0x0, symName: __ZNSt3__124__sort3_maybe_branchlessB8ue170006INS_17_ClassicAlgPolicyERZN7BMatrix9sort_rowsEvEUlRK7BVectorS5_E_PS3_EENS_9enable_ifIXntsr21__use_branchless_sortIT0_T1_EE5valueEvE4typeESB_SB_SB_SA_, symObjAddr: 0xD20C, symBinAddr: 0x100011258, symSize: 0x3C }
  - { offsetInCU: 0x1CAAE, offset: 0x1CAAE, size: 0x8, addend: 0x0, symName: __ZNSt3__124__sort4_maybe_branchlessB8ue170006INS_17_ClassicAlgPolicyERZN7BMatrix9sort_rowsEvEUlRK7BVectorS5_E_PS3_EENS_9enable_ifIXntsr21__use_branchless_sortIT0_T1_EE5valueEvE4typeESB_SB_SB_SB_SA_, symObjAddr: 0xD248, symBinAddr: 0x100011294, symSize: 0x44 }
  - { offsetInCU: 0x1CB2D, offset: 0x1CB2D, size: 0x8, addend: 0x0, symName: __ZNSt3__124__sort5_maybe_branchlessB8ue170006INS_17_ClassicAlgPolicyERZN7BMatrix9sort_rowsEvEUlRK7BVectorS5_E_PS3_EENS_9enable_ifIXntsr21__use_branchless_sortIT0_T1_EE5valueEvE4typeESB_SB_SB_SB_SB_SA_, symObjAddr: 0xD28C, symBinAddr: 0x1000112D8, symSize: 0x4C }
  - { offsetInCU: 0x1CBBA, offset: 0x1CBBA, size: 0x8, addend: 0x0, symName: __ZNSt3__116__insertion_sortB8ue170006INS_17_ClassicAlgPolicyERZN7BMatrix9sort_rowsEvEUlRK7BVectorS5_E_PS3_EEvT1_S9_T0_, symObjAddr: 0xD2D8, symBinAddr: 0x100011324, symSize: 0x194 }
  - { offsetInCU: 0x1CC6D, offset: 0x1CC6D, size: 0x8, addend: 0x0, symName: __ZNSt3__114__partial_sortB8ue170006INS_17_ClassicAlgPolicyERZN7BMatrix9sort_rowsEvEUlRK7BVectorS5_E_PS3_S8_EET1_S9_S9_T2_RT0_, symObjAddr: 0xD5D0, symBinAddr: 0x10001161C, symSize: 0x94 }
  - { offsetInCU: 0x1CCF5, offset: 0x1CCF5, size: 0x8, addend: 0x0, symName: __ZNSt3__17__sort3B8ue170006INS_17_ClassicAlgPolicyERZN7BMatrix9sort_rowsEvEUlRK7BVectorS5_E_PS3_EEjT1_S9_S9_T0_, symObjAddr: 0xD664, symBinAddr: 0x1000116B0, symSize: 0x144 }
  - { offsetInCU: 0x1CD74, offset: 0x1CD74, size: 0x8, addend: 0x0, symName: __ZNSt3__1gtB8ue170006IyNS_9allocatorIyEEEEbRKNS_6vectorIT_T0_EES8_, symObjAddr: 0xE440, symBinAddr: 0x10001248C, symSize: 0x30 }
  - { offsetInCU: 0x1CDC3, offset: 0x1CDC3, size: 0x8, addend: 0x0, symName: __ZNSt3__1ltB8ue170006IyNS_9allocatorIyEEEEbRKNS_6vectorIT_T0_EES8_, symObjAddr: 0xE470, symBinAddr: 0x1000124BC, symSize: 0x68 }
  - { offsetInCU: 0x1CE12, offset: 0x1CE12, size: 0x8, addend: 0x0, symName: __ZNSt3__123lexicographical_compareB8ue170006INS_11__wrap_iterIPKyEES4_EEbT_S5_T0_S6_, symObjAddr: 0xE4D8, symBinAddr: 0x100012524, symSize: 0x60 }
  - { offsetInCU: 0x1CE7A, offset: 0x1CE7A, size: 0x8, addend: 0x0, symName: __ZNSt3__123lexicographical_compareB8ue170006INS_11__wrap_iterIPKyEES4_NS_6__lessIvvEEEEbT_S7_T0_S8_T1_, symObjAddr: 0xE598, symBinAddr: 0x1000125E4, symSize: 0x64 }
  - { offsetInCU: 0x1CEF9, offset: 0x1CEF9, size: 0x8, addend: 0x0, symName: __ZNSt3__125__lexicographical_compareB8ue170006IRNS_6__lessIvvEENS_11__wrap_iterIPKyEES7_EEbT0_S8_T1_S9_T_, symObjAddr: 0xE5FC, symBinAddr: 0x100012648, symSize: 0x11C }
  - { offsetInCU: 0x1CF78, offset: 0x1CF78, size: 0x8, addend: 0x0, symName: __ZNSt3__1neB8ue170006IPKyEEbRKNS_11__wrap_iterIT_EES7_, symObjAddr: 0xE718, symBinAddr: 0x100012764, symSize: 0x34 }
  - { offsetInCU: 0x1CFBB, offset: 0x1CFBB, size: 0x8, addend: 0x0, symName: __ZNSt3__1eqB8ue170006IPKyEEbRKNS_11__wrap_iterIT_EES7_, symObjAddr: 0xE74C, symBinAddr: 0x100012798, symSize: 0x48 }
  - { offsetInCU: 0x1CFFE, offset: 0x1CFFE, size: 0x8, addend: 0x0, symName: __ZNSt3__19iter_swapB8ue170006IP7BVectorS2_EEvT_T0_, symObjAddr: 0xE89C, symBinAddr: 0x1000128E8, symSize: 0x2C }
  - { offsetInCU: 0x1D046, offset: 0x1D046, size: 0x8, addend: 0x0, symName: __ZNSt3__17__sort4B8ue170006INS_17_ClassicAlgPolicyERZN7BMatrix9sort_rowsEvEUlRK7BVectorS5_E_PS3_EEvT1_S9_S9_S9_T0_, symObjAddr: 0xE8C8, symBinAddr: 0x100012914, symSize: 0xB8 }
  - { offsetInCU: 0x1D0C1, offset: 0x1D0C1, size: 0x8, addend: 0x0, symName: __ZNSt3__17__sort5B8ue170006INS_17_ClassicAlgPolicyERZN7BMatrix9sort_rowsEvEUlRK7BVectorS5_E_PS3_EEvT1_S9_S9_S9_S9_T0_, symObjAddr: 0xE980, symBinAddr: 0x1000129CC, symSize: 0xE8 }
  - { offsetInCU: 0x1D16F, offset: 0x1D16F, size: 0x8, addend: 0x0, symName: __ZNSt3__123__debug_randomize_rangeB8ue170006INS_17_ClassicAlgPolicyEP7BVectorS3_EEvT0_T1_, symObjAddr: 0xEAAC, symBinAddr: 0x100012AF8, symSize: 0x14 }
  - { offsetInCU: 0x1D1C0, offset: 0x1D1C0, size: 0x8, addend: 0x0, symName: __ZNSt3__119__partial_sort_implB8ue170006INS_17_ClassicAlgPolicyERZN7BMatrix9sort_rowsEvEUlRK7BVectorS5_E_PS3_S8_EET1_S9_S9_T2_OT0_, symObjAddr: 0xEAC0, symBinAddr: 0x100012B0C, symSize: 0x110 }
  - { offsetInCU: 0x1D256, offset: 0x1D256, size: 0x8, addend: 0x0, symName: __ZNSt3__111__make_heapB8ue170006INS_17_ClassicAlgPolicyERZN7BMatrix9sort_rowsEvEUlRK7BVectorS5_E_PS3_EEvT1_S9_OT0_, symObjAddr: 0xEBD0, symBinAddr: 0x100012C1C, symSize: 0xB8 }
  - { offsetInCU: 0x1D2F8, offset: 0x1D2F8, size: 0x8, addend: 0x0, symName: __ZNSt3__111__sort_heapB8ue170006INS_17_ClassicAlgPolicyERZN7BMatrix9sort_rowsEvEUlRK7BVectorS5_E_PS3_EEvT1_S9_OT0_, symObjAddr: 0xEEE4, symBinAddr: 0x100012F30, symSize: 0xA8 }
  - { offsetInCU: 0x1D39A, offset: 0x1D39A, size: 0x8, addend: 0x0, symName: __ZNSt3__110__pop_heapB8ue170006INS_17_ClassicAlgPolicyEZN7BMatrix9sort_rowsEvEUlRK7BVectorS5_E_PS3_EEvT1_S8_RT0_NS_15iterator_traitsIS8_E15difference_typeE, symObjAddr: 0xEF8C, symBinAddr: 0x100012FD8, symSize: 0x138 }
  - { offsetInCU: 0x1D442, offset: 0x1D442, size: 0x8, addend: 0x0, symName: __ZNSt3__19__sift_upB8ue170006INS_17_ClassicAlgPolicyERZN7BMatrix9sort_rowsEvEUlRK7BVectorS5_E_PS3_EEvT1_S9_OT0_NS_15iterator_traitsIS9_E15difference_typeE, symObjAddr: 0xF1C4, symBinAddr: 0x100013210, symSize: 0x160 }
  - { offsetInCU: 0x1D4E2, offset: 0x1D4E2, size: 0x8, addend: 0x0, symName: __ZNSt3__122__populate_left_bitsetB8ue170006IRZN7BMatrix9sort_rowsEvEUlRK7BVectorS4_E_PS2_S2_EEvT0_T_RT1_Ry, symObjAddr: 0xF324, symBinAddr: 0x100013370, symSize: 0xA8 }
  - { offsetInCU: 0x1D59D, offset: 0x1D59D, size: 0x8, addend: 0x0, symName: __ZNSt3__123__populate_right_bitsetB8ue170006IRZN7BMatrix9sort_rowsEvEUlRK7BVectorS4_E_PS2_S2_EEvT0_T_RT1_Ry, symObjAddr: 0xF3CC, symBinAddr: 0x100013418, symSize: 0xA0 }
  - { offsetInCU: 0x1D658, offset: 0x1D658, size: 0x8, addend: 0x0, symName: __ZNSt3__117__swap_bitmap_posB8ue170006INS_17_ClassicAlgPolicyEP7BVectorEEvT0_S4_RyS5_, symObjAddr: 0xF46C, symBinAddr: 0x1000134B8, symSize: 0x100 }
  - { offsetInCU: 0x1D6F9, offset: 0x1D6F9, size: 0x8, addend: 0x0, symName: __ZNSt3__133__bitset_partition_partial_blocksB8ue170006INS_17_ClassicAlgPolicyERZN7BMatrix9sort_rowsEvEUlRK7BVectorS5_E_PS3_S3_EEvRT1_SA_T0_RT2_RySE_, symObjAddr: 0xF56C, symBinAddr: 0x1000135B8, symSize: 0x2E8 }
  - { offsetInCU: 0x1D87A, offset: 0x1D87A, size: 0x8, addend: 0x0, symName: __ZNSt3__19make_pairB8ue170006IRP7BVectorRbEENS_4pairINS_18__unwrap_ref_decayIT_E4typeENS6_IT0_E4typeEEEOS7_OSA_, symObjAddr: 0xFA34, symBinAddr: 0x100013A80, symSize: 0x38 }
  - { offsetInCU: 0x1D8CA, offset: 0x1D8CA, size: 0x8, addend: 0x0, symName: __ZNSt3__112__libcpp_ctzB8ue170006Ey, symObjAddr: 0xFA6C, symBinAddr: 0x100013AB8, symSize: 0x20 }
  - { offsetInCU: 0x1D8F7, offset: 0x1D8F7, size: 0x8, addend: 0x0, symName: __ZNSt3__113__libcpp_blsrB8ue170006Ey, symObjAddr: 0xFA8C, symBinAddr: 0x100013AD8, symSize: 0x2C }
  - { offsetInCU: 0x1D924, offset: 0x1D924, size: 0x8, addend: 0x0, symName: __ZNSt3__112__libcpp_clzB8ue170006Ey, symObjAddr: 0xFAEC, symBinAddr: 0x100013B38, symSize: 0x1C }
  - { offsetInCU: 0x1DA77, offset: 0x1DA77, size: 0x8, addend: 0x0, symName: __ZNSt3__112__to_addressB8ue170006INS_11__wrap_iterIP7BVectorEEvEEu7__decayIDTclsr19__to_address_helperIT_EE6__callclsr3stdE7declvalIRKS5_EEEEES7_, symObjAddr: 0xFBA4, symBinAddr: 0x100013BF0, symSize: 0x24 }
  - { offsetInCU: 0x1DB53, offset: 0x1DB53, size: 0x8, addend: 0x0, symName: __ZNSt3__13minB8ue170006IiNS_6__lessIvvEEEERKT_S5_S5_T0_, symObjAddr: 0xFC24, symBinAddr: 0x100013C70, symSize: 0x54 }
  - { offsetInCU: 0x1DBAD, offset: 0x1DBAD, size: 0x8, addend: 0x0, symName: __ZNSt3__116__pad_and_outputB8ue170006IcNS_11char_traitsIcEEEENS_19ostreambuf_iteratorIT_T0_EES6_PKS4_S8_S8_RNS_8ios_baseES4_, symObjAddr: 0x100C4, symBinAddr: 0x100014110, symSize: 0x240 }
  - { offsetInCU: 0x1DC7D, offset: 0x1DC7D, size: 0x8, addend: 0x0, symName: __ZNSt3__112__to_addressB8ue170006IKcEEPT_S3_, symObjAddr: 0x10534, symBinAddr: 0x100014580, symSize: 0x14 }
  - { offsetInCU: 0x1DCE5, offset: 0x1DCE5, size: 0x8, addend: 0x0, symName: __ZNSt3__19use_facetB8ue170006INS_5ctypeIcEEEERKT_RKNS_6localeE, symObjAddr: 0x107B4, symBinAddr: 0x100014800, symSize: 0x2C }
  - { offsetInCU: 0x1E1B4, offset: 0x1E1B4, size: 0x8, addend: 0x0, symName: __ZNSt3__112__to_addressB8ue170006IiEEPT_S2_, symObjAddr: 0x10CF8, symBinAddr: 0x100014D44, symSize: 0x14 }
  - { offsetInCU: 0x1E1E9, offset: 0x1E1E9, size: 0x8, addend: 0x0, symName: __ZNSt3__119__allocate_at_leastB8ue170006INS_9allocatorIiEEEENS_19__allocation_resultINS_16allocator_traitsIT_E7pointerEEERS5_m, symObjAddr: 0x11588, symBinAddr: 0x1000155D4, symSize: 0x40 }
  - { offsetInCU: 0x1E22C, offset: 0x1E22C, size: 0x8, addend: 0x0, symName: __ZNSt3__142__uninitialized_allocator_move_if_noexceptB8ue170006INS_9allocatorIiEENS_16reverse_iteratorIPiEES5_ivEET1_RT_T0_S9_S6_, symObjAddr: 0x1173C, symBinAddr: 0x100015788, symSize: 0x78 }
  - { offsetInCU: 0x1E2AB, offset: 0x1E2AB, size: 0x8, addend: 0x0, symName: __ZNSt3__14swapB8ue170006IPiEENS_9enable_ifIXaasr21is_move_constructibleIT_EE5valuesr18is_move_assignableIS3_EE5valueEvE4typeERS3_S6_, symObjAddr: 0x11800, symBinAddr: 0x10001584C, symSize: 0x3C }
  - { offsetInCU: 0x1E2FC, offset: 0x1E2FC, size: 0x8, addend: 0x0, symName: __ZNSt3__14moveB8ue170006INS_16reverse_iteratorIPiEES3_EET0_T_S5_S4_, symObjAddr: 0x118E8, symBinAddr: 0x100015934, symSize: 0x78 }
  - { offsetInCU: 0x1E356, offset: 0x1E356, size: 0x8, addend: 0x0, symName: __ZNSt3__16__moveB8ue170006INS_17_ClassicAlgPolicyENS_16reverse_iteratorIPiEES4_S4_EENS_4pairIT0_T2_EES6_T1_S7_, symObjAddr: 0x11960, symBinAddr: 0x1000159AC, symSize: 0x64 }
  - { offsetInCU: 0x1E3C2, offset: 0x1E3C2, size: 0x8, addend: 0x0, symName: __ZNSt3__123__dispatch_copy_or_moveB8ue170006INS_17_ClassicAlgPolicyENS_11__move_loopIS1_EENS_14__move_trivialENS_16reverse_iteratorIPiEES7_S7_EENS_4pairIT2_T4_EES9_T3_SA_, symObjAddr: 0x119C4, symBinAddr: 0x100015A10, symSize: 0x64 }
  - { offsetInCU: 0x1E440, offset: 0x1E440, size: 0x8, addend: 0x0, symName: __ZNSt3__121__unwrap_and_dispatchB8ue170006INS_10__overloadINS_11__move_loopINS_17_ClassicAlgPolicyEEENS_14__move_trivialEEENS_16reverse_iteratorIPiEES9_S9_Li0EEENS_4pairIT0_T2_EESB_T1_SC_, symObjAddr: 0x11A28, symBinAddr: 0x100015A74, symSize: 0x12C }
  - { offsetInCU: 0x1E4D0, offset: 0x1E4D0, size: 0x8, addend: 0x0, symName: __ZNSt3__114__unwrap_rangeB8ue170006INS_16reverse_iteratorIPiEES3_EENS_4pairIT0_S5_EET_S7_, symObjAddr: 0x11B54, symBinAddr: 0x100015BA0, symSize: 0x84 }
  - { offsetInCU: 0x1E5F0, offset: 0x1E5F0, size: 0x8, addend: 0x0, symName: __ZNSt3__113__unwrap_iterB8ue170006INS_16reverse_iteratorIPiEENS_18__unwrap_iter_implIS3_Lb0EEELi0EEEDTclsrT0_8__unwrapclsr3stdE7declvalIT_EEEES7_, symObjAddr: 0x11C78, symBinAddr: 0x100015CC4, symSize: 0x44 }
  - { offsetInCU: 0x1E634, offset: 0x1E634, size: 0x8, addend: 0x0, symName: __ZNSt3__19make_pairB8ue170006INS_16reverse_iteratorIPiEES3_EENS_4pairINS_18__unwrap_ref_decayIT_E4typeENS5_IT0_E4typeEEEOS6_OS9_, symObjAddr: 0x11CBC, symBinAddr: 0x100015D08, symSize: 0x38 }
  - { offsetInCU: 0x1E683, offset: 0x1E683, size: 0x8, addend: 0x0, symName: __ZNSt3__114__rewrap_rangeB8ue170006INS_16reverse_iteratorIPiEES3_EET_S4_T0_, symObjAddr: 0x11CF4, symBinAddr: 0x100015D40, symSize: 0x5C }
  - { offsetInCU: 0x1E6CF, offset: 0x1E6CF, size: 0x8, addend: 0x0, symName: __ZNSt3__113__rewrap_iterB8ue170006INS_16reverse_iteratorIPiEES3_NS_18__unwrap_iter_implIS3_Lb0EEEEET_S6_T0_, symObjAddr: 0x11D50, symBinAddr: 0x100015D9C, symSize: 0x74 }
  - { offsetInCU: 0x1E724, offset: 0x1E724, size: 0x8, addend: 0x0, symName: __ZNSt3__1neB8ue170006IPiS1_EEbRKNS_16reverse_iteratorIT_EERKNS2_IT0_EE, symObjAddr: 0x11DC4, symBinAddr: 0x100015E10, symSize: 0x48 }
  - { offsetInCU: 0x1E9E8, offset: 0x1E9E8, size: 0x8, addend: 0x0, symName: __ZNSt3__119__allocate_at_leastB8ue170006INS_9allocatorImEEEENS_19__allocation_resultINS_16allocator_traitsIT_E7pointerEEERS5_m, symObjAddr: 0x12BD8, symBinAddr: 0x100016C24, symSize: 0x40 }
  - { offsetInCU: 0x1EA2B, offset: 0x1EA2B, size: 0x8, addend: 0x0, symName: __ZNSt3__16__copyB8ue170006INS_17_ClassicAlgPolicyENS_14__bit_iteratorINS_6vectorIbNS_9allocatorIbEEEELb0ELm0EEES7_S7_EENS_4pairIT0_T2_EES9_T1_SA_, symObjAddr: 0x12C94, symBinAddr: 0x100016CE0, symSize: 0x88 }
  - { offsetInCU: 0x1EA9A, offset: 0x1EA9A, size: 0x8, addend: 0x0, symName: __ZNSt3__123__dispatch_copy_or_moveB8ue170006INS_17_ClassicAlgPolicyENS_11__copy_loopIS1_EENS_14__copy_trivialENS_14__bit_iteratorINS_6vectorIbNS_9allocatorIbEEEELb0ELm0EEESA_SA_EENS_4pairIT2_T4_EESC_T3_SD_, symObjAddr: 0x12DB4, symBinAddr: 0x100016E00, symSize: 0x88 }
  - { offsetInCU: 0x1EB1B, offset: 0x1EB1B, size: 0x8, addend: 0x0, symName: __ZNSt3__121__unwrap_and_dispatchB8ue170006INS_10__overloadINS_11__copy_loopINS_17_ClassicAlgPolicyEEENS_14__copy_trivialEEENS_14__bit_iteratorINS_6vectorIbNS_9allocatorIbEEEELb0ELm0EEESC_SC_Li0EEENS_4pairIT0_T2_EESE_T1_SF_, symObjAddr: 0x12E3C, symBinAddr: 0x100016E88, symSize: 0x15C }
  - { offsetInCU: 0x1EBAE, offset: 0x1EBAE, size: 0x8, addend: 0x0, symName: __ZNSt3__114__unwrap_rangeB8ue170006INS_14__bit_iteratorINS_6vectorIbNS_9allocatorIbEEEELb0ELm0EEES6_EENS_4pairIT0_S8_EET_SA_, symObjAddr: 0x12F98, symBinAddr: 0x100016FE4, symSize: 0x8C }
  - { offsetInCU: 0x1ECD0, offset: 0x1ECD0, size: 0x8, addend: 0x0, symName: __ZNSt3__113__unwrap_iterB8ue170006INS_14__bit_iteratorINS_6vectorIbNS_9allocatorIbEEEELb0ELm0EEENS_18__unwrap_iter_implIS6_Lb0EEELi0EEEDTclsrT0_8__unwrapclsr3stdE7declvalIT_EEEESA_, symObjAddr: 0x130DC, symBinAddr: 0x100017128, symSize: 0x44 }
  - { offsetInCU: 0x1ED15, offset: 0x1ED15, size: 0x8, addend: 0x0, symName: __ZNSt3__19make_pairB8ue170006INS_14__bit_iteratorINS_6vectorIbNS_9allocatorIbEEEELb0ELm0EEES6_EENS_4pairINS_18__unwrap_ref_decayIT_E4typeENS8_IT0_E4typeEEEOS9_OSC_, symObjAddr: 0x13120, symBinAddr: 0x10001716C, symSize: 0x40 }
  - { offsetInCU: 0x1ED64, offset: 0x1ED64, size: 0x8, addend: 0x0, symName: __ZNSt3__114__rewrap_rangeB8ue170006INS_14__bit_iteratorINS_6vectorIbNS_9allocatorIbEEEELb0ELm0EEES6_EET_S7_T0_, symObjAddr: 0x13160, symBinAddr: 0x1000171AC, symSize: 0x6C }
  - { offsetInCU: 0x1EDB2, offset: 0x1EDB2, size: 0x8, addend: 0x0, symName: __ZNSt3__113__rewrap_iterB8ue170006INS_14__bit_iteratorINS_6vectorIbNS_9allocatorIbEEEELb0ELm0EEES6_NS_18__unwrap_iter_implIS6_Lb0EEEEET_S9_T0_, symObjAddr: 0x131CC, symBinAddr: 0x100017218, symSize: 0x74 }
  - { offsetInCU: 0x1EE09, offset: 0x1EE09, size: 0x8, addend: 0x0, symName: __ZNSt3__1neB8ue170006ERKNS_14__bit_iteratorINS_6vectorIbNS_9allocatorIbEEEELb0ELm0EEES7_, symObjAddr: 0x13240, symBinAddr: 0x10001728C, symSize: 0x34 }
  - { offsetInCU: 0x1EE47, offset: 0x1EE47, size: 0x8, addend: 0x0, symName: __ZNSt3__1eqB8ue170006ERKNS_14__bit_iteratorINS_6vectorIbNS_9allocatorIbEEEELb0ELm0EEES7_, symObjAddr: 0x13354, symBinAddr: 0x1000173A0, symSize: 0x64 }
  - { offsetInCU: 0x1EECD, offset: 0x1EECD, size: 0x8, addend: 0x0, symName: __ZNSt3__14swapB8ue170006IPmEENS_9enable_ifIXaasr21is_move_constructibleIT_EE5valuesr18is_move_assignableIS3_EE5valueEvE4typeERS3_S6_, symObjAddr: 0x135B4, symBinAddr: 0x100017600, symSize: 0x3C }
  - { offsetInCU: 0x1EF1F, offset: 0x1EF1F, size: 0x8, addend: 0x0, symName: __ZNSt3__14swapB8ue170006ImEENS_9enable_ifIXaasr21is_move_constructibleIT_EE5valuesr18is_move_assignableIS2_EE5valueEvE4typeERS2_S5_, symObjAddr: 0x135F0, symBinAddr: 0x10001763C, symSize: 0x3C }
  - { offsetInCU: 0x1EF71, offset: 0x1EF71, size: 0x8, addend: 0x0, symName: __ZNSt3__116__swap_allocatorB8ue170006INS_9allocatorImEEEEvRT_S4_NS_17integral_constantIbLb0EEE, symObjAddr: 0x1362C, symBinAddr: 0x100017678, symSize: 0x14 }
  - { offsetInCU: 0x1EFB2, offset: 0x1EFB2, size: 0x8, addend: 0x0, symName: __ZNSt3__16__copyB8ue170006INS_17_ClassicAlgPolicyENS_14__bit_iteratorINS_6vectorIbNS_9allocatorIbEEEELb1ELm0EEES7_NS2_IS6_Lb0ELm0EEEEENS_4pairIT0_T2_EESA_T1_SB_, symObjAddr: 0x138C0, symBinAddr: 0x10001790C, symSize: 0x7C }
  - { offsetInCU: 0x1F01F, offset: 0x1F01F, size: 0x8, addend: 0x0, symName: __ZNSt3__123__dispatch_copy_or_moveB8ue170006INS_17_ClassicAlgPolicyENS_11__copy_loopIS1_EENS_14__copy_trivialENS_14__bit_iteratorINS_6vectorIbNS_9allocatorIbEEEELb1ELm0EEESA_NS5_IS9_Lb0ELm0EEEEENS_4pairIT2_T4_EESD_T3_SE_, symObjAddr: 0x1393C, symBinAddr: 0x100017988, symSize: 0x7C }
  - { offsetInCU: 0x1F09E, offset: 0x1F09E, size: 0x8, addend: 0x0, symName: __ZNSt3__121__unwrap_and_dispatchB8ue170006INS_10__overloadINS_11__copy_loopINS_17_ClassicAlgPolicyEEENS_14__copy_trivialEEENS_14__bit_iteratorINS_6vectorIbNS_9allocatorIbEEEELb1ELm0EEESC_NS7_ISB_Lb0ELm0EEELi0EEENS_4pairIT0_T2_EESF_T1_SG_, symObjAddr: 0x139B8, symBinAddr: 0x100017A04, symSize: 0x150 }
  - { offsetInCU: 0x1F12F, offset: 0x1F12F, size: 0x8, addend: 0x0, symName: __ZNSt3__114__unwrap_rangeB8ue170006INS_14__bit_iteratorINS_6vectorIbNS_9allocatorIbEEEELb1ELm0EEES6_EENS_4pairIT0_S8_EET_SA_, symObjAddr: 0x13B08, symBinAddr: 0x100017B54, symSize: 0x84 }
  - { offsetInCU: 0x1F24F, offset: 0x1F24F, size: 0x8, addend: 0x0, symName: __ZNSt3__19make_pairB8ue170006INS_14__bit_iteratorINS_6vectorIbNS_9allocatorIbEEEELb1ELm0EEENS1_IS5_Lb0ELm0EEEEENS_4pairINS_18__unwrap_ref_decayIT_E4typeENS9_IT0_E4typeEEEOSA_OSD_, symObjAddr: 0x13C50, symBinAddr: 0x100017C9C, symSize: 0x40 }
  - { offsetInCU: 0x1F29E, offset: 0x1F29E, size: 0x8, addend: 0x0, symName: __ZNSt3__114__rewrap_rangeB8ue170006INS_14__bit_iteratorINS_6vectorIbNS_9allocatorIbEEEELb1ELm0EEES6_EET_S7_T0_, symObjAddr: 0x13C90, symBinAddr: 0x100017CDC, symSize: 0x5C }
  - { offsetInCU: 0x1F2EA, offset: 0x1F2EA, size: 0x8, addend: 0x0, symName: __ZNSt3__19make_pairB8ue170006INS_14__bit_iteratorINS_6vectorIbNS_9allocatorIbEEEELb1ELm0EEES6_EENS_4pairINS_18__unwrap_ref_decayIT_E4typeENS8_IT0_E4typeEEEOS9_OSC_, symObjAddr: 0x13CEC, symBinAddr: 0x100017D38, symSize: 0x38 }
  - { offsetInCU: 0x1F339, offset: 0x1F339, size: 0x8, addend: 0x0, symName: __ZNSt3__113__unwrap_iterB8ue170006INS_14__bit_iteratorINS_6vectorIbNS_9allocatorIbEEEELb1ELm0EEENS_18__unwrap_iter_implIS6_Lb0EEELi0EEEDTclsrT0_8__unwrapclsr3stdE7declvalIT_EEEESA_, symObjAddr: 0x13D24, symBinAddr: 0x100017D70, symSize: 0x44 }
  - { offsetInCU: 0x1F499, offset: 0x1F499, size: 0x8, addend: 0x0, symName: __ZNSt3__1neB8ue170006ERKNS_14__bit_iteratorINS_6vectorIbNS_9allocatorIbEEEELb1ELm0EEES7_, symObjAddr: 0x13DFC, symBinAddr: 0x100017E48, symSize: 0x34 }
  - { offsetInCU: 0x1F4D7, offset: 0x1F4D7, size: 0x8, addend: 0x0, symName: __ZNSt3__1eqB8ue170006ERKNS_14__bit_iteratorINS_6vectorIbNS_9allocatorIbEEEELb1ELm0EEES7_, symObjAddr: 0x13EFC, symBinAddr: 0x100017F48, symSize: 0x64 }
  - { offsetInCU: 0x1F514, offset: 0x1F514, size: 0x8, addend: 0x0, symName: __ZNSt3__113__rewrap_iterB8ue170006INS_14__bit_iteratorINS_6vectorIbNS_9allocatorIbEEEELb1ELm0EEES6_NS_18__unwrap_iter_implIS6_Lb0EEEEET_S9_T0_, symObjAddr: 0x1404C, symBinAddr: 0x100018098, symSize: 0x74 }
  - { offsetInCU: 0x1F56A, offset: 0x1F56A, size: 0x8, addend: 0x0, symName: __ZNSt3__125__throw_bad_function_callB8ue170006Ev, symObjAddr: 0x14324, symBinAddr: 0x100018370, symSize: 0x38 }
  - { offsetInCU: 0x1FC04, offset: 0x1FC04, size: 0x8, addend: 0x0, symName: '__ZNSt3__116forward_as_tupleB8ue170006IJZ10partitionsiNS_8functionIFvNS_6vectorIbNS_9allocatorIbEEEEEEEE3$_0EEENS_5tupleIJDpOT_EEESC_', symObjAddr: 0x14ECC, symBinAddr: 0x100018F18, symSize: 0x2C }
  - { offsetInCU: 0x1FC3E, offset: 0x1FC3E, size: 0x8, addend: 0x0, symName: '__ZNSt3__116forward_as_tupleB8ue170006IJNS_9allocatorIZ10partitionsiNS_8functionIFvNS_6vectorIbNS1_IbEEEEEEEE3$_0EEEEENS_5tupleIJDpOT_EEESD_', symObjAddr: 0x14EF8, symBinAddr: 0x100018F44, symSize: 0x2C }
  - { offsetInCU: 0x1FCA2, offset: 0x1FCA2, size: 0x8, addend: 0x0, symName: '__ZNSt3__13getB8ue170006ILm0EJOZ10partitionsiNS_8functionIFvNS_6vectorIbNS_9allocatorIbEEEEEEEE3$_0EEERNS_13tuple_elementIXT_ENS_5tupleIJDpT0_EEEE4typeERSE_', symObjAddr: 0x15218, symBinAddr: 0x100019264, symSize: 0x24 }
  - { offsetInCU: 0x1FCE5, offset: 0x1FCE5, size: 0x8, addend: 0x0, symName: '__ZNSt3__13getB8ue170006ILm0EJONS_9allocatorIZ10partitionsiNS_8functionIFvNS_6vectorIbNS1_IbEEEEEEEE3$_0EEEEERNS_13tuple_elementIXT_ENS_5tupleIJDpT0_EEEE4typeERSF_', symObjAddr: 0x15254, symBinAddr: 0x1000192A0, symSize: 0x24 }
  - { offsetInCU: 0x1FEB5, offset: 0x1FEB5, size: 0x8, addend: 0x0, symName: '__ZNSt3__116forward_as_tupleB8ue170006IJRKZ10partitionsiNS_8functionIFvNS_6vectorIbNS_9allocatorIbEEEEEEEE3$_0EEENS_5tupleIJDpOT_EEESE_', symObjAddr: 0x15650, symBinAddr: 0x10001969C, symSize: 0x2C }
  - { offsetInCU: 0x1FF04, offset: 0x1FF04, size: 0x8, addend: 0x0, symName: '__ZNSt3__13getB8ue170006ILm0EJRKZ10partitionsiNS_8functionIFvNS_6vectorIbNS_9allocatorIbEEEEEEEE3$_0EEERNS_13tuple_elementIXT_ENS_5tupleIJDpT0_EEEE4typeERSF_', symObjAddr: 0x15848, symBinAddr: 0x100019894, symSize: 0x24 }
  - { offsetInCU: 0x1FF47, offset: 0x1FF47, size: 0x8, addend: 0x0, symName: '__ZNSt3__116forward_as_tupleB8ue170006IJRKNS_9allocatorIZ10partitionsiNS_8functionIFvNS_6vectorIbNS1_IbEEEEEEEE3$_0EEEEENS_5tupleIJDpOT_EEESF_', symObjAddr: 0x15BA8, symBinAddr: 0x100019BF4, symSize: 0x2C }
  - { offsetInCU: 0x1FF96, offset: 0x1FF96, size: 0x8, addend: 0x0, symName: '__ZNSt3__13getB8ue170006ILm0EJRKNS_9allocatorIZ10partitionsiNS_8functionIFvNS_6vectorIbNS1_IbEEEEEEEE3$_0EEEEERNS_13tuple_elementIXT_ENS_5tupleIJDpT0_EEEE4typeERSG_', symObjAddr: 0x15D8C, symBinAddr: 0x100019DD8, symSize: 0x24 }
  - { offsetInCU: 0x200A8, offset: 0x200A8, size: 0x8, addend: 0x0, symName: '__ZNSt3__18__invokeB8ue170006IRZ10partitionsiNS_8functionIFvNS_6vectorIbNS_9allocatorIbEEEEEEEE3$_0JEEEDTclclsr3stdE7declvalIT_EEspclsr3stdE7declvalIT0_EEEEOSA_DpOSB_', symObjAddr: 0x15E48, symBinAddr: 0x100019E94, symSize: 0x24 }
  - { offsetInCU: 0x20729, offset: 0x20729, size: 0x8, addend: 0x0, symName: '__ZNSt3__116forward_as_tupleB8ue170006IJZ12combinationsiiNS_8functionIFvNS_6vectorIbNS_9allocatorIbEEEEEEEE3$_1EEENS_5tupleIJDpOT_EEESC_', symObjAddr: 0x16D64, symBinAddr: 0x10001ADB0, symSize: 0x2C }
  - { offsetInCU: 0x20763, offset: 0x20763, size: 0x8, addend: 0x0, symName: '__ZNSt3__116forward_as_tupleB8ue170006IJNS_9allocatorIZ12combinationsiiNS_8functionIFvNS_6vectorIbNS1_IbEEEEEEEE3$_1EEEEENS_5tupleIJDpOT_EEESD_', symObjAddr: 0x16D90, symBinAddr: 0x10001ADDC, symSize: 0x2C }
  - { offsetInCU: 0x207C7, offset: 0x207C7, size: 0x8, addend: 0x0, symName: '__ZNSt3__13getB8ue170006ILm0EJOZ12combinationsiiNS_8functionIFvNS_6vectorIbNS_9allocatorIbEEEEEEEE3$_1EEERNS_13tuple_elementIXT_ENS_5tupleIJDpT0_EEEE4typeERSE_', symObjAddr: 0x170B0, symBinAddr: 0x10001B0FC, symSize: 0x24 }
  - { offsetInCU: 0x2080A, offset: 0x2080A, size: 0x8, addend: 0x0, symName: '__ZNSt3__13getB8ue170006ILm0EJONS_9allocatorIZ12combinationsiiNS_8functionIFvNS_6vectorIbNS1_IbEEEEEEEE3$_1EEEEERNS_13tuple_elementIXT_ENS_5tupleIJDpT0_EEEE4typeERSF_', symObjAddr: 0x170EC, symBinAddr: 0x10001B138, symSize: 0x24 }
  - { offsetInCU: 0x209DA, offset: 0x209DA, size: 0x8, addend: 0x0, symName: '__ZNSt3__116forward_as_tupleB8ue170006IJRKZ12combinationsiiNS_8functionIFvNS_6vectorIbNS_9allocatorIbEEEEEEEE3$_1EEENS_5tupleIJDpOT_EEESE_', symObjAddr: 0x174E8, symBinAddr: 0x10001B534, symSize: 0x2C }
  - { offsetInCU: 0x20A29, offset: 0x20A29, size: 0x8, addend: 0x0, symName: '__ZNSt3__13getB8ue170006ILm0EJRKZ12combinationsiiNS_8functionIFvNS_6vectorIbNS_9allocatorIbEEEEEEEE3$_1EEERNS_13tuple_elementIXT_ENS_5tupleIJDpT0_EEEE4typeERSF_', symObjAddr: 0x176E0, symBinAddr: 0x10001B72C, symSize: 0x24 }
  - { offsetInCU: 0x20A6C, offset: 0x20A6C, size: 0x8, addend: 0x0, symName: '__ZNSt3__116forward_as_tupleB8ue170006IJRKNS_9allocatorIZ12combinationsiiNS_8functionIFvNS_6vectorIbNS1_IbEEEEEEEE3$_1EEEEENS_5tupleIJDpOT_EEESF_', symObjAddr: 0x17A40, symBinAddr: 0x10001BA8C, symSize: 0x2C }
  - { offsetInCU: 0x20ABB, offset: 0x20ABB, size: 0x8, addend: 0x0, symName: '__ZNSt3__13getB8ue170006ILm0EJRKNS_9allocatorIZ12combinationsiiNS_8functionIFvNS_6vectorIbNS1_IbEEEEEEEE3$_1EEEEERNS_13tuple_elementIXT_ENS_5tupleIJDpT0_EEEE4typeERSG_', symObjAddr: 0x17C24, symBinAddr: 0x10001BC70, symSize: 0x24 }
  - { offsetInCU: 0x20AFE, offset: 0x20AFE, size: 0x8, addend: 0x0, symName: '__ZNSt3__18__invokeB8ue170006IRZ12combinationsiiNS_8functionIFvNS_6vectorIbNS_9allocatorIbEEEEEEEE3$_1JiEEEDTclclsr3stdE7declvalIT_EEspclsr3stdE7declvalIT0_EEEEOSA_DpOSB_', symObjAddr: 0x17CF0, symBinAddr: 0x10001BD3C, symSize: 0x30 }
  - { offsetInCU: 0x21189, offset: 0x21189, size: 0x8, addend: 0x0, symName: '__ZNSt3__116forward_as_tupleB8ue170006IJZ23iterate_words_of_weightiiNS_8functionIFvNS_6vectorIbNS_9allocatorIbEEEEEEEE3$_2EEENS_5tupleIJDpOT_EEESC_', symObjAddr: 0x18A34, symBinAddr: 0x10001CA80, symSize: 0x2C }
  - { offsetInCU: 0x211C3, offset: 0x211C3, size: 0x8, addend: 0x0, symName: '__ZNSt3__116forward_as_tupleB8ue170006IJNS_9allocatorIZ23iterate_words_of_weightiiNS_8functionIFvNS_6vectorIbNS1_IbEEEEEEEE3$_2EEEEENS_5tupleIJDpOT_EEESD_', symObjAddr: 0x18A60, symBinAddr: 0x10001CAAC, symSize: 0x2C }
  - { offsetInCU: 0x21227, offset: 0x21227, size: 0x8, addend: 0x0, symName: '__ZNSt3__13getB8ue170006ILm0EJOZ23iterate_words_of_weightiiNS_8functionIFvNS_6vectorIbNS_9allocatorIbEEEEEEEE3$_2EEERNS_13tuple_elementIXT_ENS_5tupleIJDpT0_EEEE4typeERSE_', symObjAddr: 0x18D80, symBinAddr: 0x10001CDCC, symSize: 0x24 }
  - { offsetInCU: 0x2126A, offset: 0x2126A, size: 0x8, addend: 0x0, symName: '__ZNSt3__13getB8ue170006ILm0EJONS_9allocatorIZ23iterate_words_of_weightiiNS_8functionIFvNS_6vectorIbNS1_IbEEEEEEEE3$_2EEEEERNS_13tuple_elementIXT_ENS_5tupleIJDpT0_EEEE4typeERSF_', symObjAddr: 0x18DBC, symBinAddr: 0x10001CE08, symSize: 0x24 }
  - { offsetInCU: 0x2143A, offset: 0x2143A, size: 0x8, addend: 0x0, symName: '__ZNSt3__116forward_as_tupleB8ue170006IJRKZ23iterate_words_of_weightiiNS_8functionIFvNS_6vectorIbNS_9allocatorIbEEEEEEEE3$_2EEENS_5tupleIJDpOT_EEESE_', symObjAddr: 0x191B8, symBinAddr: 0x10001D204, symSize: 0x2C }
  - { offsetInCU: 0x21489, offset: 0x21489, size: 0x8, addend: 0x0, symName: '__ZNSt3__13getB8ue170006ILm0EJRKZ23iterate_words_of_weightiiNS_8functionIFvNS_6vectorIbNS_9allocatorIbEEEEEEEE3$_2EEERNS_13tuple_elementIXT_ENS_5tupleIJDpT0_EEEE4typeERSF_', symObjAddr: 0x193B0, symBinAddr: 0x10001D3FC, symSize: 0x24 }
  - { offsetInCU: 0x214CC, offset: 0x214CC, size: 0x8, addend: 0x0, symName: '__ZNSt3__116forward_as_tupleB8ue170006IJRKNS_9allocatorIZ23iterate_words_of_weightiiNS_8functionIFvNS_6vectorIbNS1_IbEEEEEEEE3$_2EEEEENS_5tupleIJDpOT_EEESF_', symObjAddr: 0x19710, symBinAddr: 0x10001D75C, symSize: 0x2C }
  - { offsetInCU: 0x2151B, offset: 0x2151B, size: 0x8, addend: 0x0, symName: '__ZNSt3__13getB8ue170006ILm0EJRKNS_9allocatorIZ23iterate_words_of_weightiiNS_8functionIFvNS_6vectorIbNS1_IbEEEEEEEE3$_2EEEEERNS_13tuple_elementIXT_ENS_5tupleIJDpT0_EEEE4typeERSG_', symObjAddr: 0x198F4, symBinAddr: 0x10001D940, symSize: 0x24 }
  - { offsetInCU: 0x2155E, offset: 0x2155E, size: 0x8, addend: 0x0, symName: '__ZNSt3__18__invokeB8ue170006IRZ23iterate_words_of_weightiiNS_8functionIFvNS_6vectorIbNS_9allocatorIbEEEEEEEE3$_2JiEEEDTclclsr3stdE7declvalIT_EEspclsr3stdE7declvalIT0_EEEEOSA_DpOSB_', symObjAddr: 0x199C0, symBinAddr: 0x10001DA0C, symSize: 0x30 }
  - { offsetInCU: 0x21BF4, offset: 0x21BF4, size: 0x8, addend: 0x0, symName: '__ZNSt3__116forward_as_tupleB8ue170006IJZ20bruteforce_distance07BMatrixE3$_3EEENS_5tupleIJDpOT_EEES6_', symObjAddr: 0x1A774, symBinAddr: 0x10001E7C0, symSize: 0x2C }
  - { offsetInCU: 0x21C2E, offset: 0x21C2E, size: 0x8, addend: 0x0, symName: '__ZNSt3__116forward_as_tupleB8ue170006IJNS_9allocatorIZ20bruteforce_distance07BMatrixE3$_3EEEEENS_5tupleIJDpOT_EEES8_', symObjAddr: 0x1A7A0, symBinAddr: 0x10001E7EC, symSize: 0x2C }
  - { offsetInCU: 0x21C92, offset: 0x21C92, size: 0x8, addend: 0x0, symName: '__ZNSt3__13getB8ue170006ILm0EJOZ20bruteforce_distance07BMatrixE3$_3EEERNS_13tuple_elementIXT_ENS_5tupleIJDpT0_EEEE4typeERS8_', symObjAddr: 0x1AAC0, symBinAddr: 0x10001EB0C, symSize: 0x24 }
  - { offsetInCU: 0x21CD5, offset: 0x21CD5, size: 0x8, addend: 0x0, symName: '__ZNSt3__13getB8ue170006ILm0EJONS_9allocatorIZ20bruteforce_distance07BMatrixE3$_3EEEEERNS_13tuple_elementIXT_ENS_5tupleIJDpT0_EEEE4typeERSA_', symObjAddr: 0x1AAFC, symBinAddr: 0x10001EB48, symSize: 0x24 }
  - { offsetInCU: 0x21EA5, offset: 0x21EA5, size: 0x8, addend: 0x0, symName: '__ZNSt3__116forward_as_tupleB8ue170006IJRKZ20bruteforce_distance07BMatrixE3$_3EEENS_5tupleIJDpOT_EEES8_', symObjAddr: 0x1AEF8, symBinAddr: 0x10001EF44, symSize: 0x2C }
  - { offsetInCU: 0x21EF4, offset: 0x21EF4, size: 0x8, addend: 0x0, symName: '__ZNSt3__13getB8ue170006ILm0EJRKZ20bruteforce_distance07BMatrixE3$_3EEERNS_13tuple_elementIXT_ENS_5tupleIJDpT0_EEEE4typeERS9_', symObjAddr: 0x1B0F0, symBinAddr: 0x10001F13C, symSize: 0x24 }
  - { offsetInCU: 0x21F37, offset: 0x21F37, size: 0x8, addend: 0x0, symName: '__ZNSt3__116forward_as_tupleB8ue170006IJRKNS_9allocatorIZ20bruteforce_distance07BMatrixE3$_3EEEEENS_5tupleIJDpOT_EEESA_', symObjAddr: 0x1B44C, symBinAddr: 0x10001F498, symSize: 0x2C }
  - { offsetInCU: 0x21F86, offset: 0x21F86, size: 0x8, addend: 0x0, symName: '__ZNSt3__13getB8ue170006ILm0EJRKNS_9allocatorIZ20bruteforce_distance07BMatrixE3$_3EEEEERNS_13tuple_elementIXT_ENS_5tupleIJDpT0_EEEE4typeERSB_', symObjAddr: 0x1B630, symBinAddr: 0x10001F67C, symSize: 0x24 }
  - { offsetInCU: 0x21FC9, offset: 0x21FC9, size: 0x8, addend: 0x0, symName: '__ZNSt3__18__invokeB8ue170006IRZ20bruteforce_distance07BMatrixE3$_3JNS_6vectorIbNS_9allocatorIbEEEEEEEDTclclsr3stdE7declvalIT_EEspclsr3stdE7declvalIT0_EEEEOS8_DpOS9_', symObjAddr: 0x1B6FC, symBinAddr: 0x10001F748, symSize: 0x70 }
  - { offsetInCU: 0x22017, offset: 0x22017, size: 0x8, addend: 0x0, symName: __ZNSt3__112__to_addressB8ue170006INS_4pairI7BMatrixiEEEEPT_S5_, symObjAddr: 0x1C008, symBinAddr: 0x100020054, symSize: 0x14 }
  - { offsetInCU: 0x2204C, offset: 0x2204C, size: 0x8, addend: 0x0, symName: __ZNSt3__122__make_exception_guardB8ue170006INS_6vectorIiNS_9allocatorIiEEE16__destroy_vectorEEENS_28__exception_guard_exceptionsIT_EES7_, symObjAddr: 0x1C81C, symBinAddr: 0x100020868, symSize: 0x40 }
  - { offsetInCU: 0x22081, offset: 0x22081, size: 0x8, addend: 0x0, symName: __ZNSt3__130__uninitialized_allocator_copyB8ue170006INS_9allocatorIiEEPiS3_S3_EET2_RT_T0_T1_S4_, symObjAddr: 0x1CA34, symBinAddr: 0x100020A80, symSize: 0x80 }
  - { offsetInCU: 0x2211E, offset: 0x2211E, size: 0x8, addend: 0x0, symName: __ZNSt3__114__unwrap_rangeB8ue170006IPiS1_EENS_4pairIT0_S3_EET_S5_, symObjAddr: 0x1CAB4, symBinAddr: 0x100020B00, symSize: 0x60 }
  - { offsetInCU: 0x2216A, offset: 0x2216A, size: 0x8, addend: 0x0, symName: __ZNSt3__135__uninitialized_allocator_copy_implB8ue170006INS_9allocatorIiEEiiiLPv0EEEPT2_RT_PT0_S9_S5_, symObjAddr: 0x1CB14, symBinAddr: 0x100020B60, symSize: 0x38 }
  - { offsetInCU: 0x221EC, offset: 0x221EC, size: 0x8, addend: 0x0, symName: __ZNSt3__113__unwrap_iterB8ue170006IPiNS_18__unwrap_iter_implIS1_Lb1EEELi0EEEDTclsrT0_8__unwrapclsr3stdE7declvalIT_EEEES5_, symObjAddr: 0x1CB4C, symBinAddr: 0x100020B98, symSize: 0x24 }
  - { offsetInCU: 0x22230, offset: 0x22230, size: 0x8, addend: 0x0, symName: __ZNSt3__113__rewrap_iterB8ue170006IPiS1_NS_18__unwrap_iter_implIS1_Lb1EEEEET_S4_T0_, symObjAddr: 0x1CB70, symBinAddr: 0x100020BBC, symSize: 0x3C }
  - { offsetInCU: 0x22285, offset: 0x22285, size: 0x8, addend: 0x0, symName: __ZNSt3__19make_pairB8ue170006IPiS1_EENS_4pairINS_18__unwrap_ref_decayIT_E4typeENS3_IT0_E4typeEEEOS4_OS7_, symObjAddr: 0x1CBAC, symBinAddr: 0x100020BF8, symSize: 0x38 }
  - { offsetInCU: 0x223D7, offset: 0x223D7, size: 0x8, addend: 0x0, symName: __ZNSt3__14copyB8ue170006IPiS1_EET0_T_S3_S2_, symObjAddr: 0x1CC54, symBinAddr: 0x100020CA0, symSize: 0x40 }
  - { offsetInCU: 0x22431, offset: 0x22431, size: 0x8, addend: 0x0, symName: __ZNSt3__16__copyB8ue170006INS_17_ClassicAlgPolicyEPiS2_S2_EENS_4pairIT0_T2_EES4_T1_S5_, symObjAddr: 0x1CC94, symBinAddr: 0x100020CE0, symSize: 0x44 }
  - { offsetInCU: 0x2249D, offset: 0x2249D, size: 0x8, addend: 0x0, symName: __ZNSt3__123__dispatch_copy_or_moveB8ue170006INS_17_ClassicAlgPolicyENS_11__copy_loopIS1_EENS_14__copy_trivialEPiS5_S5_EENS_4pairIT2_T4_EES7_T3_S8_, symObjAddr: 0x1CCD8, symBinAddr: 0x100020D24, symSize: 0x44 }
  - { offsetInCU: 0x2251B, offset: 0x2251B, size: 0x8, addend: 0x0, symName: __ZNSt3__121__unwrap_and_dispatchB8ue170006INS_10__overloadINS_11__copy_loopINS_17_ClassicAlgPolicyEEENS_14__copy_trivialEEEPiS7_S7_Li0EEENS_4pairIT0_T2_EES9_T1_SA_, symObjAddr: 0x1CD1C, symBinAddr: 0x100020D68, symSize: 0xB4 }
  - { offsetInCU: 0x225A9, offset: 0x225A9, size: 0x8, addend: 0x0, symName: __ZNSt3__114__rewrap_rangeB8ue170006IPiS1_EET_S2_T0_, symObjAddr: 0x1CE18, symBinAddr: 0x100020E64, symSize: 0x2C }
  - { offsetInCU: 0x225F5, offset: 0x225F5, size: 0x8, addend: 0x0, symName: __ZNSt3__119__copy_trivial_implB8ue170006IiiEENS_4pairIPT_PT0_EES3_S3_S5_, symObjAddr: 0x1CE44, symBinAddr: 0x100020E90, symSize: 0x80 }
  - { offsetInCU: 0x2265D, offset: 0x2265D, size: 0x8, addend: 0x0, symName: __ZNSt3__119__constexpr_memmoveB8ue170006IiiLi0EEEPT_S2_PT0_NS_15__element_countE, symObjAddr: 0x1CEC4, symBinAddr: 0x100020F10, symSize: 0x64 }
  - { offsetInCU: 0x226CB, offset: 0x226CB, size: 0x8, addend: 0x0, symName: __ZNSt3__19make_pairB8ue170006IRPiS1_EENS_4pairINS_18__unwrap_ref_decayIT_E4typeENS4_IT0_E4typeEEEOS5_OS8_, symObjAddr: 0x1CF28, symBinAddr: 0x100020F74, symSize: 0x38 }
  - { offsetInCU: 0x2276D, offset: 0x2276D, size: 0x8, addend: 0x0, symName: __ZNSt3__119__allocate_at_leastB8ue170006INS_9allocatorINS_4pairI7BMatrixiEEEEEENS_19__allocation_resultINS_16allocator_traitsIT_E7pointerEEERS8_m, symObjAddr: 0x1D894, symBinAddr: 0x1000218E0, symSize: 0x40 }
  - { offsetInCU: 0x227B0, offset: 0x227B0, size: 0x8, addend: 0x0, symName: __ZNSt3__142__uninitialized_allocator_move_if_noexceptB8ue170006INS_9allocatorINS_4pairI7BMatrixiEEEENS_16reverse_iteratorIPS4_EES8_S8_EET2_RT_T0_T1_S9_, symObjAddr: 0x1DA4C, symBinAddr: 0x100021A98, symSize: 0x12C }
  - { offsetInCU: 0x22851, offset: 0x22851, size: 0x8, addend: 0x0, symName: __ZNSt3__14swapB8ue170006IPNS_4pairI7BMatrixiEEEENS_9enable_ifIXaasr21is_move_constructibleIT_EE5valuesr18is_move_assignableIS6_EE5valueEvE4typeERS6_S9_, symObjAddr: 0x1DBC4, symBinAddr: 0x100021C10, symSize: 0x3C }
  - { offsetInCU: 0x228A2, offset: 0x228A2, size: 0x8, addend: 0x0, symName: __ZNSt3__122__make_exception_guardB8ue170006INS_29_AllocatorDestroyRangeReverseINS_9allocatorINS_4pairI7BMatrixiEEEENS_16reverse_iteratorIPS5_EEEEEENS_28__exception_guard_exceptionsIT_EESC_, symObjAddr: 0x1DCC8, symBinAddr: 0x100021D14, symSize: 0x4C }
  - { offsetInCU: 0x228D8, offset: 0x228D8, size: 0x8, addend: 0x0, symName: __ZNSt3__1neB8ue170006IPNS_4pairI7BMatrixiEES4_EEbRKNS_16reverse_iteratorIT_EERKNS5_IT0_EE, symObjAddr: 0x1DD58, symBinAddr: 0x100021DA4, symSize: 0x48 }
  - { offsetInCU: 0x22924, offset: 0x22924, size: 0x8, addend: 0x0, symName: __ZNSt3__112__to_addressB8ue170006INS_16reverse_iteratorIPNS_4pairI7BMatrixiEEEEvEEu7__decayIDTclsr19__to_address_helperIT_EE6__callclsr3stdE7declvalIRKS7_EEEEES9_, symObjAddr: 0x1DDD4, symBinAddr: 0x100021E20, symSize: 0x24 }
  - { offsetInCU: 0x22984, offset: 0x22984, size: 0x8, addend: 0x0, symName: __ZNSt3__119__allocator_destroyB8ue170006INS_9allocatorINS_4pairI7BMatrixiEEEENS_16reverse_iteratorINS6_IPS4_EEEES9_EEvRT_T0_T1_, symObjAddr: 0x1E128, symBinAddr: 0x100022174, symSize: 0x70 }
  - { offsetInCU: 0x229E9, offset: 0x229E9, size: 0x8, addend: 0x0, symName: __ZNSt3__1neB8ue170006INS_16reverse_iteratorIPNS_4pairI7BMatrixiEEEES6_EEbRKNS1_IT_EERKNS1_IT0_EE, symObjAddr: 0x1E1D4, symBinAddr: 0x100022220, symSize: 0x60 }
  - { offsetInCU: 0x22A35, offset: 0x22A35, size: 0x8, addend: 0x0, symName: __ZNSt3__112__to_addressB8ue170006INS_16reverse_iteratorINS1_IPNS_4pairI7BMatrixiEEEEEEvEEu7__decayIDTclsr19__to_address_helperIT_EE6__callclsr3stdE7declvalIRKS8_EEEEESA_, symObjAddr: 0x1E234, symBinAddr: 0x100022280, symSize: 0x24 }
  - { offsetInCU: 0x230D3, offset: 0x230D3, size: 0x8, addend: 0x0, symName: '__ZNSt3__116forward_as_tupleB8ue170006IJZ17brouwer_zimmerman7BMatrixS1_E3$_4EEENS_5tupleIJDpOT_EEES6_', symObjAddr: 0x1F1EC, symBinAddr: 0x100023238, symSize: 0x2C }
  - { offsetInCU: 0x2310D, offset: 0x2310D, size: 0x8, addend: 0x0, symName: '__ZNSt3__116forward_as_tupleB8ue170006IJNS_9allocatorIZ17brouwer_zimmerman7BMatrixS2_E3$_4EEEEENS_5tupleIJDpOT_EEES8_', symObjAddr: 0x1F218, symBinAddr: 0x100023264, symSize: 0x2C }
  - { offsetInCU: 0x23171, offset: 0x23171, size: 0x8, addend: 0x0, symName: '__ZNSt3__13getB8ue170006ILm0EJOZ17brouwer_zimmerman7BMatrixS1_E3$_4EEERNS_13tuple_elementIXT_ENS_5tupleIJDpT0_EEEE4typeERS8_', symObjAddr: 0x1F538, symBinAddr: 0x100023584, symSize: 0x24 }
  - { offsetInCU: 0x231B4, offset: 0x231B4, size: 0x8, addend: 0x0, symName: '__ZNSt3__13getB8ue170006ILm0EJONS_9allocatorIZ17brouwer_zimmerman7BMatrixS2_E3$_4EEEEERNS_13tuple_elementIXT_ENS_5tupleIJDpT0_EEEE4typeERSA_', symObjAddr: 0x1F574, symBinAddr: 0x1000235C0, symSize: 0x24 }
  - { offsetInCU: 0x23384, offset: 0x23384, size: 0x8, addend: 0x0, symName: '__ZNSt3__116forward_as_tupleB8ue170006IJRKZ17brouwer_zimmerman7BMatrixS1_E3$_4EEENS_5tupleIJDpOT_EEES8_', symObjAddr: 0x1F970, symBinAddr: 0x1000239BC, symSize: 0x2C }
  - { offsetInCU: 0x233D3, offset: 0x233D3, size: 0x8, addend: 0x0, symName: '__ZNSt3__13getB8ue170006ILm0EJRKZ17brouwer_zimmerman7BMatrixS1_E3$_4EEERNS_13tuple_elementIXT_ENS_5tupleIJDpT0_EEEE4typeERS9_', symObjAddr: 0x1FB68, symBinAddr: 0x100023BB4, symSize: 0x24 }
  - { offsetInCU: 0x23416, offset: 0x23416, size: 0x8, addend: 0x0, symName: '__ZNSt3__116forward_as_tupleB8ue170006IJRKNS_9allocatorIZ17brouwer_zimmerman7BMatrixS2_E3$_4EEEEENS_5tupleIJDpOT_EEESA_', symObjAddr: 0x1FEC4, symBinAddr: 0x100023F10, symSize: 0x2C }
  - { offsetInCU: 0x23465, offset: 0x23465, size: 0x8, addend: 0x0, symName: '__ZNSt3__13getB8ue170006ILm0EJRKNS_9allocatorIZ17brouwer_zimmerman7BMatrixS2_E3$_4EEEEERNS_13tuple_elementIXT_ENS_5tupleIJDpT0_EEEE4typeERSB_', symObjAddr: 0x200A8, symBinAddr: 0x1000240F4, symSize: 0x24 }
  - { offsetInCU: 0x234A8, offset: 0x234A8, size: 0x8, addend: 0x0, symName: '__ZNSt3__18__invokeB8ue170006IRZ17brouwer_zimmerman7BMatrixS1_E3$_4JNS_6vectorIbNS_9allocatorIbEEEEEEEDTclclsr3stdE7declvalIT_EEspclsr3stdE7declvalIT0_EEEEOS8_DpOS9_', symObjAddr: 0x20174, symBinAddr: 0x1000241C0, symSize: 0x70 }
  - { offsetInCU: 0x234F5, offset: 0x234F5, size: 0x8, addend: 0x0, symName: __ZNSt3__13getB8ue170006ILm0EJR7BMatrixS2_EEERNS_13tuple_elementIXT_ENS_5tupleIJDpT0_EEEE4typeERS7_, symObjAddr: 0x20448, symBinAddr: 0x100024494, symSize: 0x24 }
  - { offsetInCU: 0x2353C, offset: 0x2353C, size: 0x8, addend: 0x0, symName: __ZNSt3__13getB8ue170006ILm1EJR7BMatrixS2_EEERNS_13tuple_elementIXT_ENS_5tupleIJDpT0_EEEE4typeERS7_, symObjAddr: 0x2046C, symBinAddr: 0x1000244B8, symSize: 0x28 }
  - { offsetInCU: 0x235B7, offset: 0x235B7, size: 0x8, addend: 0x0, symName: __ZNSt3__112__to_addressB8ue170006I7BMatrixEEPT_S3_, symObjAddr: 0x20B94, symBinAddr: 0x100024BE0, symSize: 0x14 }
  - { offsetInCU: 0x235ED, offset: 0x235ED, size: 0x8, addend: 0x0, symName: __ZNSt3__112__to_addressB8ue170006INS_12basic_stringIcNS_11char_traitsIcEENS_9allocatorIcEEEEEEPT_S8_, symObjAddr: 0x211E0, symBinAddr: 0x10002522C, symSize: 0x14 }
  - { offsetInCU: 0x23622, offset: 0x23622, size: 0x8, addend: 0x0, symName: __ZNSt3__17getlineB8ue170006IcNS_11char_traitsIcEENS_9allocatorIcEEEERNS_13basic_istreamIT_T0_EES9_RNS_12basic_stringIS6_S7_T1_EES6_, symObjAddr: 0x21340, symBinAddr: 0x10002538C, symSize: 0x238 }
  - { offsetInCU: 0x236E0, offset: 0x236E0, size: 0x8, addend: 0x0, symName: __ZNSt3__118__constexpr_strlenB8ue170006EPKc, symObjAddr: 0x21A10, symBinAddr: 0x100025A5C, symSize: 0x24 }
  - { offsetInCU: 0x2370C, offset: 0x2370C, size: 0x8, addend: 0x0, symName: __ZNSt3__122__make_exception_guardB8ue170006INS_6vectorINS_12basic_stringIcNS_11char_traitsIcEENS_9allocatorIcEEEENS5_IS7_EEE16__destroy_vectorEEENS_28__exception_guard_exceptionsIT_EESC_, symObjAddr: 0x21C88, symBinAddr: 0x100025CD4, symSize: 0x40 }
  - { offsetInCU: 0x23741, offset: 0x23741, size: 0x8, addend: 0x0, symName: __ZNSt3__119__allocate_at_leastB8ue170006INS_9allocatorINS_12basic_stringIcNS_11char_traitsIcEENS1_IcEEEEEEEENS_19__allocation_resultINS_16allocator_traitsIT_E7pointerEEERSA_m, symObjAddr: 0x21F24, symBinAddr: 0x100025F70, symSize: 0x40 }
  - { offsetInCU: 0x23784, offset: 0x23784, size: 0x8, addend: 0x0, symName: __ZNSt3__130__uninitialized_allocator_copyB8ue170006INS_9allocatorINS_12basic_stringIcNS_11char_traitsIcEENS1_IcEEEEEEPS6_S8_S8_EET2_RT_T0_T1_S9_, symObjAddr: 0x22160, symBinAddr: 0x1000261AC, symSize: 0x80 }
  - { offsetInCU: 0x23821, offset: 0x23821, size: 0x8, addend: 0x0, symName: __ZNSt3__114__unwrap_rangeB8ue170006IPNS_12basic_stringIcNS_11char_traitsIcEENS_9allocatorIcEEEES7_EENS_4pairIT0_S9_EET_SB_, symObjAddr: 0x22258, symBinAddr: 0x1000262A4, symSize: 0x60 }
  - { offsetInCU: 0x2386D, offset: 0x2386D, size: 0x8, addend: 0x0, symName: __ZNSt3__135__uninitialized_allocator_copy_implB8ue170006INS_9allocatorINS_12basic_stringIcNS_11char_traitsIcEENS1_IcEEEEEEPS6_S8_S8_EET2_RT_T0_T1_S9_, symObjAddr: 0x222B8, symBinAddr: 0x100026304, symSize: 0xF4 }
  - { offsetInCU: 0x2390B, offset: 0x2390B, size: 0x8, addend: 0x0, symName: __ZNSt3__113__unwrap_iterB8ue170006IPNS_12basic_stringIcNS_11char_traitsIcEENS_9allocatorIcEEEENS_18__unwrap_iter_implIS7_Lb1EEELi0EEEDTclsrT0_8__unwrapclsr3stdE7declvalIT_EEEESB_, symObjAddr: 0x223AC, symBinAddr: 0x1000263F8, symSize: 0x24 }
  - { offsetInCU: 0x2394F, offset: 0x2394F, size: 0x8, addend: 0x0, symName: __ZNSt3__113__rewrap_iterB8ue170006IPNS_12basic_stringIcNS_11char_traitsIcEENS_9allocatorIcEEEES7_NS_18__unwrap_iter_implIS7_Lb1EEEEET_SA_T0_, symObjAddr: 0x223D0, symBinAddr: 0x10002641C, symSize: 0x3C }
  - { offsetInCU: 0x239A4, offset: 0x239A4, size: 0x8, addend: 0x0, symName: __ZNSt3__19make_pairB8ue170006IPNS_12basic_stringIcNS_11char_traitsIcEENS_9allocatorIcEEEES7_EENS_4pairINS_18__unwrap_ref_decayIT_E4typeENS9_IT0_E4typeEEEOSA_OSD_, symObjAddr: 0x2240C, symBinAddr: 0x100026458, symSize: 0x38 }
  - { offsetInCU: 0x23AC7, offset: 0x23AC7, size: 0x8, addend: 0x0, symName: __ZNSt3__122__make_exception_guardB8ue170006INS_29_AllocatorDestroyRangeReverseINS_9allocatorINS_12basic_stringIcNS_11char_traitsIcEENS2_IcEEEEEEPS7_EEEENS_28__exception_guard_exceptionsIT_EESC_, symObjAddr: 0x224B4, symBinAddr: 0x100026500, symSize: 0x4C }
  - { offsetInCU: 0x23AFD, offset: 0x23AFD, size: 0x8, addend: 0x0, symName: __ZNSt3__119__allocator_destroyB8ue170006INS_9allocatorINS_12basic_stringIcNS_11char_traitsIcEENS1_IcEEEEEENS_16reverse_iteratorIPS6_EESA_EEvRT_T0_T1_, symObjAddr: 0x22744, symBinAddr: 0x100026790, symSize: 0x70 }
  - { offsetInCU: 0x23B60, offset: 0x23B60, size: 0x8, addend: 0x0, symName: __ZNSt3__1neB8ue170006IPNS_12basic_stringIcNS_11char_traitsIcEENS_9allocatorIcEEEES7_EEbRKNS_16reverse_iteratorIT_EERKNS8_IT0_EE, symObjAddr: 0x227E8, symBinAddr: 0x100026834, symSize: 0x48 }
  - { offsetInCU: 0x23BAC, offset: 0x23BAC, size: 0x8, addend: 0x0, symName: __ZNSt3__112__to_addressB8ue170006INS_16reverse_iteratorIPNS_12basic_stringIcNS_11char_traitsIcEENS_9allocatorIcEEEEEEvEEu7__decayIDTclsr19__to_address_helperIT_EE6__callclsr3stdE7declvalIRKSA_EEEEESC_, symObjAddr: 0x22830, symBinAddr: 0x10002687C, symSize: 0x24 }
  - { offsetInCU: 0x23C5F, offset: 0x23C5F, size: 0x8, addend: 0x0, symName: __ZNSt3__119__allocate_at_leastB8ue170006INS_9allocatorI7BMatrixEEEENS_19__allocation_resultINS_16allocator_traitsIT_E7pointerEEERS6_m, symObjAddr: 0x2316C, symBinAddr: 0x1000271B8, symSize: 0x40 }
  - { offsetInCU: 0x23CA2, offset: 0x23CA2, size: 0x8, addend: 0x0, symName: __ZNSt3__142__uninitialized_allocator_move_if_noexceptB8ue170006INS_9allocatorI7BMatrixEENS_16reverse_iteratorIPS2_EES6_S6_EET2_RT_T0_T1_S7_, symObjAddr: 0x23320, symBinAddr: 0x10002736C, symSize: 0x12C }
  - { offsetInCU: 0x23D43, offset: 0x23D43, size: 0x8, addend: 0x0, symName: __ZNSt3__14swapB8ue170006IP7BMatrixEENS_9enable_ifIXaasr21is_move_constructibleIT_EE5valuesr18is_move_assignableIS4_EE5valueEvE4typeERS4_S7_, symObjAddr: 0x23498, symBinAddr: 0x1000274E4, symSize: 0x3C }
  - { offsetInCU: 0x23D94, offset: 0x23D94, size: 0x8, addend: 0x0, symName: __ZNSt3__122__make_exception_guardB8ue170006INS_29_AllocatorDestroyRangeReverseINS_9allocatorI7BMatrixEENS_16reverse_iteratorIPS3_EEEEEENS_28__exception_guard_exceptionsIT_EESA_, symObjAddr: 0x23580, symBinAddr: 0x1000275CC, symSize: 0x4C }
  - { offsetInCU: 0x23DCA, offset: 0x23DCA, size: 0x8, addend: 0x0, symName: __ZNSt3__1neB8ue170006IP7BMatrixS2_EEbRKNS_16reverse_iteratorIT_EERKNS3_IT0_EE, symObjAddr: 0x23610, symBinAddr: 0x10002765C, symSize: 0x48 }
  - { offsetInCU: 0x23E16, offset: 0x23E16, size: 0x8, addend: 0x0, symName: __ZNSt3__112__to_addressB8ue170006INS_16reverse_iteratorIP7BMatrixEEvEEu7__decayIDTclsr19__to_address_helperIT_EE6__callclsr3stdE7declvalIRKS5_EEEEES7_, symObjAddr: 0x23658, symBinAddr: 0x1000276A4, symSize: 0x24 }
  - { offsetInCU: 0x23E76, offset: 0x23E76, size: 0x8, addend: 0x0, symName: __ZNSt3__119__allocator_destroyB8ue170006INS_9allocatorI7BMatrixEENS_16reverse_iteratorINS4_IPS2_EEEES7_EEvRT_T0_T1_, symObjAddr: 0x23908, symBinAddr: 0x100027954, symSize: 0x70 }
  - { offsetInCU: 0x23EDB, offset: 0x23EDB, size: 0x8, addend: 0x0, symName: __ZNSt3__1neB8ue170006INS_16reverse_iteratorIP7BMatrixEES4_EEbRKNS1_IT_EERKNS1_IT0_EE, symObjAddr: 0x239B4, symBinAddr: 0x100027A00, symSize: 0x60 }
  - { offsetInCU: 0x23F27, offset: 0x23F27, size: 0x8, addend: 0x0, symName: __ZNSt3__112__to_addressB8ue170006INS_16reverse_iteratorINS1_IP7BMatrixEEEEvEEu7__decayIDTclsr19__to_address_helperIT_EE6__callclsr3stdE7declvalIRKS6_EEEEES8_, symObjAddr: 0x23A14, symBinAddr: 0x100027A60, symSize: 0x24 }
  - { offsetInCU: 0x23F87, offset: 0x23F87, size: 0x8, addend: 0x0, symName: __ZNSt3__142__uninitialized_allocator_move_if_noexceptB8ue170006INS_9allocatorINS_12basic_stringIcNS_11char_traitsIcEENS1_IcEEEEEENS_16reverse_iteratorIPS6_EESA_SA_EET2_RT_T0_T1_SB_, symObjAddr: 0x24484, symBinAddr: 0x1000284D0, symSize: 0x11C }
  - { offsetInCU: 0x24028, offset: 0x24028, size: 0x8, addend: 0x0, symName: __ZNSt3__14swapB8ue170006IPNS_12basic_stringIcNS_11char_traitsIcEENS_9allocatorIcEEEEEENS_9enable_ifIXaasr21is_move_constructibleIT_EE5valuesr18is_move_assignableIS9_EE5valueEvE4typeERS9_SC_, symObjAddr: 0x245A0, symBinAddr: 0x1000285EC, symSize: 0x3C }
  - { offsetInCU: 0x24079, offset: 0x24079, size: 0x8, addend: 0x0, symName: __ZNSt3__122__make_exception_guardB8ue170006INS_29_AllocatorDestroyRangeReverseINS_9allocatorINS_12basic_stringIcNS_11char_traitsIcEENS2_IcEEEEEENS_16reverse_iteratorIPS7_EEEEEENS_28__exception_guard_exceptionsIT_EESE_, symObjAddr: 0x245DC, symBinAddr: 0x100028628, symSize: 0x4C }
  - { offsetInCU: 0x240AF, offset: 0x240AF, size: 0x8, addend: 0x0, symName: __ZNSt3__119__allocator_destroyB8ue170006INS_9allocatorINS_12basic_stringIcNS_11char_traitsIcEENS1_IcEEEEEENS_16reverse_iteratorINS8_IPS6_EEEESB_EEvRT_T0_T1_, symObjAddr: 0x24934, symBinAddr: 0x100028980, symSize: 0x70 }
  - { offsetInCU: 0x24114, offset: 0x24114, size: 0x8, addend: 0x0, symName: __ZNSt3__1neB8ue170006INS_16reverse_iteratorIPNS_12basic_stringIcNS_11char_traitsIcEENS_9allocatorIcEEEEEES9_EEbRKNS1_IT_EERKNS1_IT0_EE, symObjAddr: 0x249E0, symBinAddr: 0x100028A2C, symSize: 0x60 }
  - { offsetInCU: 0x24160, offset: 0x24160, size: 0x8, addend: 0x0, symName: __ZNSt3__112__to_addressB8ue170006INS_16reverse_iteratorINS1_IPNS_12basic_stringIcNS_11char_traitsIcEENS_9allocatorIcEEEEEEEEvEEu7__decayIDTclsr19__to_address_helperIT_EE6__callclsr3stdE7declvalIRKSB_EEEEESD_, symObjAddr: 0x24A40, symBinAddr: 0x100028A8C, symSize: 0x24 }
  - { offsetInCU: 0x24E7C, offset: 0x24E7C, size: 0x8, addend: 0x0, symName: __ZSt28__throw_bad_array_new_lengthB8ue170006v, symObjAddr: 0x6850, symBinAddr: 0x10000A89C, symSize: 0x34 }
  - { offsetInCU: 0x25419, offset: 0x25419, size: 0x8, addend: 0x0, symName: __ZNSt3__16vectorIyNS_9allocatorIyEEE26__swap_out_circular_bufferERNS_14__split_bufferIyRS2_EE, symObjAddr: 0x5F34, symBinAddr: 0x100009F80, symSize: 0x110 }
  - { offsetInCU: 0x25938, offset: 0x25938, size: 0x8, addend: 0x0, symName: __ZNSt3__16vectorI7BVectorNS_9allocatorIS1_EEE26__swap_out_circular_bufferERNS_14__split_bufferIS1_RS3_EE, symObjAddr: 0x8170, symBinAddr: 0x10000C1BC, symSize: 0x110 }
  - { offsetInCU: 0x25D2B, offset: 0x25D2B, size: 0x8, addend: 0x0, symName: __ZNSt3__16vectorIiNS_9allocatorIiEEE26__swap_out_circular_bufferERNS_14__split_bufferIiRS2_EE, symObjAddr: 0x11228, symBinAddr: 0x100015274, symSize: 0x110 }
  - { offsetInCU: 0x25D8A, offset: 0x25D8A, size: 0x8, addend: 0x0, symName: __Z10partitionsiNSt3__18functionIFvNS_6vectorIbNS_9allocatorIbEEEEEEE, symObjAddr: 0x2314, symBinAddr: 0x100006360, symSize: 0xFC }
  - { offsetInCU: 0x261CB, offset: 0x261CB, size: 0x8, addend: 0x0, symName: __Z12combinationsiiNSt3__18functionIFvNS_6vectorIbNS_9allocatorIbEEEEEEE, symObjAddr: 0x2604, symBinAddr: 0x100006650, symSize: 0x104 }
  - { offsetInCU: 0x26551, offset: 0x26551, size: 0x8, addend: 0x0, symName: __Z23iterate_words_of_weightiiNSt3__18functionIFvNS_6vectorIbNS_9allocatorIbEEEEEEE, symObjAddr: 0x2848, symBinAddr: 0x100006894, symSize: 0x104 }
  - { offsetInCU: 0x2685A, offset: 0x2685A, size: 0x8, addend: 0x0, symName: __Z20bruteforce_distance07BMatrix, symObjAddr: 0x2980, symBinAddr: 0x1000069CC, symSize: 0x214 }
  - { offsetInCU: 0x26F55, offset: 0x26F55, size: 0x8, addend: 0x0, symName: __ZNSt3__16vectorINS_4pairI7BMatrixiEENS_9allocatorIS3_EEE26__swap_out_circular_bufferERNS_14__split_bufferIS3_RS5_EE, symObjAddr: 0x1D524, symBinAddr: 0x100021570, symSize: 0x110 }
  - { offsetInCU: 0x26FF3, offset: 0x26FF3, size: 0x8, addend: 0x0, symName: __Z17brouwer_zimmerman7BMatrixS_, symObjAddr: 0x3B8C, symBinAddr: 0x100007BD8, symSize: 0x37C }
  - { offsetInCU: 0x277C3, offset: 0x277C3, size: 0x8, addend: 0x0, symName: __ZNSt3__16vectorI7BMatrixNS_9allocatorIS1_EEE26__swap_out_circular_bufferERNS_14__split_bufferIS1_RS3_EE, symObjAddr: 0x22E0C, symBinAddr: 0x100026E58, symSize: 0x110 }
  - { offsetInCU: 0x27862, offset: 0x27862, size: 0x8, addend: 0x0, symName: __ZNSt3__16vectorINS_12basic_stringIcNS_11char_traitsIcEENS_9allocatorIcEEEENS4_IS6_EEE26__swap_out_circular_bufferERNS_14__split_bufferIS6_RS7_EE, symObjAddr: 0x24110, symBinAddr: 0x10002815C, symSize: 0x110 }
  - { offsetInCU: 0x29C0C, offset: 0x29C0C, size: 0x8, addend: 0x0, symName: __Z9my_assertb, symObjAddr: 0x0, symBinAddr: 0x10000404C, symSize: 0x54 }
  - { offsetInCU: 0x29C35, offset: 0x29C35, size: 0x8, addend: 0x0, symName: __Z8popcounty, symObjAddr: 0x54, symBinAddr: 0x1000040A0, symSize: 0x80 }
  - { offsetInCU: 0x29C8B, offset: 0x29C8B, size: 0x8, addend: 0x0, symName: __Z5print7BVector, symObjAddr: 0xD4, symBinAddr: 0x100004120, symSize: 0xAC }
  - { offsetInCU: 0x29CDF, offset: 0x29CDF, size: 0x8, addend: 0x0, symName: __ZN7BVector3getEi, symObjAddr: 0x1B4, symBinAddr: 0x100004200, symSize: 0x6C }
  - { offsetInCU: 0x29D12, offset: 0x29D12, size: 0x8, addend: 0x0, symName: __ZplRK7BVectorS1_, symObjAddr: 0x220, symBinAddr: 0x10000426C, symSize: 0x12C }
  - { offsetInCU: 0x29D86, offset: 0x29D86, size: 0x8, addend: 0x0, symName: __ZN7BVectorC1Ei, symObjAddr: 0x34C, symBinAddr: 0x100004398, symSize: 0x34 }
  - { offsetInCU: 0x29DBE, offset: 0x29DBE, size: 0x8, addend: 0x0, symName: __ZNKSt3__16vectorIyNS_9allocatorIyEEE4sizeB8ue170006Ev, symObjAddr: 0x380, symBinAddr: 0x1000043CC, symSize: 0x28 }
  - { offsetInCU: 0x29DE4, offset: 0x29DE4, size: 0x8, addend: 0x0, symName: __ZNKSt3__16vectorIyNS_9allocatorIyEEEixB8ue170006Em, symObjAddr: 0x3A8, symBinAddr: 0x1000043F4, symSize: 0x24 }
  - { offsetInCU: 0x29E1B, offset: 0x29E1B, size: 0x8, addend: 0x0, symName: __ZNSt3__16vectorIyNS_9allocatorIyEEEixB8ue170006Em, symObjAddr: 0x3CC, symBinAddr: 0x100004418, symSize: 0x24 }
  - { offsetInCU: 0x29E52, offset: 0x29E52, size: 0x8, addend: 0x0, symName: __ZN7BVectorD1Ev, symObjAddr: 0x3F0, symBinAddr: 0x10000443C, symSize: 0x2C }
  - { offsetInCU: 0x29E7D, offset: 0x29E7D, size: 0x8, addend: 0x0, symName: __ZmlRK7BVectorS1_, symObjAddr: 0x41C, symBinAddr: 0x100004468, symSize: 0xEC }
  - { offsetInCU: 0x29EEF, offset: 0x29EEF, size: 0x8, addend: 0x0, symName: __Z5print7BMatrix, symObjAddr: 0x508, symBinAddr: 0x100004554, symSize: 0x100 }
  - { offsetInCU: 0x29F6D, offset: 0x29F6D, size: 0x8, addend: 0x0, symName: __ZN7BMatrix3getEii, symObjAddr: 0x608, symBinAddr: 0x100004654, symSize: 0x3C }
  - { offsetInCU: 0x29FAF, offset: 0x29FAF, size: 0x8, addend: 0x0, symName: __ZNSt3__113basic_ostreamIcNS_11char_traitsIcEEElsB8ue170006EPFRS3_S4_E, symObjAddr: 0x644, symBinAddr: 0x100004690, symSize: 0x2C }
  - { offsetInCU: 0x29FE2, offset: 0x29FE2, size: 0x8, addend: 0x0, symName: __Z8identityRKi, symObjAddr: 0x6C8, symBinAddr: 0x100004714, symSize: 0xF8 }
  - { offsetInCU: 0x2A03A, offset: 0x2A03A, size: 0x8, addend: 0x0, symName: __ZN7BMatrixC1Eii, symObjAddr: 0x7C0, symBinAddr: 0x10000480C, symSize: 0x3C }
  - { offsetInCU: 0x2A080, offset: 0x2A080, size: 0x8, addend: 0x0, symName: __ZN7BMatrix3setEiib, symObjAddr: 0x7FC, symBinAddr: 0x100004848, symSize: 0x4C }
  - { offsetInCU: 0x2A0D0, offset: 0x2A0D0, size: 0x8, addend: 0x0, symName: __ZN7BMatrixD1Ev, symObjAddr: 0x848, symBinAddr: 0x100004894, symSize: 0x2C }
  - { offsetInCU: 0x2A0FB, offset: 0x2A0FB, size: 0x8, addend: 0x0, symName: __Z9transposeRK7BMatrix, symObjAddr: 0x874, symBinAddr: 0x1000048C0, symSize: 0x170 }
  - { offsetInCU: 0x2A196, offset: 0x2A196, size: 0x8, addend: 0x0, symName: __Zml7BVector7BMatrix, symObjAddr: 0x9E4, symBinAddr: 0x100004A30, symSize: 0x1C4 }
  - { offsetInCU: 0x2A242, offset: 0x2A242, size: 0x8, addend: 0x0, symName: __ZN7BVector3setEib, symObjAddr: 0xBA8, symBinAddr: 0x100004BF4, symSize: 0xB8 }
  - { offsetInCU: 0x2A291, offset: 0x2A291, size: 0x8, addend: 0x0, symName: __Z14to_row_echelonR7BMatrix, symObjAddr: 0xC60, symBinAddr: 0x100004CAC, symSize: 0x1E0 }
  - { offsetInCU: 0x2A35E, offset: 0x2A35E, size: 0x8, addend: 0x0, symName: __ZN7BMatrix9swap_rowsEii, symObjAddr: 0xE40, symBinAddr: 0x100004E8C, symSize: 0x54 }
  - { offsetInCU: 0x2A3A0, offset: 0x2A3A0, size: 0x8, addend: 0x0, symName: __ZN7BMatrix8add_rowsEii, symObjAddr: 0xE94, symBinAddr: 0x100004EE0, symSize: 0xB8 }
  - { offsetInCU: 0x2A3FD, offset: 0x2A3FD, size: 0x8, addend: 0x0, symName: __Z22restricted_row_echelonR7BMatrixNSt3__16vectorIiNS1_9allocatorIiEEEE, symObjAddr: 0xF4C, symBinAddr: 0x100004F98, symSize: 0x2E4 }
  - { offsetInCU: 0x2A4DF, offset: 0x2A4DF, size: 0x8, addend: 0x0, symName: __ZNSt3__16vectorIiNS_9allocatorIiEEEC1B8ue170006Ev, symObjAddr: 0x1230, symBinAddr: 0x10000527C, symSize: 0x2C }
  - { offsetInCU: 0x2A509, offset: 0x2A509, size: 0x8, addend: 0x0, symName: __ZNKSt3__16vectorIiNS_9allocatorIiEEE4sizeB8ue170006Ev, symObjAddr: 0x125C, symBinAddr: 0x1000052A8, symSize: 0x28 }
  - { offsetInCU: 0x2A52F, offset: 0x2A52F, size: 0x8, addend: 0x0, symName: __ZNSt3__16vectorIiNS_9allocatorIiEEEixB8ue170006Em, symObjAddr: 0x1284, symBinAddr: 0x1000052D0, symSize: 0x24 }
  - { offsetInCU: 0x2A566, offset: 0x2A566, size: 0x8, addend: 0x0, symName: __ZNSt3__16vectorIiNS_9allocatorIiEEE9push_backB8ue170006ERKi, symObjAddr: 0x12A8, symBinAddr: 0x1000052F4, symSize: 0x6C }
  - { offsetInCU: 0x2A59D, offset: 0x2A59D, size: 0x8, addend: 0x0, symName: __ZNSt3__16vectorIiNS_9allocatorIiEEED1B8ue170006Ev, symObjAddr: 0x1314, symBinAddr: 0x100005360, symSize: 0x2C }
  - { offsetInCU: 0x2A5C6, offset: 0x2A5C6, size: 0x8, addend: 0x0, symName: __Z18canonical_quotient7BVectorR7BMatrix, symObjAddr: 0x1340, symBinAddr: 0x10000538C, symSize: 0x140 }
  - { offsetInCU: 0x2A65D, offset: 0x2A65D, size: 0x8, addend: 0x0, symName: __ZN7BMatrix3rowEi, symObjAddr: 0x1480, symBinAddr: 0x1000054CC, symSize: 0x7C }
  - { offsetInCU: 0x2A697, offset: 0x2A697, size: 0x8, addend: 0x0, symName: __ZN7BVectoraSEOS_, symObjAddr: 0x14FC, symBinAddr: 0x100005548, symSize: 0x40 }
  - { offsetInCU: 0x2A6C8, offset: 0x2A6C8, size: 0x8, addend: 0x0, symName: __ZN7BVectorC1EOS_, symObjAddr: 0x153C, symBinAddr: 0x100005588, symSize: 0x34 }
  - { offsetInCU: 0x2A6FC, offset: 0x2A6FC, size: 0x8, addend: 0x0, symName: __Z7in_spanR7BMatrixRK7BVector, symObjAddr: 0x1570, symBinAddr: 0x1000055BC, symSize: 0xA8 }
  - { offsetInCU: 0x2A73A, offset: 0x2A73A, size: 0x8, addend: 0x0, symName: __ZN7BVectorC1ERKS_, symObjAddr: 0x1618, symBinAddr: 0x100005664, symSize: 0x34 }
  - { offsetInCU: 0x2A76F, offset: 0x2A76F, size: 0x8, addend: 0x0, symName: __ZN7BVector7is_zeroEv, symObjAddr: 0x164C, symBinAddr: 0x100005698, symSize: 0xA4 }
  - { offsetInCU: 0x2A7F3, offset: 0x2A7F3, size: 0x8, addend: 0x0, symName: __Z18transposed_productR7BMatrixS0_, symObjAddr: 0x16F0, symBinAddr: 0x10000573C, symSize: 0x1A8 }
  - { offsetInCU: 0x2A888, offset: 0x2A888, size: 0x8, addend: 0x0, symName: __Z18transposed_productRK7BVectorR7BMatrix, symObjAddr: 0x1898, symBinAddr: 0x1000058E4, symSize: 0x158 }
  - { offsetInCU: 0x2A910, offset: 0x2A910, size: 0x8, addend: 0x0, symName: __Z16basis_completion7BMatrix, symObjAddr: 0x19F0, symBinAddr: 0x100005A3C, symSize: 0x23C }
  - { offsetInCU: 0x2A9A1, offset: 0x2A9A1, size: 0x8, addend: 0x0, symName: __ZN7BMatrixC1Ev, symObjAddr: 0x1C2C, symBinAddr: 0x100005C78, symSize: 0x2C }
  - { offsetInCU: 0x2A9CB, offset: 0x2A9CB, size: 0x8, addend: 0x0, symName: __ZN7BMatrix10append_rowE7BVector, symObjAddr: 0x1C58, symBinAddr: 0x100005CA4, symSize: 0xAC }
  - { offsetInCU: 0x2A9FF, offset: 0x2A9FF, size: 0x8, addend: 0x0, symName: __Z8sym_prod7BVectorS_, symObjAddr: 0x1D04, symBinAddr: 0x100005D50, symSize: 0x110 }
  - { offsetInCU: 0x2AA6B, offset: 0x2AA6B, size: 0x8, addend: 0x0, symName: __ZN7BVector10no_bucketsEv, symObjAddr: 0x1E14, symBinAddr: 0x100005E60, symSize: 0x24 }
  - { offsetInCU: 0x2AA91, offset: 0x2AA91, size: 0x8, addend: 0x0, symName: __Z15raw_sym_prod_llRKyS0_, symObjAddr: 0x1E38, symBinAddr: 0x100005E84, symSize: 0x58 }
  - { offsetInCU: 0x2AADD, offset: 0x2AADD, size: 0x8, addend: 0x0, symName: __Z17isotropic_closure7BMatrix, symObjAddr: 0x1E90, symBinAddr: 0x100005EDC, symSize: 0x37C }
  - { offsetInCU: 0x2AB76, offset: 0x2AB76, size: 0x8, addend: 0x0, symName: __ZN7BMatrixC1ERKS_, symObjAddr: 0x220C, symBinAddr: 0x100006258, symSize: 0x34 }
  - { offsetInCU: 0x2ABAB, offset: 0x2ABAB, size: 0x8, addend: 0x0, symName: __ZN7BMatrix5emptyEv, symObjAddr: 0x2240, symBinAddr: 0x10000628C, symSize: 0x28 }
  - { offsetInCU: 0x2ABD1, offset: 0x2ABD1, size: 0x8, addend: 0x0, symName: __ZN7BMatrix8last_rowEv, symObjAddr: 0x2268, symBinAddr: 0x1000062B4, symSize: 0x40 }
  - { offsetInCU: 0x2ABF7, offset: 0x2ABF7, size: 0x8, addend: 0x0, symName: __ZN7BMatrix7pop_rowEv, symObjAddr: 0x22A8, symBinAddr: 0x1000062F4, symSize: 0x38 }
  - { offsetInCU: 0x2AC23, offset: 0x2AC23, size: 0x8, addend: 0x0, symName: __ZN7BMatrixC1EOS_, symObjAddr: 0x22E0, symBinAddr: 0x10000632C, symSize: 0x34 }
  - { offsetInCU: 0x2AC58, offset: 0x2AC58, size: 0x8, addend: 0x0, symName: __ZNSt3__16vectorIbNS_9allocatorIbEEEC1B8ue170006Ev, symObjAddr: 0x2410, symBinAddr: 0x10000645C, symSize: 0x2C }
  - { offsetInCU: 0x2AC84, offset: 0x2AC84, size: 0x8, addend: 0x0, symName: __ZNSt3__16vectorIbNS_9allocatorIbEEE7reserveEm, symObjAddr: 0x243C, symBinAddr: 0x100006488, symSize: 0x118 }
  - { offsetInCU: 0x2ACD0, offset: 0x2ACD0, size: 0x8, addend: 0x0, symName: '__ZNSt3__18functionIFvvEEC1IZ10partitionsiNS0_IFvNS_6vectorIbNS_9allocatorIbEEEEEEEE3$_0vEET_', symObjAddr: 0x2554, symBinAddr: 0x1000065A0, symSize: 0x34 }
  - { offsetInCU: 0x2AD16, offset: 0x2AD16, size: 0x8, addend: 0x0, symName: __ZNKSt3__18functionIFvvEEclEv, symObjAddr: 0x2588, symBinAddr: 0x1000065D4, symSize: 0x24 }
  - { offsetInCU: 0x2AD3E, offset: 0x2AD3E, size: 0x8, addend: 0x0, symName: __ZNSt3__18functionIFvvEED1Ev, symObjAddr: 0x25AC, symBinAddr: 0x1000065F8, symSize: 0x2C }
  - { offsetInCU: 0x2AD6A, offset: 0x2AD6A, size: 0x8, addend: 0x0, symName: __ZNSt3__16vectorIbNS_9allocatorIbEEED1B8ue170006Ev, symObjAddr: 0x25D8, symBinAddr: 0x100006624, symSize: 0x2C }
  - { offsetInCU: 0x2AD94, offset: 0x2AD94, size: 0x8, addend: 0x0, symName: '__ZNSt3__18functionIFviEEC1IZ12combinationsiiNS0_IFvNS_6vectorIbNS_9allocatorIbEEEEEEEE3$_1vEET_', symObjAddr: 0x2708, symBinAddr: 0x100006754, symSize: 0x34 }
  - { offsetInCU: 0x2ADDA, offset: 0x2ADDA, size: 0x8, addend: 0x0, symName: __ZNKSt3__18functionIFviEEclEi, symObjAddr: 0x273C, symBinAddr: 0x100006788, symSize: 0x30 }
  - { offsetInCU: 0x2AE11, offset: 0x2AE11, size: 0x8, addend: 0x0, symName: __ZNSt3__18functionIFviEED1Ev, symObjAddr: 0x276C, symBinAddr: 0x1000067B8, symSize: 0x2C }
  - { offsetInCU: 0x2AE3C, offset: 0x2AE3C, size: 0x8, addend: 0x0, symName: __Z17stabilizer_weight7BVector, symObjAddr: 0x2798, symBinAddr: 0x1000067E4, symSize: 0xB0 }
  - { offsetInCU: 0x2AE98, offset: 0x2AE98, size: 0x8, addend: 0x0, symName: '__ZNSt3__18functionIFviEEC1IZ23iterate_words_of_weightiiNS0_IFvNS_6vectorIbNS_9allocatorIbEEEEEEEE3$_2vEET_', symObjAddr: 0x294C, symBinAddr: 0x100006998, symSize: 0x34 }
  - { offsetInCU: 0x2AEDE, offset: 0x2AEDE, size: 0x8, addend: 0x0, symName: '__ZNSt3__18functionIFvNS_6vectorIbNS_9allocatorIbEEEEEEC1IZ20bruteforce_distance07BMatrixE3$_3vEET_', symObjAddr: 0x2B94, symBinAddr: 0x100006BE0, symSize: 0x34 }
  - { offsetInCU: 0x2AF24, offset: 0x2AF24, size: 0x8, addend: 0x0, symName: __ZNSt3__18functionIFvNS_6vectorIbNS_9allocatorIbEEEEEED1Ev, symObjAddr: 0x2BC8, symBinAddr: 0x100006C14, symSize: 0x2C }
  - { offsetInCU: 0x2AF4F, offset: 0x2AF4F, size: 0x8, addend: 0x0, symName: __Z8zx_parts7BMatrix, symObjAddr: 0x2BF4, symBinAddr: 0x100006C40, symSize: 0x2DC }
  - { offsetInCU: 0x2B01E, offset: 0x2B01E, size: 0x8, addend: 0x0, symName: __ZNSt3__16vectorIbNS_9allocatorIbEEE9push_backERKb, symObjAddr: 0x2ED0, symBinAddr: 0x100006F1C, symSize: 0xA4 }
  - { offsetInCU: 0x2B055, offset: 0x2B055, size: 0x8, addend: 0x0, symName: __ZNSt3__16vectorIbNS_9allocatorIbEEEC1ERKS3_, symObjAddr: 0x2F74, symBinAddr: 0x100006FC0, symSize: 0x34 }
  - { offsetInCU: 0x2B090, offset: 0x2B090, size: 0x8, addend: 0x0, symName: __ZN7BVectorC1ENSt3__16vectorIbNS0_9allocatorIbEEEE, symObjAddr: 0x2FA8, symBinAddr: 0x100006FF4, symSize: 0x34 }
  - { offsetInCU: 0x2B0C8, offset: 0x2B0C8, size: 0x8, addend: 0x0, symName: __Z9list_diffNSt3__16vectorIiNS_9allocatorIiEEEES3_, symObjAddr: 0x301C, symBinAddr: 0x100007068, symSize: 0x204 }
  - { offsetInCU: 0x2B136, offset: 0x2B136, size: 0x8, addend: 0x0, symName: __ZNSt3__16vectorIiNS_9allocatorIiEEE7reserveEm, symObjAddr: 0x3220, symBinAddr: 0x10000726C, symSize: 0xE8 }
  - { offsetInCU: 0x2B191, offset: 0x2B191, size: 0x8, addend: 0x0, symName: __Z12zero_columns7BMatrixNSt3__16vectorIiNS0_9allocatorIiEEEE, symObjAddr: 0x3308, symBinAddr: 0x100007354, symSize: 0x1B4 }
  - { offsetInCU: 0x2B26C, offset: 0x2B26C, size: 0x8, addend: 0x0, symName: __ZNSt3__16vectorIiNS_9allocatorIiEEE5beginB8ue170006Ev, symObjAddr: 0x34BC, symBinAddr: 0x100007508, symSize: 0x30 }
  - { offsetInCU: 0x2B294, offset: 0x2B294, size: 0x8, addend: 0x0, symName: __ZNSt3__16vectorIiNS_9allocatorIiEEE3endB8ue170006Ev, symObjAddr: 0x34EC, symBinAddr: 0x100007538, symSize: 0x30 }
  - { offsetInCU: 0x2B2BC, offset: 0x2B2BC, size: 0x8, addend: 0x0, symName: __ZNKSt3__111__wrap_iterIPiEdeB8ue170006Ev, symObjAddr: 0x3550, symBinAddr: 0x10000759C, symSize: 0x18 }
  - { offsetInCU: 0x2B2E2, offset: 0x2B2E2, size: 0x8, addend: 0x0, symName: __ZNSt3__111__wrap_iterIPiEppB8ue170006Ev, symObjAddr: 0x3568, symBinAddr: 0x1000075B4, symSize: 0x20 }
  - { offsetInCU: 0x2B307, offset: 0x2B307, size: 0x8, addend: 0x0, symName: __Z26brouwer_zimmerman_sequence7BMatrix, symObjAddr: 0x3588, symBinAddr: 0x1000075D4, symSize: 0x3D0 }
  - { offsetInCU: 0x2B3C9, offset: 0x2B3C9, size: 0x8, addend: 0x0, symName: __ZNSt3__16vectorINS_4pairI7BMatrixiEENS_9allocatorIS3_EEEC1B8ue170006Ev, symObjAddr: 0x3958, symBinAddr: 0x1000079A4, symSize: 0x2C }
  - { offsetInCU: 0x2B3F3, offset: 0x2B3F3, size: 0x8, addend: 0x0, symName: __ZNSt3__16vectorIiNS_9allocatorIiEEE6resizeEm, symObjAddr: 0x3984, symBinAddr: 0x1000079D0, symSize: 0x94 }
  - { offsetInCU: 0x2B439, offset: 0x2B439, size: 0x8, addend: 0x0, symName: __ZN7BMatrixaSERKS_, symObjAddr: 0x3A18, symBinAddr: 0x100007A64, symSize: 0x40 }
  - { offsetInCU: 0x2B46A, offset: 0x2B46A, size: 0x8, addend: 0x0, symName: __ZNKSt3__16vectorIiNS_9allocatorIiEEE5emptyB8ue170006Ev, symObjAddr: 0x3A58, symBinAddr: 0x100007AA4, symSize: 0x28 }
  - { offsetInCU: 0x2B490, offset: 0x2B490, size: 0x8, addend: 0x0, symName: __ZNSt3__16vectorIiNS_9allocatorIiEEEC1ERKS3_, symObjAddr: 0x3A80, symBinAddr: 0x100007ACC, symSize: 0x34 }
  - { offsetInCU: 0x2B4D1, offset: 0x2B4D1, size: 0x8, addend: 0x0, symName: __ZNSt3__16vectorINS_4pairI7BMatrixiEENS_9allocatorIS3_EEE12emplace_backIJRS2_mEEEvDpOT_, symObjAddr: 0x3AB4, symBinAddr: 0x100007B00, symSize: 0x78 }
  - { offsetInCU: 0x2B527, offset: 0x2B527, size: 0x8, addend: 0x0, symName: __ZNSt3__16vectorIiNS_9allocatorIiEEEaSB8ue170006EOS3_, symObjAddr: 0x3B2C, symBinAddr: 0x100007B78, symSize: 0x34 }
  - { offsetInCU: 0x2B55E, offset: 0x2B55E, size: 0x8, addend: 0x0, symName: __ZNSt3__16vectorINS_4pairI7BMatrixiEENS_9allocatorIS3_EEED1B8ue170006Ev, symObjAddr: 0x3B60, symBinAddr: 0x100007BAC, symSize: 0x2C }
  - { offsetInCU: 0x2B588, offset: 0x2B588, size: 0x8, addend: 0x0, symName: __ZNSt3__16vectorINS_4pairI7BMatrixiEENS_9allocatorIS3_EEE5beginB8ue170006Ev, symObjAddr: 0x3F08, symBinAddr: 0x100007F54, symSize: 0x30 }
  - { offsetInCU: 0x2B5B0, offset: 0x2B5B0, size: 0x8, addend: 0x0, symName: __ZNSt3__16vectorINS_4pairI7BMatrixiEENS_9allocatorIS3_EEE3endB8ue170006Ev, symObjAddr: 0x3F38, symBinAddr: 0x100007F84, symSize: 0x30 }
  - { offsetInCU: 0x2B5D8, offset: 0x2B5D8, size: 0x8, addend: 0x0, symName: __ZNKSt3__111__wrap_iterIPNS_4pairI7BMatrixiEEEdeB8ue170006Ev, symObjAddr: 0x3F9C, symBinAddr: 0x100007FE8, symSize: 0x18 }
  - { offsetInCU: 0x2B5FE, offset: 0x2B5FE, size: 0x8, addend: 0x0, symName: __ZNSt3__14pairI7BMatrixiEC1B8ue170006ERKS2_, symObjAddr: 0x3FB4, symBinAddr: 0x100008000, symSize: 0x34 }
  - { offsetInCU: 0x2B632, offset: 0x2B632, size: 0x8, addend: 0x0, symName: '__ZNSt3__18functionIFvNS_6vectorIbNS_9allocatorIbEEEEEEC1IZ17brouwer_zimmerman7BMatrixS8_E3$_4vEET_', symObjAddr: 0x3FE8, symBinAddr: 0x100008034, symSize: 0x34 }
  - { offsetInCU: 0x2B678, offset: 0x2B678, size: 0x8, addend: 0x0, symName: __ZNSt3__14pairI7BMatrixiED1Ev, symObjAddr: 0x401C, symBinAddr: 0x100008068, symSize: 0x2C }
  - { offsetInCU: 0x2B6A4, offset: 0x2B6A4, size: 0x8, addend: 0x0, symName: __ZNSt3__111__wrap_iterIPNS_4pairI7BMatrixiEEEppB8ue170006Ev, symObjAddr: 0x4048, symBinAddr: 0x100008094, symSize: 0x20 }
  - { offsetInCU: 0x2B6C9, offset: 0x2B6C9, size: 0x8, addend: 0x0, symName: __Z12get_distance7BMatrix, symObjAddr: 0x4094, symBinAddr: 0x1000080E0, symSize: 0x3F0 }
  - { offsetInCU: 0x2B768, offset: 0x2B768, size: 0x8, addend: 0x0, symName: __ZN7BMatrixaSEOS_, symObjAddr: 0x4484, symBinAddr: 0x1000084D0, symSize: 0x40 }
  - { offsetInCU: 0x2B83C, offset: 0x2B83C, size: 0x8, addend: 0x0, symName: __ZNSt3__15tupleIJR7BMatrixS2_EEaSB8ue170006IS1_S1_Li0EEERS3_ONS_4pairIT_T0_EE, symObjAddr: 0x44FC, symBinAddr: 0x100008548, symSize: 0x5C }
  - { offsetInCU: 0x2B889, offset: 0x2B889, size: 0x8, addend: 0x0, symName: __ZNSt3__14pairI7BMatrixS1_ED1Ev, symObjAddr: 0x4558, symBinAddr: 0x1000085A4, symSize: 0x2C }
  - { offsetInCU: 0x2B8B5, offset: 0x2B8B5, size: 0x8, addend: 0x0, symName: __ZN7BMatrix12remove_zerosEv, symObjAddr: 0x4584, symBinAddr: 0x1000085D0, symSize: 0xFC }
  - { offsetInCU: 0x2B8F7, offset: 0x2B8F7, size: 0x8, addend: 0x0, symName: __ZN7BMatrix9sort_rowsEv, symObjAddr: 0x4680, symBinAddr: 0x1000086CC, symSize: 0x48 }
  - { offsetInCU: 0x2B940, offset: 0x2B940, size: 0x8, addend: 0x0, symName: __Z11steane_codev, symObjAddr: 0x46F4, symBinAddr: 0x100008740, symSize: 0x200 }
  - { offsetInCU: 0x2B9C7, offset: 0x2B9C7, size: 0x8, addend: 0x0, symName: __Z22bmatrix_ben_conversionNSt3__16vectorINS_12basic_stringIcNS_11char_traitsIcEENS_9allocatorIcEEEENS4_IS6_EEEE, symObjAddr: 0x48F4, symBinAddr: 0x100008940, symSize: 0x2A0 }
  - { offsetInCU: 0x2BA6D, offset: 0x2BA6D, size: 0x8, addend: 0x0, symName: __ZNSt3__16vectorINS_12basic_stringIcNS_11char_traitsIcEENS_9allocatorIcEEEENS4_IS6_EEE4backB8ue170006Ev, symObjAddr: 0x4BB4, symBinAddr: 0x100008C00, symSize: 0x1C }
  - { offsetInCU: 0x2BA93, offset: 0x2BA93, size: 0x8, addend: 0x0, symName: __ZNKSt3__112basic_stringIcNS_11char_traitsIcEENS_9allocatorIcEEE4sizeB8ue170006Ev, symObjAddr: 0x4BD0, symBinAddr: 0x100008C1C, symSize: 0x54 }
  - { offsetInCU: 0x2BAB9, offset: 0x2BAB9, size: 0x8, addend: 0x0, symName: __ZNKSt3__16vectorINS_12basic_stringIcNS_11char_traitsIcEENS_9allocatorIcEEEENS4_IS6_EEE4sizeB8ue170006Ev, symObjAddr: 0x4C24, symBinAddr: 0x100008C70, symSize: 0x28 }
  - { offsetInCU: 0x2BADF, offset: 0x2BADF, size: 0x8, addend: 0x0, symName: __ZNSt3__16vectorINS_12basic_stringIcNS_11char_traitsIcEENS_9allocatorIcEEEENS4_IS6_EEEixB8ue170006Em, symObjAddr: 0x4C4C, symBinAddr: 0x100008C98, symSize: 0x2C }
  - { offsetInCU: 0x2BB16, offset: 0x2BB16, size: 0x8, addend: 0x0, symName: __ZNSt3__112basic_stringIcNS_11char_traitsIcEENS_9allocatorIcEEEixB8ue170006Em, symObjAddr: 0x4C78, symBinAddr: 0x100008CC4, symSize: 0x30 }
  - { offsetInCU: 0x2BB4A, offset: 0x2BB4A, size: 0x8, addend: 0x0, symName: __Z27bmatrix_standard_conversionNSt3__16vectorINS_12basic_stringIcNS_11char_traitsIcEENS_9allocatorIcEEEENS4_IS6_EEEE, symObjAddr: 0x4CA8, symBinAddr: 0x100008CF4, symSize: 0x2A0 }
  - { offsetInCU: 0x2BBEF, offset: 0x2BBEF, size: 0x8, addend: 0x0, symName: __Z9ben_codesv, symObjAddr: 0x4F90, symBinAddr: 0x100008FDC, symSize: 0x204 }
  - { offsetInCU: 0x2BD8A, offset: 0x2BD8A, size: 0x8, addend: 0x0, symName: __ZNSt3__114basic_ifstreamIcNS_11char_traitsIcEEEC1EPKcj, symObjAddr: 0x5194, symBinAddr: 0x1000091E0, symSize: 0x16C }
  - { offsetInCU: 0x2BDD4, offset: 0x2BDD4, size: 0x8, addend: 0x0, symName: __ZNSt3__16vectorI7BMatrixNS_9allocatorIS1_EEEC1B8ue170006Ev, symObjAddr: 0x5300, symBinAddr: 0x10000934C, symSize: 0x2C }
  - { offsetInCU: 0x2BDFE, offset: 0x2BDFE, size: 0x8, addend: 0x0, symName: __ZNSt3__16vectorINS_12basic_stringIcNS_11char_traitsIcEENS_9allocatorIcEEEENS4_IS6_EEEC1B8ue170006Ev, symObjAddr: 0x532C, symBinAddr: 0x100009378, symSize: 0x2C }
  - { offsetInCU: 0x2BE28, offset: 0x2BE28, size: 0x8, addend: 0x0, symName: __ZNSt3__112basic_stringIcNS_11char_traitsIcEENS_9allocatorIcEEEC1B8ue170006Ev, symObjAddr: 0x5358, symBinAddr: 0x1000093A4, symSize: 0x2C }
  - { offsetInCU: 0x2BE52, offset: 0x2BE52, size: 0x8, addend: 0x0, symName: __ZNKSt3__19basic_iosIcNS_11char_traitsIcEEEcvbB8ue170006Ev, symObjAddr: 0x53E0, symBinAddr: 0x10000942C, symSize: 0x2C }
  - { offsetInCU: 0x2BE78, offset: 0x2BE78, size: 0x8, addend: 0x0, symName: __ZNSt3__16vectorI7BMatrixNS_9allocatorIS1_EEE9push_backB8ue170006EOS1_, symObjAddr: 0x54B8, symBinAddr: 0x100009504, symSize: 0x6C }
  - { offsetInCU: 0x2BEAF, offset: 0x2BEAF, size: 0x8, addend: 0x0, symName: __ZNSt3__16vectorINS_12basic_stringIcNS_11char_traitsIcEENS_9allocatorIcEEEENS4_IS6_EEEC1ERKS8_, symObjAddr: 0x5524, symBinAddr: 0x100009570, symSize: 0x34 }
  - { offsetInCU: 0x2BEEA, offset: 0x2BEEA, size: 0x8, addend: 0x0, symName: __ZNSt3__16vectorINS_12basic_stringIcNS_11char_traitsIcEENS_9allocatorIcEEEENS4_IS6_EEED1B8ue170006Ev, symObjAddr: 0x5558, symBinAddr: 0x1000095A4, symSize: 0x2C }
  - { offsetInCU: 0x2BF14, offset: 0x2BF14, size: 0x8, addend: 0x0, symName: __ZNSt3__16vectorINS_12basic_stringIcNS_11char_traitsIcEENS_9allocatorIcEEEENS4_IS6_EEE5clearB8ue170006Ev, symObjAddr: 0x5584, symBinAddr: 0x1000095D0, symSize: 0x44 }
  - { offsetInCU: 0x2BF49, offset: 0x2BF49, size: 0x8, addend: 0x0, symName: __ZNSt3__16vectorINS_12basic_stringIcNS_11char_traitsIcEENS_9allocatorIcEEEENS4_IS6_EEE9push_backB8ue170006ERKS6_, symObjAddr: 0x55C8, symBinAddr: 0x100009614, symSize: 0x6C }
  - { offsetInCU: 0x2BF80, offset: 0x2BF80, size: 0x8, addend: 0x0, symName: __ZNSt3__16vectorI7BMatrixNS_9allocatorIS1_EEED1B8ue170006Ev, symObjAddr: 0x5634, symBinAddr: 0x100009680, symSize: 0x2C }
  - { offsetInCU: 0x2BFB0, offset: 0x2BFB0, size: 0x8, addend: 0x0, symName: __ZNSt3__114basic_ifstreamIcNS_11char_traitsIcEEED1Ev, symObjAddr: 0x5660, symBinAddr: 0x1000096AC, symSize: 0x40 }
  - { offsetInCU: 0x2BFDD, offset: 0x2BFDD, size: 0x8, addend: 0x0, symName: _main, symObjAddr: 0x56A0, symBinAddr: 0x1000096EC, symSize: 0x1B4 }
  - { offsetInCU: 0x2C027, offset: 0x2C027, size: 0x8, addend: 0x0, symName: __ZN7BVectorC2Ei, symObjAddr: 0x5854, symBinAddr: 0x1000098A0, symSize: 0x80 }
  - { offsetInCU: 0x2C05F, offset: 0x2C05F, size: 0x8, addend: 0x0, symName: __ZNSt3__16vectorIyNS_9allocatorIyEEEC1B8ue170006Ev, symObjAddr: 0x58D4, symBinAddr: 0x100009920, symSize: 0x2C }
  - { offsetInCU: 0x2C089, offset: 0x2C089, size: 0x8, addend: 0x0, symName: __ZNSt3__16vectorIyNS_9allocatorIyEEE6resizeEm, symObjAddr: 0x5900, symBinAddr: 0x10000994C, symSize: 0x94 }
  - { offsetInCU: 0x2C0CF, offset: 0x2C0CF, size: 0x8, addend: 0x0, symName: __ZNSt3__16vectorIyNS_9allocatorIyEEED1B8ue170006Ev, symObjAddr: 0x5994, symBinAddr: 0x1000099E0, symSize: 0x2C }
  - { offsetInCU: 0x2C0F9, offset: 0x2C0F9, size: 0x8, addend: 0x0, symName: __ZNSt3__16vectorIyNS_9allocatorIyEEEC2B8ue170006Ev, symObjAddr: 0x59C0, symBinAddr: 0x100009A0C, symSize: 0x4C }
  - { offsetInCU: 0x2C12F, offset: 0x2C12F, size: 0x8, addend: 0x0, symName: __ZNSt3__117__compressed_pairIPyNS_9allocatorIyEEEC1B8ue170006IDnNS_18__default_init_tagEEEOT_OT0_, symObjAddr: 0x5A0C, symBinAddr: 0x100009A58, symSize: 0x3C }
  - { offsetInCU: 0x2C187, offset: 0x2C187, size: 0x8, addend: 0x0, symName: __ZNSt3__117__compressed_pairIPyNS_9allocatorIyEEEC2B8ue170006IDnNS_18__default_init_tagEEEOT_OT0_, symObjAddr: 0x5A54, symBinAddr: 0x100009AA0, symSize: 0x40 }
  - { offsetInCU: 0x2C1DF, offset: 0x2C1DF, size: 0x8, addend: 0x0, symName: __ZNSt3__122__compressed_pair_elemIPyLi0ELb0EEC2B8ue170006IDnvEEOT_, symObjAddr: 0x5A94, symBinAddr: 0x100009AE0, symSize: 0x1C }
  - { offsetInCU: 0x2C221, offset: 0x2C221, size: 0x8, addend: 0x0, symName: __ZNSt3__122__compressed_pair_elemINS_9allocatorIyEELi1ELb1EEC2B8ue170006ENS_18__default_init_tagE, symObjAddr: 0x5AB0, symBinAddr: 0x100009AFC, symSize: 0x2C }
  - { offsetInCU: 0x2C255, offset: 0x2C255, size: 0x8, addend: 0x0, symName: __ZNSt3__19allocatorIyEC2B8ue170006Ev, symObjAddr: 0x5ADC, symBinAddr: 0x100009B28, symSize: 0x2C }
  - { offsetInCU: 0x2C27F, offset: 0x2C27F, size: 0x8, addend: 0x0, symName: __ZNSt3__116__non_trivial_ifILb1ENS_9allocatorIyEEEC2B8ue170006Ev, symObjAddr: 0x5B08, symBinAddr: 0x100009B54, symSize: 0x14 }
  - { offsetInCU: 0x2C2A9, offset: 0x2C2A9, size: 0x8, addend: 0x0, symName: __ZNSt3__16vectorIyNS_9allocatorIyEEE8__appendEm, symObjAddr: 0x5B1C, symBinAddr: 0x100009B68, symSize: 0x108 }
  - { offsetInCU: 0x2C304, offset: 0x2C304, size: 0x8, addend: 0x0, symName: __ZNSt3__16vectorIyNS_9allocatorIyEEE17__destruct_at_endB8ue170006EPy, symObjAddr: 0x5C24, symBinAddr: 0x100009C70, symSize: 0x4C }
  - { offsetInCU: 0x2C348, offset: 0x2C348, size: 0x8, addend: 0x0, symName: __ZNSt3__16vectorIyNS_9allocatorIyEEE9__end_capB8ue170006Ev, symObjAddr: 0x5C70, symBinAddr: 0x100009CBC, symSize: 0x28 }
  - { offsetInCU: 0x2C36E, offset: 0x2C36E, size: 0x8, addend: 0x0, symName: __ZNSt3__16vectorIyNS_9allocatorIyEEE18__construct_at_endEm, symObjAddr: 0x5C98, symBinAddr: 0x100009CE4, symSize: 0xC8 }
  - { offsetInCU: 0x2C3E0, offset: 0x2C3E0, size: 0x8, addend: 0x0, symName: __ZNSt3__16vectorIyNS_9allocatorIyEEE7__allocB8ue170006Ev, symObjAddr: 0x5D60, symBinAddr: 0x100009DAC, symSize: 0x28 }
  - { offsetInCU: 0x2C406, offset: 0x2C406, size: 0x8, addend: 0x0, symName: __ZNKSt3__16vectorIyNS_9allocatorIyEEE11__recommendB8ue170006Em, symObjAddr: 0x5D88, symBinAddr: 0x100009DD4, symSize: 0xB4 }
  - { offsetInCU: 0x2C45B, offset: 0x2C45B, size: 0x8, addend: 0x0, symName: __ZNSt3__114__split_bufferIyRNS_9allocatorIyEEEC1EmmS3_, symObjAddr: 0x5E3C, symBinAddr: 0x100009E88, symSize: 0x44 }
  - { offsetInCU: 0x2C4B1, offset: 0x2C4B1, size: 0x8, addend: 0x0, symName: __ZNSt3__114__split_bufferIyRNS_9allocatorIyEEE18__construct_at_endEm, symObjAddr: 0x5E80, symBinAddr: 0x100009ECC, symSize: 0xB4 }
  - { offsetInCU: 0x2C4F6, offset: 0x2C4F6, size: 0x8, addend: 0x0, symName: __ZNSt3__114__split_bufferIyRNS_9allocatorIyEEED1Ev, symObjAddr: 0x6044, symBinAddr: 0x10000A090, symSize: 0x2C }
  - { offsetInCU: 0x2C522, offset: 0x2C522, size: 0x8, addend: 0x0, symName: __ZNSt3__117__compressed_pairIPyNS_9allocatorIyEEE5firstB8ue170006Ev, symObjAddr: 0x6070, symBinAddr: 0x10000A0BC, symSize: 0x24 }
  - { offsetInCU: 0x2C548, offset: 0x2C548, size: 0x8, addend: 0x0, symName: __ZNSt3__122__compressed_pair_elemIPyLi0ELb0EE5__getB8ue170006Ev, symObjAddr: 0x6094, symBinAddr: 0x10000A0E0, symSize: 0x14 }
  - { offsetInCU: 0x2C58A, offset: 0x2C58A, size: 0x8, addend: 0x0, symName: __ZNSt3__16vectorIyNS_9allocatorIyEEE21_ConstructTransactionC1B8ue170006ERS3_m, symObjAddr: 0x60A8, symBinAddr: 0x10000A0F4, symSize: 0x3C }
  - { offsetInCU: 0x2C5D2, offset: 0x2C5D2, size: 0x8, addend: 0x0, symName: __ZNSt3__116allocator_traitsINS_9allocatorIyEEE9constructB8ue170006IyJEvEEvRS2_PT_DpOT0_, symObjAddr: 0x60E4, symBinAddr: 0x10000A130, symSize: 0x2C }
  - { offsetInCU: 0x2C614, offset: 0x2C614, size: 0x8, addend: 0x0, symName: __ZNSt3__16vectorIyNS_9allocatorIyEEE21_ConstructTransactionD1B8ue170006Ev, symObjAddr: 0x6124, symBinAddr: 0x10000A170, symSize: 0x2C }
  - { offsetInCU: 0x2C63E, offset: 0x2C63E, size: 0x8, addend: 0x0, symName: __ZNSt3__16vectorIyNS_9allocatorIyEEE21_ConstructTransactionC2B8ue170006ERS3_m, symObjAddr: 0x6150, symBinAddr: 0x10000A19C, symSize: 0x44 }
  - { offsetInCU: 0x2C686, offset: 0x2C686, size: 0x8, addend: 0x0, symName: __ZNSt3__19allocatorIyE9constructB8ue170006IyJEEEvPT_DpOT0_, symObjAddr: 0x6194, symBinAddr: 0x10000A1E0, symSize: 0x1C }
  - { offsetInCU: 0x2C6C8, offset: 0x2C6C8, size: 0x8, addend: 0x0, symName: __ZNSt3__16vectorIyNS_9allocatorIyEEE21_ConstructTransactionD2B8ue170006Ev, symObjAddr: 0x61B0, symBinAddr: 0x10000A1FC, symSize: 0x20 }
  - { offsetInCU: 0x2C6F2, offset: 0x2C6F2, size: 0x8, addend: 0x0, symName: __ZNSt3__117__compressed_pairIPyNS_9allocatorIyEEE6secondB8ue170006Ev, symObjAddr: 0x61D0, symBinAddr: 0x10000A21C, symSize: 0x24 }
  - { offsetInCU: 0x2C718, offset: 0x2C718, size: 0x8, addend: 0x0, symName: __ZNSt3__122__compressed_pair_elemINS_9allocatorIyEELi1ELb1EE5__getB8ue170006Ev, symObjAddr: 0x61F4, symBinAddr: 0x10000A240, symSize: 0x14 }
  - { offsetInCU: 0x2C73E, offset: 0x2C73E, size: 0x8, addend: 0x0, symName: __ZNKSt3__16vectorIyNS_9allocatorIyEEE8max_sizeEv, symObjAddr: 0x6208, symBinAddr: 0x10000A254, symSize: 0x60 }
  - { offsetInCU: 0x2C766, offset: 0x2C766, size: 0x8, addend: 0x0, symName: __ZNKSt3__16vectorIyNS_9allocatorIyEEE20__throw_length_errorB8ue170006Ev, symObjAddr: 0x6268, symBinAddr: 0x10000A2B4, symSize: 0x1C }
  - { offsetInCU: 0x2C78C, offset: 0x2C78C, size: 0x8, addend: 0x0, symName: __ZNKSt3__16vectorIyNS_9allocatorIyEEE8capacityB8ue170006Ev, symObjAddr: 0x6284, symBinAddr: 0x10000A2D0, symSize: 0x40 }
  - { offsetInCU: 0x2C7BD, offset: 0x2C7BD, size: 0x8, addend: 0x0, symName: __ZNSt3__116allocator_traitsINS_9allocatorIyEEE8max_sizeB8ue170006IS2_vEEmRKS2_, symObjAddr: 0x631C, symBinAddr: 0x10000A368, symSize: 0x24 }
  - { offsetInCU: 0x2C7EB, offset: 0x2C7EB, size: 0x8, addend: 0x0, symName: __ZNKSt3__16vectorIyNS_9allocatorIyEEE7__allocB8ue170006Ev, symObjAddr: 0x6340, symBinAddr: 0x10000A38C, symSize: 0x28 }
  - { offsetInCU: 0x2C811, offset: 0x2C811, size: 0x8, addend: 0x0, symName: __ZNSt3__114numeric_limitsIlE3maxB8ue170006Ev, symObjAddr: 0x6368, symBinAddr: 0x10000A3B4, symSize: 0x14 }
  - { offsetInCU: 0x2C830, offset: 0x2C830, size: 0x8, addend: 0x0, symName: __ZNKSt3__16__lessIvvEclB8ue170006ImmEEbRKT_RKT0_, symObjAddr: 0x63D0, symBinAddr: 0x10000A41C, symSize: 0x34 }
  - { offsetInCU: 0x2C884, offset: 0x2C884, size: 0x8, addend: 0x0, symName: __ZNKSt3__19allocatorIyE8max_sizeB8ue170006Ev, symObjAddr: 0x6404, symBinAddr: 0x10000A450, symSize: 0x14 }
  - { offsetInCU: 0x2C8AA, offset: 0x2C8AA, size: 0x8, addend: 0x0, symName: __ZNKSt3__117__compressed_pairIPyNS_9allocatorIyEEE6secondB8ue170006Ev, symObjAddr: 0x6418, symBinAddr: 0x10000A464, symSize: 0x24 }
  - { offsetInCU: 0x2C8D0, offset: 0x2C8D0, size: 0x8, addend: 0x0, symName: __ZNKSt3__122__compressed_pair_elemINS_9allocatorIyEELi1ELb1EE5__getB8ue170006Ev, symObjAddr: 0x643C, symBinAddr: 0x10000A488, symSize: 0x14 }
  - { offsetInCU: 0x2C8F6, offset: 0x2C8F6, size: 0x8, addend: 0x0, symName: __ZNSt3__123__libcpp_numeric_limitsIlLb1EE3maxB8ue170006Ev, symObjAddr: 0x6450, symBinAddr: 0x10000A49C, symSize: 0x8 }
  - { offsetInCU: 0x2C90A, offset: 0x2C90A, size: 0x8, addend: 0x0, symName: __ZNSt12length_errorC1B8ue170006EPKc, symObjAddr: 0x64BC, symBinAddr: 0x10000A508, symSize: 0x34 }
  - { offsetInCU: 0x2C942, offset: 0x2C942, size: 0x8, addend: 0x0, symName: __ZNSt12length_errorC2B8ue170006EPKc, symObjAddr: 0x64F0, symBinAddr: 0x10000A53C, symSize: 0x4C }
  - { offsetInCU: 0x2C97A, offset: 0x2C97A, size: 0x8, addend: 0x0, symName: __ZNKSt3__16vectorIyNS_9allocatorIyEEE9__end_capB8ue170006Ev, symObjAddr: 0x653C, symBinAddr: 0x10000A588, symSize: 0x28 }
  - { offsetInCU: 0x2C9A0, offset: 0x2C9A0, size: 0x8, addend: 0x0, symName: __ZNKSt3__117__compressed_pairIPyNS_9allocatorIyEEE5firstB8ue170006Ev, symObjAddr: 0x6564, symBinAddr: 0x10000A5B0, symSize: 0x24 }
  - { offsetInCU: 0x2C9C6, offset: 0x2C9C6, size: 0x8, addend: 0x0, symName: __ZNKSt3__122__compressed_pair_elemIPyLi0ELb0EE5__getB8ue170006Ev, symObjAddr: 0x6588, symBinAddr: 0x10000A5D4, symSize: 0x14 }
  - { offsetInCU: 0x2C9EC, offset: 0x2C9EC, size: 0x8, addend: 0x0, symName: __ZNSt3__114__split_bufferIyRNS_9allocatorIyEEEC2EmmS3_, symObjAddr: 0x65F0, symBinAddr: 0x10000A63C, symSize: 0xD4 }
  - { offsetInCU: 0x2CA5F, offset: 0x2CA5F, size: 0x8, addend: 0x0, symName: __ZNSt3__117__compressed_pairIPyRNS_9allocatorIyEEEC1B8ue170006IDnS4_EEOT_OT0_, symObjAddr: 0x66C4, symBinAddr: 0x10000A710, symSize: 0x3C }
  - { offsetInCU: 0x2CAB7, offset: 0x2CAB7, size: 0x8, addend: 0x0, symName: __ZNSt3__114__split_bufferIyRNS_9allocatorIyEEE7__allocB8ue170006Ev, symObjAddr: 0x6740, symBinAddr: 0x10000A78C, symSize: 0x28 }
  - { offsetInCU: 0x2CADD, offset: 0x2CADD, size: 0x8, addend: 0x0, symName: __ZNSt3__114__split_bufferIyRNS_9allocatorIyEEE9__end_capB8ue170006Ev, symObjAddr: 0x6768, symBinAddr: 0x10000A7B4, symSize: 0x28 }
  - { offsetInCU: 0x2CB03, offset: 0x2CB03, size: 0x8, addend: 0x0, symName: __ZNSt3__117__compressed_pairIPyRNS_9allocatorIyEEEC2B8ue170006IDnS4_EEOT_OT0_, symObjAddr: 0x6790, symBinAddr: 0x10000A7DC, symSize: 0x48 }
  - { offsetInCU: 0x2CB5B, offset: 0x2CB5B, size: 0x8, addend: 0x0, symName: __ZNSt3__122__compressed_pair_elemIRNS_9allocatorIyEELi1ELb0EEC2B8ue170006IS3_vEEOT_, symObjAddr: 0x67D8, symBinAddr: 0x10000A824, symSize: 0x20 }
  - { offsetInCU: 0x2CB9D, offset: 0x2CB9D, size: 0x8, addend: 0x0, symName: __ZNSt3__19allocatorIyE8allocateB8ue170006Em, symObjAddr: 0x67F8, symBinAddr: 0x10000A844, symSize: 0x58 }
  - { offsetInCU: 0x2CBD1, offset: 0x2CBD1, size: 0x8, addend: 0x0, symName: __ZNSt3__117__compressed_pairIPyRNS_9allocatorIyEEE6secondB8ue170006Ev, symObjAddr: 0x68D0, symBinAddr: 0x10000A91C, symSize: 0x28 }
  - { offsetInCU: 0x2CBF7, offset: 0x2CBF7, size: 0x8, addend: 0x0, symName: __ZNSt3__122__compressed_pair_elemIRNS_9allocatorIyEELi1ELb0EE5__getB8ue170006Ev, symObjAddr: 0x68F8, symBinAddr: 0x10000A944, symSize: 0x18 }
  - { offsetInCU: 0x2CC1D, offset: 0x2CC1D, size: 0x8, addend: 0x0, symName: __ZNSt3__117__compressed_pairIPyRNS_9allocatorIyEEE5firstB8ue170006Ev, symObjAddr: 0x6910, symBinAddr: 0x10000A95C, symSize: 0x24 }
  - { offsetInCU: 0x2CC4F, offset: 0x2CC4F, size: 0x8, addend: 0x0, symName: __ZNSt3__114__split_bufferIyRNS_9allocatorIyEEE21_ConstructTransactionC1B8ue170006EPPym, symObjAddr: 0x6934, symBinAddr: 0x10000A980, symSize: 0x3C }
  - { offsetInCU: 0x2CC95, offset: 0x2CC95, size: 0x8, addend: 0x0, symName: __ZNSt3__114__split_bufferIyRNS_9allocatorIyEEE21_ConstructTransactionD1B8ue170006Ev, symObjAddr: 0x6970, symBinAddr: 0x10000A9BC, symSize: 0x2C }
  - { offsetInCU: 0x2CCBF, offset: 0x2CCBF, size: 0x8, addend: 0x0, symName: __ZNSt3__114__split_bufferIyRNS_9allocatorIyEEE21_ConstructTransactionC2B8ue170006EPPym, symObjAddr: 0x699C, symBinAddr: 0x10000A9E8, symSize: 0x44 }
  - { offsetInCU: 0x2CD05, offset: 0x2CD05, size: 0x8, addend: 0x0, symName: __ZNSt3__114__split_bufferIyRNS_9allocatorIyEEE21_ConstructTransactionD2B8ue170006Ev, symObjAddr: 0x69E0, symBinAddr: 0x10000AA2C, symSize: 0x20 }
  - { offsetInCU: 0x2CD2F, offset: 0x2CD2F, size: 0x8, addend: 0x0, symName: __ZNKSt3__16vectorIyNS_9allocatorIyEEE17__annotate_deleteB8ue170006Ev, symObjAddr: 0x6A00, symBinAddr: 0x10000AA4C, symSize: 0xB8 }
  - { offsetInCU: 0x2CD55, offset: 0x2CD55, size: 0x8, addend: 0x0, symName: __ZNSt3__116reverse_iteratorIPyEC1B8ue170006ES1_, symObjAddr: 0x6B30, symBinAddr: 0x10000AB7C, symSize: 0x34 }
  - { offsetInCU: 0x2CD8D, offset: 0x2CD8D, size: 0x8, addend: 0x0, symName: __ZNKSt3__116reverse_iteratorIPyE4baseB8ue170006Ev, symObjAddr: 0x6B64, symBinAddr: 0x10000ABB0, symSize: 0x18 }
  - { offsetInCU: 0x2CDB3, offset: 0x2CDB3, size: 0x8, addend: 0x0, symName: __ZNKSt3__16vectorIyNS_9allocatorIyEEE14__annotate_newB8ue170006Em, symObjAddr: 0x6BB8, symBinAddr: 0x10000AC04, symSize: 0xAC }
  - { offsetInCU: 0x2CDE8, offset: 0x2CDE8, size: 0x8, addend: 0x0, symName: __ZNKSt3__16vectorIyNS_9allocatorIyEEE31__annotate_contiguous_containerB8ue170006EPKvS5_S5_S5_, symObjAddr: 0x6C64, symBinAddr: 0x10000ACB0, symSize: 0x20 }
  - { offsetInCU: 0x2CE3E, offset: 0x2CE3E, size: 0x8, addend: 0x0, symName: __ZNKSt3__16vectorIyNS_9allocatorIyEEE4dataB8ue170006Ev, symObjAddr: 0x6C84, symBinAddr: 0x10000ACD0, symSize: 0x28 }
  - { offsetInCU: 0x2CE8C, offset: 0x2CE8C, size: 0x8, addend: 0x0, symName: __ZNKSt3__111__move_loopINS_17_ClassicAlgPolicyEEclB8ue170006INS_16reverse_iteratorIPyEES6_S6_EENS_4pairIT_T1_EES8_T0_S9_, symObjAddr: 0x6F9C, symBinAddr: 0x10000AFE8, symSize: 0xA0 }
  - { offsetInCU: 0x2CEFD, offset: 0x2CEFD, size: 0x8, addend: 0x0, symName: __ZNSt3__18_IterOpsINS_17_ClassicAlgPolicyEE11__iter_moveB8ue170006IRNS_16reverse_iteratorIPyEEEENS_9enable_ifIXsr12is_referenceIDTdeclsr3stdE7declvalIRT_EEEEE5valueEDTclsr3stdE4movedeclsr3stdE7declvalISA_EEEEE4typeEOS9_, symObjAddr: 0x71D0, symBinAddr: 0x10000B21C, symSize: 0x28 }
  - { offsetInCU: 0x2CF29, offset: 0x2CF29, size: 0x8, addend: 0x0, symName: __ZNKSt3__116reverse_iteratorIPyEdeB8ue170006Ev, symObjAddr: 0x71F8, symBinAddr: 0x10000B244, symSize: 0x28 }
  - { offsetInCU: 0x2CF5D, offset: 0x2CF5D, size: 0x8, addend: 0x0, symName: __ZNSt3__116reverse_iteratorIPyEppB8ue170006Ev, symObjAddr: 0x7220, symBinAddr: 0x10000B26C, symSize: 0x20 }
  - { offsetInCU: 0x2CF83, offset: 0x2CF83, size: 0x8, addend: 0x0, symName: __ZNSt3__18_IterOpsINS_17_ClassicAlgPolicyEE25__validate_iter_referenceB8ue170006IRNS_16reverse_iteratorIPyEEEEvv, symObjAddr: 0x7240, symBinAddr: 0x10000B28C, symSize: 0x4 }
  - { offsetInCU: 0x2CFA1, offset: 0x2CFA1, size: 0x8, addend: 0x0, symName: __ZNSt3__118__unwrap_iter_implINS_16reverse_iteratorIPyEELb0EE8__unwrapB8ue170006ES3_, symObjAddr: 0x7244, symBinAddr: 0x10000B290, symSize: 0x24 }
  - { offsetInCU: 0x2CFCA, offset: 0x2CFCA, size: 0x8, addend: 0x0, symName: __ZNSt3__14pairINS_16reverse_iteratorIPyEES3_EC1B8ue170006IS3_S3_LPv0EEEOT_OT0_, symObjAddr: 0x7268, symBinAddr: 0x10000B2B4, symSize: 0x3C }
  - { offsetInCU: 0x2D028, offset: 0x2D028, size: 0x8, addend: 0x0, symName: __ZNSt3__14pairINS_16reverse_iteratorIPyEES3_EC2B8ue170006IS3_S3_LPv0EEEOT_OT0_, symObjAddr: 0x72A4, symBinAddr: 0x10000B2F0, symSize: 0x34 }
  - { offsetInCU: 0x2D086, offset: 0x2D086, size: 0x8, addend: 0x0, symName: __ZNSt3__118__unwrap_iter_implINS_16reverse_iteratorIPyEELb0EE8__rewrapB8ue170006ES3_S3_, symObjAddr: 0x72D8, symBinAddr: 0x10000B324, symSize: 0x2C }
  - { offsetInCU: 0x2D0B3, offset: 0x2D0B3, size: 0x8, addend: 0x0, symName: __ZNSt3__116reverse_iteratorIPyEC2B8ue170006ES1_, symObjAddr: 0x7304, symBinAddr: 0x10000B350, symSize: 0x28 }
  - { offsetInCU: 0x2D0EB, offset: 0x2D0EB, size: 0x8, addend: 0x0, symName: __ZNSt3__114__split_bufferIyRNS_9allocatorIyEEED2Ev, symObjAddr: 0x732C, symBinAddr: 0x10000B378, symSize: 0x8C }
  - { offsetInCU: 0x2D117, offset: 0x2D117, size: 0x8, addend: 0x0, symName: __ZNSt3__114__split_bufferIyRNS_9allocatorIyEEE5clearB8ue170006Ev, symObjAddr: 0x73B8, symBinAddr: 0x10000B404, symSize: 0x28 }
  - { offsetInCU: 0x2D13D, offset: 0x2D13D, size: 0x8, addend: 0x0, symName: __ZNSt3__116allocator_traitsINS_9allocatorIyEEE10deallocateB8ue170006ERS2_Pym, symObjAddr: 0x73E0, symBinAddr: 0x10000B42C, symSize: 0x34 }
  - { offsetInCU: 0x2D17F, offset: 0x2D17F, size: 0x8, addend: 0x0, symName: __ZNKSt3__114__split_bufferIyRNS_9allocatorIyEEE8capacityB8ue170006Ev, symObjAddr: 0x7414, symBinAddr: 0x10000B460, symSize: 0x40 }
  - { offsetInCU: 0x2D1A5, offset: 0x2D1A5, size: 0x8, addend: 0x0, symName: __ZNSt3__114__split_bufferIyRNS_9allocatorIyEEE17__destruct_at_endB8ue170006EPy, symObjAddr: 0x7454, symBinAddr: 0x10000B4A0, symSize: 0x2C }
  - { offsetInCU: 0x2D1D9, offset: 0x2D1D9, size: 0x8, addend: 0x0, symName: __ZNSt3__114__split_bufferIyRNS_9allocatorIyEEE17__destruct_at_endB8ue170006EPyNS_17integral_constantIbLb0EEE, symObjAddr: 0x7480, symBinAddr: 0x10000B4CC, symSize: 0x80 }
  - { offsetInCU: 0x2D219, offset: 0x2D219, size: 0x8, addend: 0x0, symName: __ZNSt3__116allocator_traitsINS_9allocatorIyEEE7destroyB8ue170006IyvEEvRS2_PT_, symObjAddr: 0x7500, symBinAddr: 0x10000B54C, symSize: 0x2C }
  - { offsetInCU: 0x2D256, offset: 0x2D256, size: 0x8, addend: 0x0, symName: __ZNSt3__19allocatorIyE7destroyB8ue170006EPy, symObjAddr: 0x752C, symBinAddr: 0x10000B578, symSize: 0x14 }
  - { offsetInCU: 0x2D28A, offset: 0x2D28A, size: 0x8, addend: 0x0, symName: __ZNSt3__19allocatorIyE10deallocateB8ue170006EPym, symObjAddr: 0x7540, symBinAddr: 0x10000B58C, symSize: 0x40 }
  - { offsetInCU: 0x2D2CC, offset: 0x2D2CC, size: 0x8, addend: 0x0, symName: __ZNKSt3__114__split_bufferIyRNS_9allocatorIyEEE9__end_capB8ue170006Ev, symObjAddr: 0x75FC, symBinAddr: 0x10000B648, symSize: 0x28 }
  - { offsetInCU: 0x2D2F2, offset: 0x2D2F2, size: 0x8, addend: 0x0, symName: __ZNKSt3__117__compressed_pairIPyRNS_9allocatorIyEEE5firstB8ue170006Ev, symObjAddr: 0x7624, symBinAddr: 0x10000B670, symSize: 0x24 }
  - { offsetInCU: 0x2D318, offset: 0x2D318, size: 0x8, addend: 0x0, symName: __ZNSt3__16vectorIyNS_9allocatorIyEEE22__base_destruct_at_endB8ue170006EPy, symObjAddr: 0x7648, symBinAddr: 0x10000B694, symSize: 0x8C }
  - { offsetInCU: 0x2D35C, offset: 0x2D35C, size: 0x8, addend: 0x0, symName: __ZNKSt3__16vectorIyNS_9allocatorIyEEE17__annotate_shrinkB8ue170006Em, symObjAddr: 0x76D4, symBinAddr: 0x10000B720, symSize: 0xB4 }
  - { offsetInCU: 0x2D391, offset: 0x2D391, size: 0x8, addend: 0x0, symName: __ZNSt3__16vectorIyNS_9allocatorIyEEED2B8ue170006Ev, symObjAddr: 0x7788, symBinAddr: 0x10000B7D4, symSize: 0x44 }
  - { offsetInCU: 0x2D3BB, offset: 0x2D3BB, size: 0x8, addend: 0x0, symName: __ZNSt3__16vectorIyNS_9allocatorIyEEE16__destroy_vectorC1B8ue170006ERS3_, symObjAddr: 0x77CC, symBinAddr: 0x10000B818, symSize: 0x34 }
  - { offsetInCU: 0x2D3F4, offset: 0x2D3F4, size: 0x8, addend: 0x0, symName: __ZNSt3__16vectorIyNS_9allocatorIyEEE16__destroy_vectorclB8ue170006Ev, symObjAddr: 0x7800, symBinAddr: 0x10000B84C, symSize: 0x90 }
  - { offsetInCU: 0x2D41A, offset: 0x2D41A, size: 0x8, addend: 0x0, symName: __ZNSt3__16vectorIyNS_9allocatorIyEEE16__destroy_vectorC2B8ue170006ERS3_, symObjAddr: 0x7890, symBinAddr: 0x10000B8DC, symSize: 0x20 }
  - { offsetInCU: 0x2D453, offset: 0x2D453, size: 0x8, addend: 0x0, symName: __ZNSt3__16vectorIyNS_9allocatorIyEEE7__clearB8ue170006Ev, symObjAddr: 0x78B0, symBinAddr: 0x10000B8FC, symSize: 0x28 }
  - { offsetInCU: 0x2D479, offset: 0x2D479, size: 0x8, addend: 0x0, symName: __ZN7BVectorD2Ev, symObjAddr: 0x78D8, symBinAddr: 0x10000B924, symSize: 0x2C }
  - { offsetInCU: 0x2D4A5, offset: 0x2D4A5, size: 0x8, addend: 0x0, symName: __ZNSt3__16vectorI7BVectorNS_9allocatorIS1_EEEixB8ue170006Em, symObjAddr: 0x7904, symBinAddr: 0x10000B950, symSize: 0x24 }
  - { offsetInCU: 0x2D4DC, offset: 0x2D4DC, size: 0x8, addend: 0x0, symName: __ZN7BMatrixC2Eii, symObjAddr: 0x7928, symBinAddr: 0x10000B974, symSize: 0x100 }
  - { offsetInCU: 0x2D574, offset: 0x2D574, size: 0x8, addend: 0x0, symName: __ZNSt3__16vectorI7BVectorNS_9allocatorIS1_EEEC1B8ue170006Ev, symObjAddr: 0x7A28, symBinAddr: 0x10000BA74, symSize: 0x2C }
  - { offsetInCU: 0x2D59E, offset: 0x2D59E, size: 0x8, addend: 0x0, symName: __ZNSt3__16vectorI7BVectorNS_9allocatorIS1_EEE6resizeEm, symObjAddr: 0x7A54, symBinAddr: 0x10000BAA0, symSize: 0x94 }
  - { offsetInCU: 0x2D5E4, offset: 0x2D5E4, size: 0x8, addend: 0x0, symName: __ZNSt3__16vectorI7BVectorNS_9allocatorIS1_EEE5beginB8ue170006Ev, symObjAddr: 0x7AE8, symBinAddr: 0x10000BB34, symSize: 0x30 }
  - { offsetInCU: 0x2D60C, offset: 0x2D60C, size: 0x8, addend: 0x0, symName: __ZNSt3__16vectorI7BVectorNS_9allocatorIS1_EEE3endB8ue170006Ev, symObjAddr: 0x7B18, symBinAddr: 0x10000BB64, symSize: 0x30 }
  - { offsetInCU: 0x2D634, offset: 0x2D634, size: 0x8, addend: 0x0, symName: __ZNKSt3__111__wrap_iterIP7BVectorEdeB8ue170006Ev, symObjAddr: 0x7B7C, symBinAddr: 0x10000BBC8, symSize: 0x18 }
  - { offsetInCU: 0x2D65A, offset: 0x2D65A, size: 0x8, addend: 0x0, symName: __ZNSt3__111__wrap_iterIP7BVectorEppB8ue170006Ev, symObjAddr: 0x7B94, symBinAddr: 0x10000BBE0, symSize: 0x20 }
  - { offsetInCU: 0x2D680, offset: 0x2D680, size: 0x8, addend: 0x0, symName: __ZNSt3__16vectorI7BVectorNS_9allocatorIS1_EEED1B8ue170006Ev, symObjAddr: 0x7BB4, symBinAddr: 0x10000BC00, symSize: 0x2C }
  - { offsetInCU: 0x2D6AA, offset: 0x2D6AA, size: 0x8, addend: 0x0, symName: __ZNSt3__16vectorI7BVectorNS_9allocatorIS1_EEEC2B8ue170006Ev, symObjAddr: 0x7BE0, symBinAddr: 0x10000BC2C, symSize: 0x4C }
  - { offsetInCU: 0x2D6D4, offset: 0x2D6D4, size: 0x8, addend: 0x0, symName: __ZNSt3__117__compressed_pairIP7BVectorNS_9allocatorIS1_EEEC1B8ue170006IDnNS_18__default_init_tagEEEOT_OT0_, symObjAddr: 0x7C2C, symBinAddr: 0x10000BC78, symSize: 0x3C }
  - { offsetInCU: 0x2D72C, offset: 0x2D72C, size: 0x8, addend: 0x0, symName: __ZNSt3__117__compressed_pairIP7BVectorNS_9allocatorIS1_EEEC2B8ue170006IDnNS_18__default_init_tagEEEOT_OT0_, symObjAddr: 0x7C68, symBinAddr: 0x10000BCB4, symSize: 0x40 }
  - { offsetInCU: 0x2D784, offset: 0x2D784, size: 0x8, addend: 0x0, symName: __ZNSt3__122__compressed_pair_elemIP7BVectorLi0ELb0EEC2B8ue170006IDnvEEOT_, symObjAddr: 0x7CA8, symBinAddr: 0x10000BCF4, symSize: 0x1C }
  - { offsetInCU: 0x2D7C6, offset: 0x2D7C6, size: 0x8, addend: 0x0, symName: __ZNSt3__122__compressed_pair_elemINS_9allocatorI7BVectorEELi1ELb1EEC2B8ue170006ENS_18__default_init_tagE, symObjAddr: 0x7CC4, symBinAddr: 0x10000BD10, symSize: 0x2C }
  - { offsetInCU: 0x2D7FA, offset: 0x2D7FA, size: 0x8, addend: 0x0, symName: __ZNSt3__19allocatorI7BVectorEC2B8ue170006Ev, symObjAddr: 0x7CF0, symBinAddr: 0x10000BD3C, symSize: 0x2C }
  - { offsetInCU: 0x2D824, offset: 0x2D824, size: 0x8, addend: 0x0, symName: __ZNSt3__116__non_trivial_ifILb1ENS_9allocatorI7BVectorEEEC2B8ue170006Ev, symObjAddr: 0x7D1C, symBinAddr: 0x10000BD68, symSize: 0x14 }
  - { offsetInCU: 0x2D84E, offset: 0x2D84E, size: 0x8, addend: 0x0, symName: __ZNKSt3__16vectorI7BVectorNS_9allocatorIS1_EEE4sizeB8ue170006Ev, symObjAddr: 0x7D30, symBinAddr: 0x10000BD7C, symSize: 0x28 }
  - { offsetInCU: 0x2D874, offset: 0x2D874, size: 0x8, addend: 0x0, symName: __ZNSt3__16vectorI7BVectorNS_9allocatorIS1_EEE8__appendEm, symObjAddr: 0x7D58, symBinAddr: 0x10000BDA4, symSize: 0x108 }
  - { offsetInCU: 0x2D8CF, offset: 0x2D8CF, size: 0x8, addend: 0x0, symName: __ZNSt3__16vectorI7BVectorNS_9allocatorIS1_EEE17__destruct_at_endB8ue170006EPS1_, symObjAddr: 0x7E60, symBinAddr: 0x10000BEAC, symSize: 0x4C }
  - { offsetInCU: 0x2D913, offset: 0x2D913, size: 0x8, addend: 0x0, symName: __ZNSt3__16vectorI7BVectorNS_9allocatorIS1_EEE9__end_capB8ue170006Ev, symObjAddr: 0x7EAC, symBinAddr: 0x10000BEF8, symSize: 0x28 }
  - { offsetInCU: 0x2D939, offset: 0x2D939, size: 0x8, addend: 0x0, symName: __ZNSt3__16vectorI7BVectorNS_9allocatorIS1_EEE18__construct_at_endEm, symObjAddr: 0x7ED4, symBinAddr: 0x10000BF20, symSize: 0xC8 }
  - { offsetInCU: 0x2D9AB, offset: 0x2D9AB, size: 0x8, addend: 0x0, symName: __ZNSt3__16vectorI7BVectorNS_9allocatorIS1_EEE7__allocB8ue170006Ev, symObjAddr: 0x7F9C, symBinAddr: 0x10000BFE8, symSize: 0x28 }
  - { offsetInCU: 0x2D9D1, offset: 0x2D9D1, size: 0x8, addend: 0x0, symName: __ZNKSt3__16vectorI7BVectorNS_9allocatorIS1_EEE11__recommendB8ue170006Em, symObjAddr: 0x7FC4, symBinAddr: 0x10000C010, symSize: 0xB4 }
  - { offsetInCU: 0x2DA26, offset: 0x2DA26, size: 0x8, addend: 0x0, symName: __ZNSt3__114__split_bufferI7BVectorRNS_9allocatorIS1_EEEC1EmmS4_, symObjAddr: 0x8078, symBinAddr: 0x10000C0C4, symSize: 0x44 }
  - { offsetInCU: 0x2DA7C, offset: 0x2DA7C, size: 0x8, addend: 0x0, symName: __ZNSt3__114__split_bufferI7BVectorRNS_9allocatorIS1_EEE18__construct_at_endEm, symObjAddr: 0x80BC, symBinAddr: 0x10000C108, symSize: 0xB4 }
  - { offsetInCU: 0x2DAC1, offset: 0x2DAC1, size: 0x8, addend: 0x0, symName: __ZNSt3__114__split_bufferI7BVectorRNS_9allocatorIS1_EEED1Ev, symObjAddr: 0x8280, symBinAddr: 0x10000C2CC, symSize: 0x2C }
  - { offsetInCU: 0x2DAED, offset: 0x2DAED, size: 0x8, addend: 0x0, symName: __ZNSt3__117__compressed_pairIP7BVectorNS_9allocatorIS1_EEE5firstB8ue170006Ev, symObjAddr: 0x82AC, symBinAddr: 0x10000C2F8, symSize: 0x24 }
  - { offsetInCU: 0x2DB13, offset: 0x2DB13, size: 0x8, addend: 0x0, symName: __ZNSt3__122__compressed_pair_elemIP7BVectorLi0ELb0EE5__getB8ue170006Ev, symObjAddr: 0x82D0, symBinAddr: 0x10000C31C, symSize: 0x14 }
  - { offsetInCU: 0x2DB55, offset: 0x2DB55, size: 0x8, addend: 0x0, symName: __ZNSt3__16vectorI7BVectorNS_9allocatorIS1_EEE21_ConstructTransactionC1B8ue170006ERS4_m, symObjAddr: 0x82E4, symBinAddr: 0x10000C330, symSize: 0x3C }
  - { offsetInCU: 0x2DB9D, offset: 0x2DB9D, size: 0x8, addend: 0x0, symName: __ZNSt3__116allocator_traitsINS_9allocatorI7BVectorEEE9constructB8ue170006IS2_JEvEEvRS3_PT_DpOT0_, symObjAddr: 0x8320, symBinAddr: 0x10000C36C, symSize: 0x2C }
  - { offsetInCU: 0x2DBDF, offset: 0x2DBDF, size: 0x8, addend: 0x0, symName: __ZNSt3__16vectorI7BVectorNS_9allocatorIS1_EEE21_ConstructTransactionD1B8ue170006Ev, symObjAddr: 0x8360, symBinAddr: 0x10000C3AC, symSize: 0x2C }
  - { offsetInCU: 0x2DC09, offset: 0x2DC09, size: 0x8, addend: 0x0, symName: __ZNSt3__16vectorI7BVectorNS_9allocatorIS1_EEE21_ConstructTransactionC2B8ue170006ERS4_m, symObjAddr: 0x838C, symBinAddr: 0x10000C3D8, symSize: 0x44 }
  - { offsetInCU: 0x2DC51, offset: 0x2DC51, size: 0x8, addend: 0x0, symName: __ZNSt3__19allocatorI7BVectorE9constructB8ue170006IS1_JEEEvPT_DpOT0_, symObjAddr: 0x83D0, symBinAddr: 0x10000C41C, symSize: 0x28 }
  - { offsetInCU: 0x2DC93, offset: 0x2DC93, size: 0x8, addend: 0x0, symName: __ZN7BVectorC1Ev, symObjAddr: 0x83F8, symBinAddr: 0x10000C444, symSize: 0x2C }
  - { offsetInCU: 0x2DCBD, offset: 0x2DCBD, size: 0x8, addend: 0x0, symName: __ZN7BVectorC2Ev, symObjAddr: 0x8424, symBinAddr: 0x10000C470, symSize: 0x30 }
  - { offsetInCU: 0x2DCE7, offset: 0x2DCE7, size: 0x8, addend: 0x0, symName: __ZNSt3__16vectorI7BVectorNS_9allocatorIS1_EEE21_ConstructTransactionD2B8ue170006Ev, symObjAddr: 0x8454, symBinAddr: 0x10000C4A0, symSize: 0x20 }
  - { offsetInCU: 0x2DD11, offset: 0x2DD11, size: 0x8, addend: 0x0, symName: __ZNSt3__117__compressed_pairIP7BVectorNS_9allocatorIS1_EEE6secondB8ue170006Ev, symObjAddr: 0x8474, symBinAddr: 0x10000C4C0, symSize: 0x24 }
  - { offsetInCU: 0x2DD37, offset: 0x2DD37, size: 0x8, addend: 0x0, symName: __ZNSt3__122__compressed_pair_elemINS_9allocatorI7BVectorEELi1ELb1EE5__getB8ue170006Ev, symObjAddr: 0x8498, symBinAddr: 0x10000C4E4, symSize: 0x14 }
  - { offsetInCU: 0x2DD5D, offset: 0x2DD5D, size: 0x8, addend: 0x0, symName: __ZNKSt3__16vectorI7BVectorNS_9allocatorIS1_EEE8max_sizeEv, symObjAddr: 0x84AC, symBinAddr: 0x10000C4F8, symSize: 0x60 }
  - { offsetInCU: 0x2DD85, offset: 0x2DD85, size: 0x8, addend: 0x0, symName: __ZNKSt3__16vectorI7BVectorNS_9allocatorIS1_EEE20__throw_length_errorB8ue170006Ev, symObjAddr: 0x850C, symBinAddr: 0x10000C558, symSize: 0x1C }
  - { offsetInCU: 0x2DDAB, offset: 0x2DDAB, size: 0x8, addend: 0x0, symName: __ZNKSt3__16vectorI7BVectorNS_9allocatorIS1_EEE8capacityB8ue170006Ev, symObjAddr: 0x8528, symBinAddr: 0x10000C574, symSize: 0x40 }
  - { offsetInCU: 0x2DDDC, offset: 0x2DDDC, size: 0x8, addend: 0x0, symName: __ZNSt3__116allocator_traitsINS_9allocatorI7BVectorEEE8max_sizeB8ue170006IS3_vEEmRKS3_, symObjAddr: 0x8568, symBinAddr: 0x10000C5B4, symSize: 0x24 }
  - { offsetInCU: 0x2DE0A, offset: 0x2DE0A, size: 0x8, addend: 0x0, symName: __ZNKSt3__16vectorI7BVectorNS_9allocatorIS1_EEE7__allocB8ue170006Ev, symObjAddr: 0x858C, symBinAddr: 0x10000C5D8, symSize: 0x28 }
  - { offsetInCU: 0x2DE30, offset: 0x2DE30, size: 0x8, addend: 0x0, symName: __ZNKSt3__19allocatorI7BVectorE8max_sizeB8ue170006Ev, symObjAddr: 0x85B4, symBinAddr: 0x10000C600, symSize: 0x14 }
  - { offsetInCU: 0x2DE56, offset: 0x2DE56, size: 0x8, addend: 0x0, symName: __ZNKSt3__117__compressed_pairIP7BVectorNS_9allocatorIS1_EEE6secondB8ue170006Ev, symObjAddr: 0x85C8, symBinAddr: 0x10000C614, symSize: 0x24 }
  - { offsetInCU: 0x2DE7C, offset: 0x2DE7C, size: 0x8, addend: 0x0, symName: __ZNKSt3__122__compressed_pair_elemINS_9allocatorI7BVectorEELi1ELb1EE5__getB8ue170006Ev, symObjAddr: 0x85EC, symBinAddr: 0x10000C638, symSize: 0x14 }
  - { offsetInCU: 0x2DEA2, offset: 0x2DEA2, size: 0x8, addend: 0x0, symName: __ZNKSt3__16vectorI7BVectorNS_9allocatorIS1_EEE9__end_capB8ue170006Ev, symObjAddr: 0x8600, symBinAddr: 0x10000C64C, symSize: 0x28 }
  - { offsetInCU: 0x2DEC8, offset: 0x2DEC8, size: 0x8, addend: 0x0, symName: __ZNKSt3__117__compressed_pairIP7BVectorNS_9allocatorIS1_EEE5firstB8ue170006Ev, symObjAddr: 0x8628, symBinAddr: 0x10000C674, symSize: 0x24 }
  - { offsetInCU: 0x2DEEE, offset: 0x2DEEE, size: 0x8, addend: 0x0, symName: __ZNKSt3__122__compressed_pair_elemIP7BVectorLi0ELb0EE5__getB8ue170006Ev, symObjAddr: 0x864C, symBinAddr: 0x10000C698, symSize: 0x14 }
  - { offsetInCU: 0x2DF14, offset: 0x2DF14, size: 0x8, addend: 0x0, symName: __ZNSt3__114__split_bufferI7BVectorRNS_9allocatorIS1_EEEC2EmmS4_, symObjAddr: 0x8660, symBinAddr: 0x10000C6AC, symSize: 0xD4 }
  - { offsetInCU: 0x2DF87, offset: 0x2DF87, size: 0x8, addend: 0x0, symName: __ZNSt3__117__compressed_pairIP7BVectorRNS_9allocatorIS1_EEEC1B8ue170006IDnS5_EEOT_OT0_, symObjAddr: 0x8734, symBinAddr: 0x10000C780, symSize: 0x3C }
  - { offsetInCU: 0x2DFDF, offset: 0x2DFDF, size: 0x8, addend: 0x0, symName: __ZNSt3__114__split_bufferI7BVectorRNS_9allocatorIS1_EEE7__allocB8ue170006Ev, symObjAddr: 0x87B0, symBinAddr: 0x10000C7FC, symSize: 0x28 }
  - { offsetInCU: 0x2E005, offset: 0x2E005, size: 0x8, addend: 0x0, symName: __ZNSt3__114__split_bufferI7BVectorRNS_9allocatorIS1_EEE9__end_capB8ue170006Ev, symObjAddr: 0x87D8, symBinAddr: 0x10000C824, symSize: 0x28 }
  - { offsetInCU: 0x2E02B, offset: 0x2E02B, size: 0x8, addend: 0x0, symName: __ZNSt3__117__compressed_pairIP7BVectorRNS_9allocatorIS1_EEEC2B8ue170006IDnS5_EEOT_OT0_, symObjAddr: 0x8800, symBinAddr: 0x10000C84C, symSize: 0x48 }
  - { offsetInCU: 0x2E083, offset: 0x2E083, size: 0x8, addend: 0x0, symName: __ZNSt3__122__compressed_pair_elemIRNS_9allocatorI7BVectorEELi1ELb0EEC2B8ue170006IS4_vEEOT_, symObjAddr: 0x8848, symBinAddr: 0x10000C894, symSize: 0x20 }
  - { offsetInCU: 0x2E0C5, offset: 0x2E0C5, size: 0x8, addend: 0x0, symName: __ZNSt3__19allocatorI7BVectorE8allocateB8ue170006Em, symObjAddr: 0x8868, symBinAddr: 0x10000C8B4, symSize: 0x58 }
  - { offsetInCU: 0x2E0F9, offset: 0x2E0F9, size: 0x8, addend: 0x0, symName: __ZNSt3__117__compressed_pairIP7BVectorRNS_9allocatorIS1_EEE6secondB8ue170006Ev, symObjAddr: 0x88C0, symBinAddr: 0x10000C90C, symSize: 0x28 }
  - { offsetInCU: 0x2E11F, offset: 0x2E11F, size: 0x8, addend: 0x0, symName: __ZNSt3__122__compressed_pair_elemIRNS_9allocatorI7BVectorEELi1ELb0EE5__getB8ue170006Ev, symObjAddr: 0x88E8, symBinAddr: 0x10000C934, symSize: 0x18 }
  - { offsetInCU: 0x2E145, offset: 0x2E145, size: 0x8, addend: 0x0, symName: __ZNSt3__117__compressed_pairIP7BVectorRNS_9allocatorIS1_EEE5firstB8ue170006Ev, symObjAddr: 0x8900, symBinAddr: 0x10000C94C, symSize: 0x24 }
  - { offsetInCU: 0x2E177, offset: 0x2E177, size: 0x8, addend: 0x0, symName: __ZNSt3__114__split_bufferI7BVectorRNS_9allocatorIS1_EEE21_ConstructTransactionC1B8ue170006EPPS1_m, symObjAddr: 0x8924, symBinAddr: 0x10000C970, symSize: 0x3C }
  - { offsetInCU: 0x2E1BD, offset: 0x2E1BD, size: 0x8, addend: 0x0, symName: __ZNSt3__114__split_bufferI7BVectorRNS_9allocatorIS1_EEE21_ConstructTransactionD1B8ue170006Ev, symObjAddr: 0x8960, symBinAddr: 0x10000C9AC, symSize: 0x2C }
  - { offsetInCU: 0x2E1E7, offset: 0x2E1E7, size: 0x8, addend: 0x0, symName: __ZNSt3__114__split_bufferI7BVectorRNS_9allocatorIS1_EEE21_ConstructTransactionC2B8ue170006EPPS1_m, symObjAddr: 0x898C, symBinAddr: 0x10000C9D8, symSize: 0x44 }
  - { offsetInCU: 0x2E22D, offset: 0x2E22D, size: 0x8, addend: 0x0, symName: __ZNSt3__114__split_bufferI7BVectorRNS_9allocatorIS1_EEE21_ConstructTransactionD2B8ue170006Ev, symObjAddr: 0x89D0, symBinAddr: 0x10000CA1C, symSize: 0x20 }
  - { offsetInCU: 0x2E257, offset: 0x2E257, size: 0x8, addend: 0x0, symName: __ZNKSt3__16vectorI7BVectorNS_9allocatorIS1_EEE17__annotate_deleteB8ue170006Ev, symObjAddr: 0x89F0, symBinAddr: 0x10000CA3C, symSize: 0xB8 }
  - { offsetInCU: 0x2E27D, offset: 0x2E27D, size: 0x8, addend: 0x0, symName: __ZNSt3__116reverse_iteratorIP7BVectorEC1B8ue170006ES2_, symObjAddr: 0x8BD4, symBinAddr: 0x10000CC20, symSize: 0x34 }
  - { offsetInCU: 0x2E2B5, offset: 0x2E2B5, size: 0x8, addend: 0x0, symName: __ZNKSt3__116reverse_iteratorIP7BVectorE4baseB8ue170006Ev, symObjAddr: 0x8C08, symBinAddr: 0x10000CC54, symSize: 0x18 }
  - { offsetInCU: 0x2E2DB, offset: 0x2E2DB, size: 0x8, addend: 0x0, symName: __ZNKSt3__16vectorI7BVectorNS_9allocatorIS1_EEE14__annotate_newB8ue170006Em, symObjAddr: 0x8C5C, symBinAddr: 0x10000CCA8, symSize: 0xAC }
  - { offsetInCU: 0x2E310, offset: 0x2E310, size: 0x8, addend: 0x0, symName: __ZNKSt3__16vectorI7BVectorNS_9allocatorIS1_EEE31__annotate_contiguous_containerB8ue170006EPKvS6_S6_S6_, symObjAddr: 0x8D08, symBinAddr: 0x10000CD54, symSize: 0x20 }
  - { offsetInCU: 0x2E366, offset: 0x2E366, size: 0x8, addend: 0x0, symName: __ZNKSt3__16vectorI7BVectorNS_9allocatorIS1_EEE4dataB8ue170006Ev, symObjAddr: 0x8D28, symBinAddr: 0x10000CD74, symSize: 0x28 }
  - { offsetInCU: 0x2E38C, offset: 0x2E38C, size: 0x8, addend: 0x0, symName: __ZNSt3__129_AllocatorDestroyRangeReverseINS_9allocatorI7BVectorEENS_16reverse_iteratorIPS2_EEEC1B8ue170006ERS3_RS6_S9_, symObjAddr: 0x8D9C, symBinAddr: 0x10000CDE8, symSize: 0x44 }
  - { offsetInCU: 0x2E3E3, offset: 0x2E3E3, size: 0x8, addend: 0x0, symName: __ZNSt3__116allocator_traitsINS_9allocatorI7BVectorEEE9constructB8ue170006IS2_JS2_EvEEvRS3_PT_DpOT0_, symObjAddr: 0x8E28, symBinAddr: 0x10000CE74, symSize: 0x34 }
  - { offsetInCU: 0x2E43A, offset: 0x2E43A, size: 0x8, addend: 0x0, symName: __ZNKSt3__116reverse_iteratorIP7BVectorEdeB8ue170006Ev, symObjAddr: 0x8E80, symBinAddr: 0x10000CECC, symSize: 0x28 }
  - { offsetInCU: 0x2E46E, offset: 0x2E46E, size: 0x8, addend: 0x0, symName: __ZNSt3__116reverse_iteratorIP7BVectorEppB8ue170006Ev, symObjAddr: 0x8EA8, symBinAddr: 0x10000CEF4, symSize: 0x20 }
  - { offsetInCU: 0x2E494, offset: 0x2E494, size: 0x8, addend: 0x0, symName: __ZNSt3__128__exception_guard_exceptionsINS_29_AllocatorDestroyRangeReverseINS_9allocatorI7BVectorEENS_16reverse_iteratorIPS3_EEEEE10__completeB8ue170006Ev, symObjAddr: 0x8EC8, symBinAddr: 0x10000CF14, symSize: 0x1C }
  - { offsetInCU: 0x2E4BA, offset: 0x2E4BA, size: 0x8, addend: 0x0, symName: __ZNSt3__128__exception_guard_exceptionsINS_29_AllocatorDestroyRangeReverseINS_9allocatorI7BVectorEENS_16reverse_iteratorIPS3_EEEEED1B8ue170006Ev, symObjAddr: 0x8EE4, symBinAddr: 0x10000CF30, symSize: 0x2C }
  - { offsetInCU: 0x2E4E4, offset: 0x2E4E4, size: 0x8, addend: 0x0, symName: __ZNSt3__128__exception_guard_exceptionsINS_29_AllocatorDestroyRangeReverseINS_9allocatorI7BVectorEENS_16reverse_iteratorIPS3_EEEEEC1B8ue170006ES8_, symObjAddr: 0x8F10, symBinAddr: 0x10000CF5C, symSize: 0x34 }
  - { offsetInCU: 0x2E51D, offset: 0x2E51D, size: 0x8, addend: 0x0, symName: __ZNSt3__128__exception_guard_exceptionsINS_29_AllocatorDestroyRangeReverseINS_9allocatorI7BVectorEENS_16reverse_iteratorIPS3_EEEEEC2B8ue170006ES8_, symObjAddr: 0x8F44, symBinAddr: 0x10000CF90, symSize: 0x30 }
  - { offsetInCU: 0x2E556, offset: 0x2E556, size: 0x8, addend: 0x0, symName: __ZNSt3__129_AllocatorDestroyRangeReverseINS_9allocatorI7BVectorEENS_16reverse_iteratorIPS2_EEEC2B8ue170006ERS3_RS6_S9_, symObjAddr: 0x8F74, symBinAddr: 0x10000CFC0, symSize: 0x38 }
  - { offsetInCU: 0x2E5AD, offset: 0x2E5AD, size: 0x8, addend: 0x0, symName: __ZNSt3__19allocatorI7BVectorE9constructB8ue170006IS1_JS1_EEEvPT_DpOT0_, symObjAddr: 0x8FAC, symBinAddr: 0x10000CFF8, symSize: 0x30 }
  - { offsetInCU: 0x2E609, offset: 0x2E609, size: 0x8, addend: 0x0, symName: __ZNSt3__119__to_address_helperINS_16reverse_iteratorIP7BVectorEEvE6__callB8ue170006ERKS4_, symObjAddr: 0x8FDC, symBinAddr: 0x10000D028, symSize: 0x38 }
  - { offsetInCU: 0x2E62C, offset: 0x2E62C, size: 0x8, addend: 0x0, symName: __ZNKSt3__116reverse_iteratorIP7BVectorEptB8ue170006Ev, symObjAddr: 0x9014, symBinAddr: 0x10000D060, symSize: 0x24 }
  - { offsetInCU: 0x2E652, offset: 0x2E652, size: 0x8, addend: 0x0, symName: __ZNSt3__128__exception_guard_exceptionsINS_29_AllocatorDestroyRangeReverseINS_9allocatorI7BVectorEENS_16reverse_iteratorIPS3_EEEEED2B8ue170006Ev, symObjAddr: 0x9038, symBinAddr: 0x10000D084, symSize: 0x50 }
  - { offsetInCU: 0x2E67C, offset: 0x2E67C, size: 0x8, addend: 0x0, symName: __ZNKSt3__129_AllocatorDestroyRangeReverseINS_9allocatorI7BVectorEENS_16reverse_iteratorIPS2_EEEclB8ue170006Ev, symObjAddr: 0x9088, symBinAddr: 0x10000D0D4, symSize: 0xB4 }
  - { offsetInCU: 0x2E6A3, offset: 0x2E6A3, size: 0x8, addend: 0x0, symName: __ZNSt3__116reverse_iteratorINS0_IP7BVectorEEEC1B8ue170006ES3_, symObjAddr: 0x91AC, symBinAddr: 0x10000D1F8, symSize: 0x3C }
  - { offsetInCU: 0x2E6DB, offset: 0x2E6DB, size: 0x8, addend: 0x0, symName: __ZNSt3__116allocator_traitsINS_9allocatorI7BVectorEEE7destroyB8ue170006IS2_vEEvRS3_PT_, symObjAddr: 0x9248, symBinAddr: 0x10000D294, symSize: 0x2C }
  - { offsetInCU: 0x2E718, offset: 0x2E718, size: 0x8, addend: 0x0, symName: __ZNSt3__116reverse_iteratorINS0_IP7BVectorEEEppB8ue170006Ev, symObjAddr: 0x9298, symBinAddr: 0x10000D2E4, symSize: 0x30 }
  - { offsetInCU: 0x2E73E, offset: 0x2E73E, size: 0x8, addend: 0x0, symName: __ZNKSt3__116reverse_iteratorINS0_IP7BVectorEEE4baseB8ue170006Ev, symObjAddr: 0x92C8, symBinAddr: 0x10000D314, symSize: 0x24 }
  - { offsetInCU: 0x2E764, offset: 0x2E764, size: 0x8, addend: 0x0, symName: __ZNSt3__19allocatorI7BVectorE7destroyB8ue170006EPS1_, symObjAddr: 0x92EC, symBinAddr: 0x10000D338, symSize: 0x28 }
  - { offsetInCU: 0x2E79E, offset: 0x2E79E, size: 0x8, addend: 0x0, symName: __ZNSt3__119__to_address_helperINS_16reverse_iteratorINS1_IP7BVectorEEEEvE6__callB8ue170006ERKS5_, symObjAddr: 0x9314, symBinAddr: 0x10000D360, symSize: 0x38 }
  - { offsetInCU: 0x2E7C1, offset: 0x2E7C1, size: 0x8, addend: 0x0, symName: __ZNKSt3__116reverse_iteratorINS0_IP7BVectorEEEptB8ue170006Ev, symObjAddr: 0x934C, symBinAddr: 0x10000D398, symSize: 0x24 }
  - { offsetInCU: 0x2E7E7, offset: 0x2E7E7, size: 0x8, addend: 0x0, symName: __ZNKSt3__116reverse_iteratorINS0_IP7BVectorEEEdeB8ue170006Ev, symObjAddr: 0x9370, symBinAddr: 0x10000D3BC, symSize: 0x34 }
  - { offsetInCU: 0x2E81B, offset: 0x2E81B, size: 0x8, addend: 0x0, symName: __ZNSt3__116reverse_iteratorIP7BVectorEmmB8ue170006Ev, symObjAddr: 0x93A4, symBinAddr: 0x10000D3F0, symSize: 0x20 }
  - { offsetInCU: 0x2E841, offset: 0x2E841, size: 0x8, addend: 0x0, symName: __ZNSt3__116reverse_iteratorINS0_IP7BVectorEEEC2B8ue170006ES3_, symObjAddr: 0x93C4, symBinAddr: 0x10000D410, symSize: 0x2C }
  - { offsetInCU: 0x2E879, offset: 0x2E879, size: 0x8, addend: 0x0, symName: __ZNSt3__116reverse_iteratorIP7BVectorEC2B8ue170006ES2_, symObjAddr: 0x93F0, symBinAddr: 0x10000D43C, symSize: 0x28 }
  - { offsetInCU: 0x2E8B1, offset: 0x2E8B1, size: 0x8, addend: 0x0, symName: __ZNSt3__114__split_bufferI7BVectorRNS_9allocatorIS1_EEED2Ev, symObjAddr: 0x9418, symBinAddr: 0x10000D464, symSize: 0x8C }
  - { offsetInCU: 0x2E8DD, offset: 0x2E8DD, size: 0x8, addend: 0x0, symName: __ZNSt3__114__split_bufferI7BVectorRNS_9allocatorIS1_EEE5clearB8ue170006Ev, symObjAddr: 0x94A4, symBinAddr: 0x10000D4F0, symSize: 0x28 }
  - { offsetInCU: 0x2E903, offset: 0x2E903, size: 0x8, addend: 0x0, symName: __ZNSt3__116allocator_traitsINS_9allocatorI7BVectorEEE10deallocateB8ue170006ERS3_PS2_m, symObjAddr: 0x94CC, symBinAddr: 0x10000D518, symSize: 0x34 }
  - { offsetInCU: 0x2E945, offset: 0x2E945, size: 0x8, addend: 0x0, symName: __ZNKSt3__114__split_bufferI7BVectorRNS_9allocatorIS1_EEE8capacityB8ue170006Ev, symObjAddr: 0x9500, symBinAddr: 0x10000D54C, symSize: 0x40 }
  - { offsetInCU: 0x2E96B, offset: 0x2E96B, size: 0x8, addend: 0x0, symName: __ZNSt3__114__split_bufferI7BVectorRNS_9allocatorIS1_EEE17__destruct_at_endB8ue170006EPS1_, symObjAddr: 0x9540, symBinAddr: 0x10000D58C, symSize: 0x2C }
  - { offsetInCU: 0x2E99F, offset: 0x2E99F, size: 0x8, addend: 0x0, symName: __ZNSt3__114__split_bufferI7BVectorRNS_9allocatorIS1_EEE17__destruct_at_endB8ue170006EPS1_NS_17integral_constantIbLb0EEE, symObjAddr: 0x956C, symBinAddr: 0x10000D5B8, symSize: 0x80 }
  - { offsetInCU: 0x2E9DF, offset: 0x2E9DF, size: 0x8, addend: 0x0, symName: __ZNSt3__19allocatorI7BVectorE10deallocateB8ue170006EPS1_m, symObjAddr: 0x95EC, symBinAddr: 0x10000D638, symSize: 0x40 }
  - { offsetInCU: 0x2EA21, offset: 0x2EA21, size: 0x8, addend: 0x0, symName: __ZNKSt3__114__split_bufferI7BVectorRNS_9allocatorIS1_EEE9__end_capB8ue170006Ev, symObjAddr: 0x962C, symBinAddr: 0x10000D678, symSize: 0x28 }
  - { offsetInCU: 0x2EA47, offset: 0x2EA47, size: 0x8, addend: 0x0, symName: __ZNKSt3__117__compressed_pairIP7BVectorRNS_9allocatorIS1_EEE5firstB8ue170006Ev, symObjAddr: 0x9654, symBinAddr: 0x10000D6A0, symSize: 0x24 }
  - { offsetInCU: 0x2EA6D, offset: 0x2EA6D, size: 0x8, addend: 0x0, symName: __ZNSt3__16vectorI7BVectorNS_9allocatorIS1_EEE22__base_destruct_at_endB8ue170006EPS1_, symObjAddr: 0x9678, symBinAddr: 0x10000D6C4, symSize: 0x8C }
  - { offsetInCU: 0x2EAB1, offset: 0x2EAB1, size: 0x8, addend: 0x0, symName: __ZNKSt3__16vectorI7BVectorNS_9allocatorIS1_EEE17__annotate_shrinkB8ue170006Em, symObjAddr: 0x9704, symBinAddr: 0x10000D750, symSize: 0xB4 }
  - { offsetInCU: 0x2EAE6, offset: 0x2EAE6, size: 0x8, addend: 0x0, symName: __ZNSt3__16vectorI7BVectorNS_9allocatorIS1_EEE11__make_iterB8ue170006EPS1_, symObjAddr: 0x97B8, symBinAddr: 0x10000D804, symSize: 0x30 }
  - { offsetInCU: 0x2EB1B, offset: 0x2EB1B, size: 0x8, addend: 0x0, symName: __ZNSt3__111__wrap_iterIP7BVectorEC1B8ue170006ES2_, symObjAddr: 0x97E8, symBinAddr: 0x10000D834, symSize: 0x34 }
  - { offsetInCU: 0x2EB53, offset: 0x2EB53, size: 0x8, addend: 0x0, symName: __ZNSt3__111__wrap_iterIP7BVectorEC2B8ue170006ES2_, symObjAddr: 0x981C, symBinAddr: 0x10000D868, symSize: 0x20 }
  - { offsetInCU: 0x2EB8B, offset: 0x2EB8B, size: 0x8, addend: 0x0, symName: __ZNKSt3__111__wrap_iterIP7BVectorE4baseB8ue170006Ev, symObjAddr: 0x9884, symBinAddr: 0x10000D8D0, symSize: 0x18 }
  - { offsetInCU: 0x2EBB1, offset: 0x2EBB1, size: 0x8, addend: 0x0, symName: __ZNSt3__16vectorI7BVectorNS_9allocatorIS1_EEED2B8ue170006Ev, symObjAddr: 0x989C, symBinAddr: 0x10000D8E8, symSize: 0x44 }
  - { offsetInCU: 0x2EBDB, offset: 0x2EBDB, size: 0x8, addend: 0x0, symName: __ZNSt3__16vectorI7BVectorNS_9allocatorIS1_EEE16__destroy_vectorC1B8ue170006ERS4_, symObjAddr: 0x98E0, symBinAddr: 0x10000D92C, symSize: 0x34 }
  - { offsetInCU: 0x2EC14, offset: 0x2EC14, size: 0x8, addend: 0x0, symName: __ZNSt3__16vectorI7BVectorNS_9allocatorIS1_EEE16__destroy_vectorclB8ue170006Ev, symObjAddr: 0x9914, symBinAddr: 0x10000D960, symSize: 0x90 }
  - { offsetInCU: 0x2EC3A, offset: 0x2EC3A, size: 0x8, addend: 0x0, symName: __ZNSt3__16vectorI7BVectorNS_9allocatorIS1_EEE16__destroy_vectorC2B8ue170006ERS4_, symObjAddr: 0x99A4, symBinAddr: 0x10000D9F0, symSize: 0x20 }
  - { offsetInCU: 0x2EC73, offset: 0x2EC73, size: 0x8, addend: 0x0, symName: __ZNSt3__16vectorI7BVectorNS_9allocatorIS1_EEE7__clearB8ue170006Ev, symObjAddr: 0x99C4, symBinAddr: 0x10000DA10, symSize: 0x28 }
  - { offsetInCU: 0x2EC99, offset: 0x2EC99, size: 0x8, addend: 0x0, symName: __ZN7BMatrixD2Ev, symObjAddr: 0x99EC, symBinAddr: 0x10000DA38, symSize: 0x2C }
  - { offsetInCU: 0x2ECC5, offset: 0x2ECC5, size: 0x8, addend: 0x0, symName: __ZNSt3__16vectorIyNS_9allocatorIyEEEaSB8ue170006EOS3_, symObjAddr: 0x9A68, symBinAddr: 0x10000DAB4, symSize: 0x34 }
  - { offsetInCU: 0x2ECFC, offset: 0x2ECFC, size: 0x8, addend: 0x0, symName: __ZNSt3__16vectorIyNS_9allocatorIyEEE13__move_assignERS3_NS_17integral_constantIbLb1EEE, symObjAddr: 0x9A9C, symBinAddr: 0x10000DAE8, symSize: 0x94 }
  - { offsetInCU: 0x2ED3F, offset: 0x2ED3F, size: 0x8, addend: 0x0, symName: __ZNSt3__16vectorIyNS_9allocatorIyEEE13__vdeallocateEv, symObjAddr: 0x9B30, symBinAddr: 0x10000DB7C, symSize: 0x94 }
  - { offsetInCU: 0x2ED67, offset: 0x2ED67, size: 0x8, addend: 0x0, symName: __ZNSt3__16vectorIyNS_9allocatorIyEEE19__move_assign_allocB8ue170006ERS3_, symObjAddr: 0x9BC4, symBinAddr: 0x10000DC10, symSize: 0x2C }
  - { offsetInCU: 0x2ED9C, offset: 0x2ED9C, size: 0x8, addend: 0x0, symName: __ZNSt3__16vectorIyNS_9allocatorIyEEE5clearB8ue170006Ev, symObjAddr: 0x9BF0, symBinAddr: 0x10000DC3C, symSize: 0x44 }
  - { offsetInCU: 0x2EDD1, offset: 0x2EDD1, size: 0x8, addend: 0x0, symName: __ZNSt3__16vectorIyNS_9allocatorIyEEE19__move_assign_allocB8ue170006ERS3_NS_17integral_constantIbLb1EEE, symObjAddr: 0x9C34, symBinAddr: 0x10000DC80, symSize: 0x38 }
  - { offsetInCU: 0x2EE12, offset: 0x2EE12, size: 0x8, addend: 0x0, symName: __ZN7BVectorC2EOS_, symObjAddr: 0x9C6C, symBinAddr: 0x10000DCB8, symSize: 0x40 }
  - { offsetInCU: 0x2EE47, offset: 0x2EE47, size: 0x8, addend: 0x0, symName: __ZNSt3__16vectorIyNS_9allocatorIyEEEC1B8ue170006EOS3_, symObjAddr: 0x9CAC, symBinAddr: 0x10000DCF8, symSize: 0x34 }
  - { offsetInCU: 0x2EE82, offset: 0x2EE82, size: 0x8, addend: 0x0, symName: __ZNSt3__16vectorIyNS_9allocatorIyEEEC2B8ue170006EOS3_, symObjAddr: 0x9CE0, symBinAddr: 0x10000DD2C, symSize: 0xC4 }
  - { offsetInCU: 0x2EEC3, offset: 0x2EEC3, size: 0x8, addend: 0x0, symName: __ZNSt3__117__compressed_pairIPyNS_9allocatorIyEEEC1B8ue170006IDnS3_EEOT_OT0_, symObjAddr: 0x9DA4, symBinAddr: 0x10000DDF0, symSize: 0x3C }
  - { offsetInCU: 0x2EF1B, offset: 0x2EF1B, size: 0x8, addend: 0x0, symName: __ZNSt3__117__compressed_pairIPyNS_9allocatorIyEEEC2B8ue170006IDnS3_EEOT_OT0_, symObjAddr: 0x9DE0, symBinAddr: 0x10000DE2C, symSize: 0x44 }
  - { offsetInCU: 0x2EF73, offset: 0x2EF73, size: 0x8, addend: 0x0, symName: __ZNSt3__122__compressed_pair_elemINS_9allocatorIyEELi1ELb1EEC2B8ue170006IS2_vEEOT_, symObjAddr: 0x9E24, symBinAddr: 0x10000DE70, symSize: 0x18 }
  - { offsetInCU: 0x2EFB5, offset: 0x2EFB5, size: 0x8, addend: 0x0, symName: __ZN7BVectorC2ERKS_, symObjAddr: 0x9E3C, symBinAddr: 0x10000DE88, symSize: 0x40 }
  - { offsetInCU: 0x2EFEA, offset: 0x2EFEA, size: 0x8, addend: 0x0, symName: __ZNSt3__16vectorIyNS_9allocatorIyEEEC1ERKS3_, symObjAddr: 0x9E7C, symBinAddr: 0x10000DEC8, symSize: 0x34 }
  - { offsetInCU: 0x2F025, offset: 0x2F025, size: 0x8, addend: 0x0, symName: __ZNSt3__16vectorIyNS_9allocatorIyEEEC2ERKS3_, symObjAddr: 0x9EB0, symBinAddr: 0x10000DEFC, symSize: 0x94 }
  - { offsetInCU: 0x2F060, offset: 0x2F060, size: 0x8, addend: 0x0, symName: __ZNSt3__116allocator_traitsINS_9allocatorIyEEE37select_on_container_copy_constructionB8ue170006IS2_vvEES2_RKS2_, symObjAddr: 0x9F44, symBinAddr: 0x10000DF90, symSize: 0x10 }
  - { offsetInCU: 0x2F08F, offset: 0x2F08F, size: 0x8, addend: 0x0, symName: __ZNSt3__16vectorIyNS_9allocatorIyEEE16__init_with_sizeB8ue170006IPyS5_EEvT_T0_m, symObjAddr: 0x9F54, symBinAddr: 0x10000DFA0, symSize: 0xB8 }
  - { offsetInCU: 0x2F103, offset: 0x2F103, size: 0x8, addend: 0x0, symName: __ZNSt3__16vectorIyNS_9allocatorIyEEE11__vallocateB8ue170006Em, symObjAddr: 0xA04C, symBinAddr: 0x10000E098, symSize: 0xAC }
  - { offsetInCU: 0x2F147, offset: 0x2F147, size: 0x8, addend: 0x0, symName: __ZNSt3__16vectorIyNS_9allocatorIyEEE18__construct_at_endIPyS5_EEvT_T0_m, symObjAddr: 0xA0F8, symBinAddr: 0x10000E144, symSize: 0x8C }
  - { offsetInCU: 0x2F1BD, offset: 0x2F1BD, size: 0x8, addend: 0x0, symName: __ZNSt3__128__exception_guard_exceptionsINS_6vectorIyNS_9allocatorIyEEE16__destroy_vectorEE10__completeB8ue170006Ev, symObjAddr: 0xA184, symBinAddr: 0x10000E1D0, symSize: 0x1C }
  - { offsetInCU: 0x2F1E3, offset: 0x2F1E3, size: 0x8, addend: 0x0, symName: __ZNSt3__128__exception_guard_exceptionsINS_6vectorIyNS_9allocatorIyEEE16__destroy_vectorEED1B8ue170006Ev, symObjAddr: 0xA1A0, symBinAddr: 0x10000E1EC, symSize: 0x2C }
  - { offsetInCU: 0x2F20D, offset: 0x2F20D, size: 0x8, addend: 0x0, symName: __ZNSt3__128__exception_guard_exceptionsINS_6vectorIyNS_9allocatorIyEEE16__destroy_vectorEEC1B8ue170006ES5_, symObjAddr: 0xA1CC, symBinAddr: 0x10000E218, symSize: 0x34 }
  - { offsetInCU: 0x2F245, offset: 0x2F245, size: 0x8, addend: 0x0, symName: __ZNSt3__128__exception_guard_exceptionsINS_6vectorIyNS_9allocatorIyEEE16__destroy_vectorEEC2B8ue170006ES5_, symObjAddr: 0xA200, symBinAddr: 0x10000E24C, symSize: 0x24 }
  - { offsetInCU: 0x2F2A0, offset: 0x2F2A0, size: 0x8, addend: 0x0, symName: __ZNSt3__14pairIPyS1_EC1B8ue170006IS1_S1_LPv0EEEOT_OT0_, symObjAddr: 0xA3D4, symBinAddr: 0x10000E420, symSize: 0x3C }
  - { offsetInCU: 0x2F2FE, offset: 0x2F2FE, size: 0x8, addend: 0x0, symName: __ZNSt3__14pairIPyS1_EC2B8ue170006IS1_S1_LPv0EEEOT_OT0_, symObjAddr: 0xA410, symBinAddr: 0x10000E45C, symSize: 0x34 }
  - { offsetInCU: 0x2F367, offset: 0x2F367, size: 0x8, addend: 0x0, symName: __ZNKSt3__114__copy_trivialclB8ue170006IyyLi0EEENS_4pairIPT_PT0_EES4_S4_S6_, symObjAddr: 0xA5C0, symBinAddr: 0x10000E60C, symSize: 0x48 }
  - { offsetInCU: 0x2F3CF, offset: 0x2F3CF, size: 0x8, addend: 0x0, symName: __ZNSt3__14pairIPyS1_EC1B8ue170006IRS1_S1_LPv0EEEOT_OT0_, symObjAddr: 0xA750, symBinAddr: 0x10000E79C, symSize: 0x3C }
  - { offsetInCU: 0x2F42D, offset: 0x2F42D, size: 0x8, addend: 0x0, symName: __ZNSt3__14pairIPyS1_EC2B8ue170006IRS1_S1_LPv0EEEOT_OT0_, symObjAddr: 0xA78C, symBinAddr: 0x10000E7D8, symSize: 0x34 }
  - { offsetInCU: 0x2F48B, offset: 0x2F48B, size: 0x8, addend: 0x0, symName: __ZNSt3__118__unwrap_iter_implIPyLb1EE8__unwrapB8ue170006ES1_, symObjAddr: 0xA7C0, symBinAddr: 0x10000E80C, symSize: 0x24 }
  - { offsetInCU: 0x2F4AE, offset: 0x2F4AE, size: 0x8, addend: 0x0, symName: __ZNSt3__118__unwrap_iter_implIPyLb1EE8__rewrapB8ue170006ES1_S1_, symObjAddr: 0xA7E4, symBinAddr: 0x10000E830, symSize: 0x50 }
  - { offsetInCU: 0x2F4DF, offset: 0x2F4DF, size: 0x8, addend: 0x0, symName: __ZNSt3__128__exception_guard_exceptionsINS_6vectorIyNS_9allocatorIyEEE16__destroy_vectorEED2B8ue170006Ev, symObjAddr: 0xA834, symBinAddr: 0x10000E880, symSize: 0x48 }
  - { offsetInCU: 0x2F509, offset: 0x2F509, size: 0x8, addend: 0x0, symName: __ZNSt3__16vectorIyNS_9allocatorIyEEE5beginB8ue170006Ev, symObjAddr: 0xA87C, symBinAddr: 0x10000E8C8, symSize: 0x30 }
  - { offsetInCU: 0x2F531, offset: 0x2F531, size: 0x8, addend: 0x0, symName: __ZNSt3__16vectorIyNS_9allocatorIyEEE3endB8ue170006Ev, symObjAddr: 0xA8AC, symBinAddr: 0x10000E8F8, symSize: 0x30 }
  - { offsetInCU: 0x2F559, offset: 0x2F559, size: 0x8, addend: 0x0, symName: __ZNKSt3__111__wrap_iterIPyEdeB8ue170006Ev, symObjAddr: 0xA910, symBinAddr: 0x10000E95C, symSize: 0x18 }
  - { offsetInCU: 0x2F57F, offset: 0x2F57F, size: 0x8, addend: 0x0, symName: __ZNSt3__111__wrap_iterIPyEppB8ue170006Ev, symObjAddr: 0xA928, symBinAddr: 0x10000E974, symSize: 0x20 }
  - { offsetInCU: 0x2F5A5, offset: 0x2F5A5, size: 0x8, addend: 0x0, symName: __ZNSt3__16vectorIyNS_9allocatorIyEEE11__make_iterB8ue170006EPy, symObjAddr: 0xA948, symBinAddr: 0x10000E994, symSize: 0x30 }
  - { offsetInCU: 0x2F5DA, offset: 0x2F5DA, size: 0x8, addend: 0x0, symName: __ZNSt3__111__wrap_iterIPyEC1B8ue170006ES1_, symObjAddr: 0xA978, symBinAddr: 0x10000E9C4, symSize: 0x34 }
  - { offsetInCU: 0x2F612, offset: 0x2F612, size: 0x8, addend: 0x0, symName: __ZNSt3__111__wrap_iterIPyEC2B8ue170006ES1_, symObjAddr: 0xA9AC, symBinAddr: 0x10000E9F8, symSize: 0x20 }
  - { offsetInCU: 0x2F64A, offset: 0x2F64A, size: 0x8, addend: 0x0, symName: __ZNKSt3__111__wrap_iterIPyE4baseB8ue170006Ev, symObjAddr: 0xAA14, symBinAddr: 0x10000EA60, symSize: 0x18 }
  - { offsetInCU: 0x2F670, offset: 0x2F670, size: 0x8, addend: 0x0, symName: __ZN7BMatrixC2Ev, symObjAddr: 0xAA2C, symBinAddr: 0x10000EA78, symSize: 0x34 }
  - { offsetInCU: 0x2F69A, offset: 0x2F69A, size: 0x8, addend: 0x0, symName: __ZNKSt3__16vectorI7BVectorNS_9allocatorIS1_EEE5emptyB8ue170006Ev, symObjAddr: 0xAA60, symBinAddr: 0x10000EAAC, symSize: 0x28 }
  - { offsetInCU: 0x2F6C0, offset: 0x2F6C0, size: 0x8, addend: 0x0, symName: __ZNSt3__16vectorI7BVectorNS_9allocatorIS1_EEE9push_backB8ue170006ERKS1_, symObjAddr: 0xAA88, symBinAddr: 0x10000EAD4, symSize: 0x6C }
  - { offsetInCU: 0x2F6F7, offset: 0x2F6F7, size: 0x8, addend: 0x0, symName: __ZNSt3__16vectorI7BVectorNS_9allocatorIS1_EEE22__construct_one_at_endB8ue170006IJRKS1_EEEvDpOT_, symObjAddr: 0xAAF4, symBinAddr: 0x10000EB40, symSize: 0x90 }
  - { offsetInCU: 0x2F746, offset: 0x2F746, size: 0x8, addend: 0x0, symName: __ZNSt3__16vectorI7BVectorNS_9allocatorIS1_EEE21__push_back_slow_pathIRKS1_EEvOT_, symObjAddr: 0xAB84, symBinAddr: 0x10000EBD0, symSize: 0xD8 }
  - { offsetInCU: 0x2F7A4, offset: 0x2F7A4, size: 0x8, addend: 0x0, symName: __ZNSt3__116allocator_traitsINS_9allocatorI7BVectorEEE9constructB8ue170006IS2_JRKS2_EvEEvRS3_PT_DpOT0_, symObjAddr: 0xAC5C, symBinAddr: 0x10000ECA8, symSize: 0x34 }
  - { offsetInCU: 0x2F7FB, offset: 0x2F7FB, size: 0x8, addend: 0x0, symName: __ZNSt3__19allocatorI7BVectorE9constructB8ue170006IS1_JRKS1_EEEvPT_DpOT0_, symObjAddr: 0xAC90, symBinAddr: 0x10000ECDC, symSize: 0x30 }
  - { offsetInCU: 0x2F851, offset: 0x2F851, size: 0x8, addend: 0x0, symName: __ZN7BMatrixC2ERKS_, symObjAddr: 0xACC0, symBinAddr: 0x10000ED0C, symSize: 0x40 }
  - { offsetInCU: 0x2F886, offset: 0x2F886, size: 0x8, addend: 0x0, symName: __ZNSt3__16vectorI7BVectorNS_9allocatorIS1_EEEC1ERKS4_, symObjAddr: 0xAD00, symBinAddr: 0x10000ED4C, symSize: 0x34 }
  - { offsetInCU: 0x2F8C1, offset: 0x2F8C1, size: 0x8, addend: 0x0, symName: __ZNSt3__16vectorI7BVectorNS_9allocatorIS1_EEEC2ERKS4_, symObjAddr: 0xAD34, symBinAddr: 0x10000ED80, symSize: 0x94 }
  - { offsetInCU: 0x2F8FC, offset: 0x2F8FC, size: 0x8, addend: 0x0, symName: __ZNSt3__116allocator_traitsINS_9allocatorI7BVectorEEE37select_on_container_copy_constructionB8ue170006IS3_vvEES3_RKS3_, symObjAddr: 0xADC8, symBinAddr: 0x10000EE14, symSize: 0x10 }
  - { offsetInCU: 0x2F931, offset: 0x2F931, size: 0x8, addend: 0x0, symName: __ZNSt3__117__compressed_pairIP7BVectorNS_9allocatorIS1_EEEC1B8ue170006IDnS4_EEOT_OT0_, symObjAddr: 0xADD8, symBinAddr: 0x10000EE24, symSize: 0x3C }
  - { offsetInCU: 0x2F989, offset: 0x2F989, size: 0x8, addend: 0x0, symName: __ZNSt3__16vectorI7BVectorNS_9allocatorIS1_EEE16__init_with_sizeB8ue170006IPS1_S6_EEvT_T0_m, symObjAddr: 0xAE14, symBinAddr: 0x10000EE60, symSize: 0xB8 }
  - { offsetInCU: 0x2F9FD, offset: 0x2F9FD, size: 0x8, addend: 0x0, symName: __ZNSt3__117__compressed_pairIP7BVectorNS_9allocatorIS1_EEEC2B8ue170006IDnS4_EEOT_OT0_, symObjAddr: 0xAECC, symBinAddr: 0x10000EF18, symSize: 0x44 }
  - { offsetInCU: 0x2FA55, offset: 0x2FA55, size: 0x8, addend: 0x0, symName: __ZNSt3__122__compressed_pair_elemINS_9allocatorI7BVectorEELi1ELb1EEC2B8ue170006IS3_vEEOT_, symObjAddr: 0xAF10, symBinAddr: 0x10000EF5C, symSize: 0x18 }
  - { offsetInCU: 0x2FA97, offset: 0x2FA97, size: 0x8, addend: 0x0, symName: __ZNSt3__16vectorI7BVectorNS_9allocatorIS1_EEE11__vallocateB8ue170006Em, symObjAddr: 0xAF68, symBinAddr: 0x10000EFB4, symSize: 0xAC }
  - { offsetInCU: 0x2FADB, offset: 0x2FADB, size: 0x8, addend: 0x0, symName: __ZNSt3__16vectorI7BVectorNS_9allocatorIS1_EEE18__construct_at_endIPS1_S6_EEvT_T0_m, symObjAddr: 0xB014, symBinAddr: 0x10000F060, symSize: 0x8C }
  - { offsetInCU: 0x2FB51, offset: 0x2FB51, size: 0x8, addend: 0x0, symName: __ZNSt3__128__exception_guard_exceptionsINS_6vectorI7BVectorNS_9allocatorIS2_EEE16__destroy_vectorEE10__completeB8ue170006Ev, symObjAddr: 0xB0A0, symBinAddr: 0x10000F0EC, symSize: 0x1C }
  - { offsetInCU: 0x2FB77, offset: 0x2FB77, size: 0x8, addend: 0x0, symName: __ZNSt3__128__exception_guard_exceptionsINS_6vectorI7BVectorNS_9allocatorIS2_EEE16__destroy_vectorEED1B8ue170006Ev, symObjAddr: 0xB0BC, symBinAddr: 0x10000F108, symSize: 0x2C }
  - { offsetInCU: 0x2FBA1, offset: 0x2FBA1, size: 0x8, addend: 0x0, symName: __ZNSt3__128__exception_guard_exceptionsINS_6vectorI7BVectorNS_9allocatorIS2_EEE16__destroy_vectorEEC1B8ue170006ES6_, symObjAddr: 0xB0E8, symBinAddr: 0x10000F134, symSize: 0x34 }
  - { offsetInCU: 0x2FBD9, offset: 0x2FBD9, size: 0x8, addend: 0x0, symName: __ZNSt3__128__exception_guard_exceptionsINS_6vectorI7BVectorNS_9allocatorIS2_EEE16__destroy_vectorEEC2B8ue170006ES6_, symObjAddr: 0xB11C, symBinAddr: 0x10000F168, symSize: 0x24 }
  - { offsetInCU: 0x2FC34, offset: 0x2FC34, size: 0x8, addend: 0x0, symName: __ZNSt3__14pairIP7BVectorS2_EC1B8ue170006IS2_S2_LPv0EEEOT_OT0_, symObjAddr: 0xB3AC, symBinAddr: 0x10000F3F8, symSize: 0x3C }
  - { offsetInCU: 0x2FC92, offset: 0x2FC92, size: 0x8, addend: 0x0, symName: __ZNSt3__14pairIP7BVectorS2_EC2B8ue170006IS2_S2_LPv0EEEOT_OT0_, symObjAddr: 0xB3E8, symBinAddr: 0x10000F434, symSize: 0x34 }
  - { offsetInCU: 0x2FCF0, offset: 0x2FCF0, size: 0x8, addend: 0x0, symName: __ZNSt3__129_AllocatorDestroyRangeReverseINS_9allocatorI7BVectorEEPS2_EC1B8ue170006ERS3_RS4_S7_, symObjAddr: 0xB468, symBinAddr: 0x10000F4B4, symSize: 0x44 }
  - { offsetInCU: 0x2FD47, offset: 0x2FD47, size: 0x8, addend: 0x0, symName: __ZNSt3__116allocator_traitsINS_9allocatorI7BVectorEEE9constructB8ue170006IS2_JRS2_EvEEvRS3_PT_DpOT0_, symObjAddr: 0xB4AC, symBinAddr: 0x10000F4F8, symSize: 0x34 }
  - { offsetInCU: 0x2FD9E, offset: 0x2FD9E, size: 0x8, addend: 0x0, symName: __ZNSt3__128__exception_guard_exceptionsINS_29_AllocatorDestroyRangeReverseINS_9allocatorI7BVectorEEPS3_EEE10__completeB8ue170006Ev, symObjAddr: 0xB4E0, symBinAddr: 0x10000F52C, symSize: 0x1C }
  - { offsetInCU: 0x2FDC4, offset: 0x2FDC4, size: 0x8, addend: 0x0, symName: __ZNSt3__128__exception_guard_exceptionsINS_29_AllocatorDestroyRangeReverseINS_9allocatorI7BVectorEEPS3_EEED1B8ue170006Ev, symObjAddr: 0xB4FC, symBinAddr: 0x10000F548, symSize: 0x2C }
  - { offsetInCU: 0x2FDEE, offset: 0x2FDEE, size: 0x8, addend: 0x0, symName: __ZNSt3__128__exception_guard_exceptionsINS_29_AllocatorDestroyRangeReverseINS_9allocatorI7BVectorEEPS3_EEEC1B8ue170006ES6_, symObjAddr: 0xB528, symBinAddr: 0x10000F574, symSize: 0x34 }
  - { offsetInCU: 0x2FE27, offset: 0x2FE27, size: 0x8, addend: 0x0, symName: __ZNSt3__128__exception_guard_exceptionsINS_29_AllocatorDestroyRangeReverseINS_9allocatorI7BVectorEEPS3_EEEC2B8ue170006ES6_, symObjAddr: 0xB55C, symBinAddr: 0x10000F5A8, symSize: 0x30 }
  - { offsetInCU: 0x2FE60, offset: 0x2FE60, size: 0x8, addend: 0x0, symName: __ZNSt3__129_AllocatorDestroyRangeReverseINS_9allocatorI7BVectorEEPS2_EC2B8ue170006ERS3_RS4_S7_, symObjAddr: 0xB58C, symBinAddr: 0x10000F5D8, symSize: 0x38 }
  - { offsetInCU: 0x2FEB7, offset: 0x2FEB7, size: 0x8, addend: 0x0, symName: __ZNSt3__19allocatorI7BVectorE9constructB8ue170006IS1_JRS1_EEEvPT_DpOT0_, symObjAddr: 0xB5C4, symBinAddr: 0x10000F610, symSize: 0x30 }
  - { offsetInCU: 0x2FF0D, offset: 0x2FF0D, size: 0x8, addend: 0x0, symName: __ZNSt3__128__exception_guard_exceptionsINS_29_AllocatorDestroyRangeReverseINS_9allocatorI7BVectorEEPS3_EEED2B8ue170006Ev, symObjAddr: 0xB5F4, symBinAddr: 0x10000F640, symSize: 0x50 }
  - { offsetInCU: 0x2FF37, offset: 0x2FF37, size: 0x8, addend: 0x0, symName: __ZNKSt3__129_AllocatorDestroyRangeReverseINS_9allocatorI7BVectorEEPS2_EclB8ue170006Ev, symObjAddr: 0xB644, symBinAddr: 0x10000F690, symSize: 0x68 }
  - { offsetInCU: 0x2FF5D, offset: 0x2FF5D, size: 0x8, addend: 0x0, symName: __ZNSt3__118__unwrap_iter_implIP7BVectorLb1EE8__unwrapB8ue170006ES2_, symObjAddr: 0xB71C, symBinAddr: 0x10000F768, symSize: 0x24 }
  - { offsetInCU: 0x2FF80, offset: 0x2FF80, size: 0x8, addend: 0x0, symName: __ZNSt3__118__unwrap_iter_implIP7BVectorLb1EE8__rewrapB8ue170006ES2_S2_, symObjAddr: 0xB740, symBinAddr: 0x10000F78C, symSize: 0x50 }
  - { offsetInCU: 0x2FFB1, offset: 0x2FFB1, size: 0x8, addend: 0x0, symName: __ZNSt3__128__exception_guard_exceptionsINS_6vectorI7BVectorNS_9allocatorIS2_EEE16__destroy_vectorEED2B8ue170006Ev, symObjAddr: 0xB790, symBinAddr: 0x10000F7DC, symSize: 0x48 }
  - { offsetInCU: 0x2FFDB, offset: 0x2FFDB, size: 0x8, addend: 0x0, symName: __ZNSt3__16vectorI7BVectorNS_9allocatorIS1_EEE4backB8ue170006Ev, symObjAddr: 0xB7D8, symBinAddr: 0x10000F824, symSize: 0x1C }
  - { offsetInCU: 0x30001, offset: 0x30001, size: 0x8, addend: 0x0, symName: __ZNSt3__16vectorI7BVectorNS_9allocatorIS1_EEE8pop_backEv, symObjAddr: 0xB7F4, symBinAddr: 0x10000F840, symSize: 0x2C }
  - { offsetInCU: 0x30029, offset: 0x30029, size: 0x8, addend: 0x0, symName: __ZN7BMatrixC2EOS_, symObjAddr: 0xB820, symBinAddr: 0x10000F86C, symSize: 0x40 }
  - { offsetInCU: 0x3005E, offset: 0x3005E, size: 0x8, addend: 0x0, symName: __ZNSt3__16vectorI7BVectorNS_9allocatorIS1_EEEC1B8ue170006EOS4_, symObjAddr: 0xB860, symBinAddr: 0x10000F8AC, symSize: 0x34 }
  - { offsetInCU: 0x30099, offset: 0x30099, size: 0x8, addend: 0x0, symName: __ZNSt3__16vectorI7BVectorNS_9allocatorIS1_EEEC2B8ue170006EOS4_, symObjAddr: 0xB894, symBinAddr: 0x10000F8E0, symSize: 0xC4 }
  - { offsetInCU: 0x300D4, offset: 0x300D4, size: 0x8, addend: 0x0, symName: __ZN7BVectorC2ENSt3__16vectorIbNS0_9allocatorIbEEEE, symObjAddr: 0xB958, symBinAddr: 0x10000F9A4, symSize: 0x118 }
  - { offsetInCU: 0x30129, offset: 0x30129, size: 0x8, addend: 0x0, symName: __ZNKSt3__16vectorIbNS_9allocatorIbEEE4sizeB8ue170006Ev, symObjAddr: 0xBA70, symBinAddr: 0x10000FABC, symSize: 0x18 }
  - { offsetInCU: 0x3014F, offset: 0x3014F, size: 0x8, addend: 0x0, symName: __ZNSt3__16vectorIbNS_9allocatorIbEEEixB8ue170006Em, symObjAddr: 0xBA88, symBinAddr: 0x10000FAD4, symSize: 0x3C }
  - { offsetInCU: 0x30184, offset: 0x30184, size: 0x8, addend: 0x0, symName: __ZNKSt3__115__bit_referenceINS_6vectorIbNS_9allocatorIbEEEELb1EEcvbB8ue170006Ev, symObjAddr: 0xBAC4, symBinAddr: 0x10000FB10, symSize: 0x2C }
  - { offsetInCU: 0x301AA, offset: 0x301AA, size: 0x8, addend: 0x0, symName: __ZNSt3__16vectorIbNS_9allocatorIbEEE10__make_refB8ue170006Em, symObjAddr: 0xBAF0, symBinAddr: 0x10000FB3C, symSize: 0x60 }
  - { offsetInCU: 0x301DF, offset: 0x301DF, size: 0x8, addend: 0x0, symName: __ZNSt3__115__bit_referenceINS_6vectorIbNS_9allocatorIbEEEELb1EEC1B8ue170006EPmm, symObjAddr: 0xBB50, symBinAddr: 0x10000FB9C, symSize: 0x3C }
  - { offsetInCU: 0x30225, offset: 0x30225, size: 0x8, addend: 0x0, symName: __ZNSt3__115__bit_referenceINS_6vectorIbNS_9allocatorIbEEEELb1EEC2B8ue170006EPmm, symObjAddr: 0xBB8C, symBinAddr: 0x10000FBD8, symSize: 0x2C }
  - { offsetInCU: 0x3026B, offset: 0x3026B, size: 0x8, addend: 0x0, symName: __ZNSt3__14pairI7BMatrixS1_EC1B8ue170006IRS1_S4_LPv0EEEOT_OT0_, symObjAddr: 0xBBB8, symBinAddr: 0x10000FC04, symSize: 0x3C }
  - { offsetInCU: 0x302C9, offset: 0x302C9, size: 0x8, addend: 0x0, symName: __ZNSt3__14pairI7BMatrixS1_EC2B8ue170006IRS1_S4_LPv0EEEOT_OT0_, symObjAddr: 0xBBF4, symBinAddr: 0x10000FC40, symSize: 0x70 }
  - { offsetInCU: 0x30327, offset: 0x30327, size: 0x8, addend: 0x0, symName: __ZNKSt3__111__wrap_iterIPiE4baseB8ue170006Ev, symObjAddr: 0xBCAC, symBinAddr: 0x10000FCF8, symSize: 0x18 }
  - { offsetInCU: 0x3034D, offset: 0x3034D, size: 0x8, addend: 0x0, symName: __ZNSt3__16vectorI7BVectorNS_9allocatorIS1_EEEaSB8ue170006ERKS4_, symObjAddr: 0xBCC4, symBinAddr: 0x10000FD10, symSize: 0x68 }
  - { offsetInCU: 0x30384, offset: 0x30384, size: 0x8, addend: 0x0, symName: __ZNSt3__16vectorI7BVectorNS_9allocatorIS1_EEE19__copy_assign_allocB8ue170006ERKS4_, symObjAddr: 0xBD2C, symBinAddr: 0x10000FD78, symSize: 0x2C }
  - { offsetInCU: 0x303B9, offset: 0x303B9, size: 0x8, addend: 0x0, symName: __ZNSt3__16vectorI7BVectorNS_9allocatorIS1_EEE6assignIPS1_Li0EEEvT_S7_, symObjAddr: 0xBD58, symBinAddr: 0x10000FDA4, symSize: 0x5C }
  - { offsetInCU: 0x3040E, offset: 0x3040E, size: 0x8, addend: 0x0, symName: __ZNSt3__16vectorI7BVectorNS_9allocatorIS1_EEE19__copy_assign_allocB8ue170006ERKS4_NS_17integral_constantIbLb0EEE, symObjAddr: 0xBDB4, symBinAddr: 0x10000FE00, symSize: 0x14 }
  - { offsetInCU: 0x3044C, offset: 0x3044C, size: 0x8, addend: 0x0, symName: __ZNSt3__16vectorI7BVectorNS_9allocatorIS1_EEE18__assign_with_sizeB8ue170006IPS1_S6_EEvT_T0_l, symObjAddr: 0xBDC8, symBinAddr: 0x10000FE14, symSize: 0x164 }
  - { offsetInCU: 0x304FC, offset: 0x304FC, size: 0x8, addend: 0x0, symName: __ZNSt3__16vectorI7BVectorNS_9allocatorIS1_EEE13__vdeallocateEv, symObjAddr: 0xC010, symBinAddr: 0x10001005C, symSize: 0x94 }
  - { offsetInCU: 0x3052F, offset: 0x3052F, size: 0x8, addend: 0x0, symName: __ZNKSt3__111__copy_loopINS_17_ClassicAlgPolicyEEclB8ue170006IP7BVectorS5_S5_EENS_4pairIT_T1_EES7_T0_S8_, symObjAddr: 0xC210, symBinAddr: 0x10001025C, symSize: 0x88 }
  - { offsetInCU: 0x3059A, offset: 0x3059A, size: 0x8, addend: 0x0, symName: __ZN7BVectoraSERKS_, symObjAddr: 0xC2C4, symBinAddr: 0x100010310, symSize: 0x40 }
  - { offsetInCU: 0x305CB, offset: 0x305CB, size: 0x8, addend: 0x0, symName: __ZNSt3__16vectorIyNS_9allocatorIyEEEaSB8ue170006ERKS3_, symObjAddr: 0xC304, symBinAddr: 0x100010350, symSize: 0x68 }
  - { offsetInCU: 0x30602, offset: 0x30602, size: 0x8, addend: 0x0, symName: __ZNSt3__16vectorIyNS_9allocatorIyEEE19__copy_assign_allocB8ue170006ERKS3_, symObjAddr: 0xC36C, symBinAddr: 0x1000103B8, symSize: 0x2C }
  - { offsetInCU: 0x30637, offset: 0x30637, size: 0x8, addend: 0x0, symName: __ZNSt3__16vectorIyNS_9allocatorIyEEE6assignIPyLi0EEEvT_S6_, symObjAddr: 0xC398, symBinAddr: 0x1000103E4, symSize: 0x5C }
  - { offsetInCU: 0x3068C, offset: 0x3068C, size: 0x8, addend: 0x0, symName: __ZNSt3__16vectorIyNS_9allocatorIyEEE19__copy_assign_allocB8ue170006ERKS3_NS_17integral_constantIbLb0EEE, symObjAddr: 0xC3F4, symBinAddr: 0x100010440, symSize: 0x14 }
  - { offsetInCU: 0x306CA, offset: 0x306CA, size: 0x8, addend: 0x0, symName: __ZNSt3__16vectorIyNS_9allocatorIyEEE18__assign_with_sizeB8ue170006IPyS5_EEvT_T0_l, symObjAddr: 0xC408, symBinAddr: 0x100010454, symSize: 0x164 }
  - { offsetInCU: 0x3077A, offset: 0x3077A, size: 0x8, addend: 0x0, symName: __ZNSt3__16vectorI7BVectorNS_9allocatorIS1_EEE5clearB8ue170006Ev, symObjAddr: 0xC654, symBinAddr: 0x1000106A0, symSize: 0x44 }
  - { offsetInCU: 0x307AF, offset: 0x307AF, size: 0x8, addend: 0x0, symName: __ZNKSt3__111__wrap_iterIPNS_4pairI7BMatrixiEEE4baseB8ue170006Ev, symObjAddr: 0xC708, symBinAddr: 0x100010754, symSize: 0x18 }
  - { offsetInCU: 0x307D5, offset: 0x307D5, size: 0x8, addend: 0x0, symName: __ZNSt3__14pairI7BMatrixiEC2B8ue170006ERKS2_, symObjAddr: 0xC720, symBinAddr: 0x10001076C, symSize: 0x40 }
  - { offsetInCU: 0x30809, offset: 0x30809, size: 0x8, addend: 0x0, symName: __ZNSt3__14pairI7BMatrixiED2Ev, symObjAddr: 0xC760, symBinAddr: 0x1000107AC, symSize: 0x2C }
  - { offsetInCU: 0x30835, offset: 0x30835, size: 0x8, addend: 0x0, symName: __ZNKSt3__16__lessIvvEclB8ue170006IiiEEbRKT_RKT0_, symObjAddr: 0xC7E0, symBinAddr: 0x10001082C, symSize: 0x34 }
  - { offsetInCU: 0x30889, offset: 0x30889, size: 0x8, addend: 0x0, symName: __ZNSt3__16vectorI7BVectorNS_9allocatorIS1_EEEaSB8ue170006EOS4_, symObjAddr: 0xC814, symBinAddr: 0x100010860, symSize: 0x34 }
  - { offsetInCU: 0x308C0, offset: 0x308C0, size: 0x8, addend: 0x0, symName: __ZNSt3__16vectorI7BVectorNS_9allocatorIS1_EEE13__move_assignERS4_NS_17integral_constantIbLb1EEE, symObjAddr: 0xC848, symBinAddr: 0x100010894, symSize: 0x94 }
  - { offsetInCU: 0x30903, offset: 0x30903, size: 0x8, addend: 0x0, symName: __ZNSt3__16vectorI7BVectorNS_9allocatorIS1_EEE19__move_assign_allocB8ue170006ERS4_, symObjAddr: 0xC8DC, symBinAddr: 0x100010928, symSize: 0x2C }
  - { offsetInCU: 0x30938, offset: 0x30938, size: 0x8, addend: 0x0, symName: __ZNSt3__16vectorI7BVectorNS_9allocatorIS1_EEE19__move_assign_allocB8ue170006ERS4_NS_17integral_constantIbLb1EEE, symObjAddr: 0xC908, symBinAddr: 0x100010954, symSize: 0x38 }
  - { offsetInCU: 0x30979, offset: 0x30979, size: 0x8, addend: 0x0, symName: __ZNSt3__15tupleIJR7BMatrixS2_EEC1B8ue170006INS_4_AndELi0EEES2_S2_, symObjAddr: 0xC940, symBinAddr: 0x10001098C, symSize: 0x3C }
  - { offsetInCU: 0x309D0, offset: 0x309D0, size: 0x8, addend: 0x0, symName: __ZNSt3__15tupleIJR7BMatrixS2_EEC2B8ue170006INS_4_AndELi0EEES2_S2_, symObjAddr: 0xC97C, symBinAddr: 0x1000109C8, symSize: 0x3C }
  - { offsetInCU: 0x30A27, offset: 0x30A27, size: 0x8, addend: 0x0, symName: __ZNSt3__112__tuple_implINS_15__tuple_indicesIJLm0ELm1EEEEJR7BMatrixS4_EEC1B8ue170006IJLm0ELm1EEJS4_S4_EJEJEJS4_S4_EEENS1_IJXspT_EEEENS_13__tuple_typesIJDpT0_EEENS1_IJXspT1_EEEENS8_IJDpT2_EEEDpOT3_, symObjAddr: 0xC9B8, symBinAddr: 0x100010A04, symSize: 0x3C }
  - { offsetInCU: 0x30ADB, offset: 0x30ADB, size: 0x8, addend: 0x0, symName: __ZNSt3__112__tuple_implINS_15__tuple_indicesIJLm0ELm1EEEEJR7BMatrixS4_EEC2B8ue170006IJLm0ELm1EEJS4_S4_EJEJEJS4_S4_EEENS1_IJXspT_EEEENS_13__tuple_typesIJDpT0_EEENS1_IJXspT1_EEEENS8_IJDpT2_EEEDpOT3_, symObjAddr: 0xC9F4, symBinAddr: 0x100010A40, symSize: 0x48 }
  - { offsetInCU: 0x30B8F, offset: 0x30B8F, size: 0x8, addend: 0x0, symName: __ZNSt3__112__tuple_leafILm0ER7BMatrixLb0EEC2B8ue170006IS2_vEEOT_, symObjAddr: 0xCA3C, symBinAddr: 0x100010A88, symSize: 0x20 }
  - { offsetInCU: 0x30BD2, offset: 0x30BD2, size: 0x8, addend: 0x0, symName: __ZNSt3__112__tuple_leafILm1ER7BMatrixLb0EEC2B8ue170006IS2_vEEOT_, symObjAddr: 0xCA5C, symBinAddr: 0x100010AA8, symSize: 0x20 }
  - { offsetInCU: 0x30C15, offset: 0x30C15, size: 0x8, addend: 0x0, symName: __ZNSt3__14pairI7BMatrixS1_ED2Ev, symObjAddr: 0xCA7C, symBinAddr: 0x100010AC8, symSize: 0x38 }
  - { offsetInCU: 0x30C41, offset: 0x30C41, size: 0x8, addend: 0x0, symName: __ZN7BVector6weightEv, symObjAddr: 0xCAB4, symBinAddr: 0x100010B00, symSize: 0x90 }
  - { offsetInCU: 0x30CD1, offset: 0x30CD1, size: 0x8, addend: 0x0, symName: __ZZN7BMatrix9sort_rowsEvENKUlRK7BVectorS2_E_clES2_S2_, symObjAddr: 0xD1A4, symBinAddr: 0x1000111F0, symSize: 0x34 }
  - { offsetInCU: 0x30D17, offset: 0x30D17, size: 0x8, addend: 0x0, symName: __ZNSt3__18_IterOpsINS_17_ClassicAlgPolicyEE9iter_swapB8ue170006IRP7BVectorS6_EEvOT_OT0_, symObjAddr: 0xD1D8, symBinAddr: 0x100011224, symSize: 0x34 }
  - { offsetInCU: 0x30D5A, offset: 0x30D5A, size: 0x8, addend: 0x0, symName: __ZNSt3__18_IterOpsINS_17_ClassicAlgPolicyEE9iter_swapB8ue170006IRP7BVectorS5_EEvOT_OT0_, symObjAddr: 0xD7A8, symBinAddr: 0x1000117F4, symSize: 0x34 }
  - { offsetInCU: 0x30D9D, offset: 0x30D9D, size: 0x8, addend: 0x0, symName: __ZNKSt3__16vectorIyNS_9allocatorIyEEE5beginB8ue170006Ev, symObjAddr: 0xE538, symBinAddr: 0x100012584, symSize: 0x30 }
  - { offsetInCU: 0x30DC5, offset: 0x30DC5, size: 0x8, addend: 0x0, symName: __ZNKSt3__16vectorIyNS_9allocatorIyEEE3endB8ue170006Ev, symObjAddr: 0xE568, symBinAddr: 0x1000125B4, symSize: 0x30 }
  - { offsetInCU: 0x30DED, offset: 0x30DED, size: 0x8, addend: 0x0, symName: __ZNKSt3__16__lessIvvEclB8ue170006IyyEEbRKT_RKT0_, symObjAddr: 0xE794, symBinAddr: 0x1000127E0, symSize: 0x34 }
  - { offsetInCU: 0x30E41, offset: 0x30E41, size: 0x8, addend: 0x0, symName: __ZNKSt3__111__wrap_iterIPKyEdeB8ue170006Ev, symObjAddr: 0xE7C8, symBinAddr: 0x100012814, symSize: 0x18 }
  - { offsetInCU: 0x30E67, offset: 0x30E67, size: 0x8, addend: 0x0, symName: __ZNSt3__111__wrap_iterIPKyEppB8ue170006Ev, symObjAddr: 0xE7E0, symBinAddr: 0x10001282C, symSize: 0x20 }
  - { offsetInCU: 0x30E8D, offset: 0x30E8D, size: 0x8, addend: 0x0, symName: __ZNKSt3__111__wrap_iterIPKyE4baseB8ue170006Ev, symObjAddr: 0xE800, symBinAddr: 0x10001284C, symSize: 0x18 }
  - { offsetInCU: 0x30EB3, offset: 0x30EB3, size: 0x8, addend: 0x0, symName: __ZNKSt3__16vectorIyNS_9allocatorIyEEE11__make_iterB8ue170006EPKy, symObjAddr: 0xE818, symBinAddr: 0x100012864, symSize: 0x30 }
  - { offsetInCU: 0x30EE8, offset: 0x30EE8, size: 0x8, addend: 0x0, symName: __ZNSt3__111__wrap_iterIPKyEC1B8ue170006ES2_, symObjAddr: 0xE848, symBinAddr: 0x100012894, symSize: 0x34 }
  - { offsetInCU: 0x30F20, offset: 0x30F20, size: 0x8, addend: 0x0, symName: __ZNSt3__111__wrap_iterIPKyEC2B8ue170006ES2_, symObjAddr: 0xE87C, symBinAddr: 0x1000128C8, symSize: 0x20 }
  - { offsetInCU: 0x30F58, offset: 0x30F58, size: 0x8, addend: 0x0, symName: __ZNSt3__18_IterOpsINS_17_ClassicAlgPolicyEE11__iter_moveB8ue170006IRP7BVectorEENS_9enable_ifIXsr12is_referenceIDTdeclsr3stdE7declvalIRT_EEEEE5valueEDTclsr3stdE4movedeclsr3stdE7declvalIS9_EEEEE4typeEOS8_, symObjAddr: 0xEA68, symBinAddr: 0x100012AB4, symSize: 0x28 }
  - { offsetInCU: 0x30F84, offset: 0x30F84, size: 0x8, addend: 0x0, symName: __ZNSt3__18_IterOpsINS_17_ClassicAlgPolicyEE25__validate_iter_referenceB8ue170006IRP7BVectorEEvv, symObjAddr: 0xEA90, symBinAddr: 0x100012ADC, symSize: 0x4 }
  - { offsetInCU: 0x30FA2, offset: 0x30FA2, size: 0x8, addend: 0x0, symName: __ZNSt3__18_IterOpsINS_17_ClassicAlgPolicyEE4nextB8ue170006IP7BVectorEET_S6_S6_, symObjAddr: 0xEA94, symBinAddr: 0x100012AE0, symSize: 0x18 }
  - { offsetInCU: 0x30FD8, offset: 0x30FD8, size: 0x8, addend: 0x0, symName: __ZNSt3__18_IterOpsINS_17_ClassicAlgPolicyEE9iter_swapB8ue170006IP7BVectorS5_EEvOT_OT0_, symObjAddr: 0xFAB8, symBinAddr: 0x100013B04, symSize: 0x34 }
  - { offsetInCU: 0x31038, offset: 0x31038, size: 0x8, addend: 0x0, symName: __ZNSt3__14pairIP7BVectorbEC1B8ue170006IRS2_RbLPv0EEEOT_OT0_, symObjAddr: 0xFB08, symBinAddr: 0x100013B54, symSize: 0x3C }
  - { offsetInCU: 0x31096, offset: 0x31096, size: 0x8, addend: 0x0, symName: __ZNSt3__14pairIP7BVectorbEC2B8ue170006IRS2_RbLPv0EEEOT_OT0_, symObjAddr: 0xFB44, symBinAddr: 0x100013B90, symSize: 0x38 }
  - { offsetInCU: 0x310F4, offset: 0x310F4, size: 0x8, addend: 0x0, symName: __ZNSt3__118__unwrap_iter_implINS_11__wrap_iterIP7BVectorEELb1EE8__unwrapB8ue170006ES4_, symObjAddr: 0xFB7C, symBinAddr: 0x100013BC8, symSize: 0x28 }
  - { offsetInCU: 0x31123, offset: 0x31123, size: 0x8, addend: 0x0, symName: __ZNSt3__119__to_address_helperINS_11__wrap_iterIP7BVectorEEvE6__callB8ue170006ERKS4_, symObjAddr: 0xFBC8, symBinAddr: 0x100013C14, symSize: 0x30 }
  - { offsetInCU: 0x31146, offset: 0x31146, size: 0x8, addend: 0x0, symName: __ZNSt3__114pointer_traitsINS_11__wrap_iterIP7BVectorEEE10to_addressB8ue170006ES4_, symObjAddr: 0xFBF8, symBinAddr: 0x100013C44, symSize: 0x2C }
  - { offsetInCU: 0x31169, offset: 0x31169, size: 0x8, addend: 0x0, symName: __ZNSt3__114basic_ifstreamIcNS_11char_traitsIcEEED2Ev, symObjAddr: 0xFC78, symBinAddr: 0x100013CC4, symSize: 0x64 }
  - { offsetInCU: 0x311A3, offset: 0x311A3, size: 0x8, addend: 0x0, symName: __ZTv0_n24_NSt3__114basic_ifstreamIcNS_11char_traitsIcEEED1Ev, symObjAddr: 0xFCDC, symBinAddr: 0x100013D28, symSize: 0x28 }
  - { offsetInCU: 0x311BA, offset: 0x311BA, size: 0x8, addend: 0x0, symName: __ZNSt3__112basic_stringIcNS_11char_traitsIcEENS_9allocatorIcEEEC2B8ue170006Ev, symObjAddr: 0xFD04, symBinAddr: 0x100013D50, symSize: 0x48 }
  - { offsetInCU: 0x311E4, offset: 0x311E4, size: 0x8, addend: 0x0, symName: __ZNSt3__117__compressed_pairINS_12basic_stringIcNS_11char_traitsIcEENS_9allocatorIcEEE5__repES5_EC1B8ue170006INS_18__default_init_tagESA_EEOT_OT0_, symObjAddr: 0xFD4C, symBinAddr: 0x100013D98, symSize: 0x3C }
  - { offsetInCU: 0x3123C, offset: 0x3123C, size: 0x8, addend: 0x0, symName: __ZNSt3__112basic_stringIcNS_11char_traitsIcEENS_9allocatorIcEEE14__default_initB8ue170006Ev, symObjAddr: 0xFD88, symBinAddr: 0x100013DD4, symSize: 0x40 }
  - { offsetInCU: 0x31262, offset: 0x31262, size: 0x8, addend: 0x0, symName: __ZNSt3__117__compressed_pairINS_12basic_stringIcNS_11char_traitsIcEENS_9allocatorIcEEE5__repES5_EC2B8ue170006INS_18__default_init_tagESA_EEOT_OT0_, symObjAddr: 0xFDC8, symBinAddr: 0x100013E14, symSize: 0x3C }
  - { offsetInCU: 0x312BA, offset: 0x312BA, size: 0x8, addend: 0x0, symName: __ZNSt3__122__compressed_pair_elemINS_12basic_stringIcNS_11char_traitsIcEENS_9allocatorIcEEE5__repELi0ELb0EEC2B8ue170006ENS_18__default_init_tagE, symObjAddr: 0xFE04, symBinAddr: 0x100013E50, symSize: 0x14 }
  - { offsetInCU: 0x312EE, offset: 0x312EE, size: 0x8, addend: 0x0, symName: __ZNSt3__122__compressed_pair_elemINS_9allocatorIcEELi1ELb1EEC2B8ue170006ENS_18__default_init_tagE, symObjAddr: 0xFE18, symBinAddr: 0x100013E64, symSize: 0x2C }
  - { offsetInCU: 0x31322, offset: 0x31322, size: 0x8, addend: 0x0, symName: __ZNSt3__19allocatorIcEC2B8ue170006Ev, symObjAddr: 0xFE44, symBinAddr: 0x100013E90, symSize: 0x2C }
  - { offsetInCU: 0x3134C, offset: 0x3134C, size: 0x8, addend: 0x0, symName: __ZNSt3__116__non_trivial_ifILb1ENS_9allocatorIcEEEC2B8ue170006Ev, symObjAddr: 0xFE70, symBinAddr: 0x100013EBC, symSize: 0x14 }
  - { offsetInCU: 0x31376, offset: 0x31376, size: 0x8, addend: 0x0, symName: __ZNSt3__117__compressed_pairINS_12basic_stringIcNS_11char_traitsIcEENS_9allocatorIcEEE5__repES5_E5firstB8ue170006Ev, symObjAddr: 0xFE84, symBinAddr: 0x100013ED0, symSize: 0x24 }
  - { offsetInCU: 0x3139C, offset: 0x3139C, size: 0x8, addend: 0x0, symName: __ZNSt3__122__compressed_pair_elemINS_12basic_stringIcNS_11char_traitsIcEENS_9allocatorIcEEE5__repELi0ELb0EE5__getB8ue170006Ev, symObjAddr: 0xFEA8, symBinAddr: 0x100013EF4, symSize: 0x14 }
  - { offsetInCU: 0x313E5, offset: 0x313E5, size: 0x8, addend: 0x0, symName: __ZNKSt3__113basic_ostreamIcNS_11char_traitsIcEEE6sentrycvbB8ue170006Ev, symObjAddr: 0x100A8, symBinAddr: 0x1000140F4, symSize: 0x1C }
  - { offsetInCU: 0x3140B, offset: 0x3140B, size: 0x8, addend: 0x0, symName: __ZNSt3__119ostreambuf_iteratorIcNS_11char_traitsIcEEEC1B8ue170006ERNS_13basic_ostreamIcS2_EE, symObjAddr: 0x10304, symBinAddr: 0x100014350, symSize: 0x34 }
  - { offsetInCU: 0x31443, offset: 0x31443, size: 0x8, addend: 0x0, symName: __ZNKSt3__18ios_base5flagsB8ue170006Ev, symObjAddr: 0x10338, symBinAddr: 0x100014384, symSize: 0x18 }
  - { offsetInCU: 0x3146B, offset: 0x3146B, size: 0x8, addend: 0x0, symName: __ZNKSt3__19basic_iosIcNS_11char_traitsIcEEE4fillB8ue170006Ev, symObjAddr: 0x10350, symBinAddr: 0x10001439C, symSize: 0x64 }
  - { offsetInCU: 0x31493, offset: 0x31493, size: 0x8, addend: 0x0, symName: __ZNKSt3__119ostreambuf_iteratorIcNS_11char_traitsIcEEE6failedB8ue170006Ev, symObjAddr: 0x103B4, symBinAddr: 0x100014400, symSize: 0x24 }
  - { offsetInCU: 0x314B9, offset: 0x314B9, size: 0x8, addend: 0x0, symName: __ZNSt3__19basic_iosIcNS_11char_traitsIcEEE8setstateB8ue170006Ej, symObjAddr: 0x103D8, symBinAddr: 0x100014424, symSize: 0x2C }
  - { offsetInCU: 0x314EE, offset: 0x314EE, size: 0x8, addend: 0x0, symName: __ZNKSt3__18ios_base5widthB8ue170006Ev, symObjAddr: 0x10404, symBinAddr: 0x100014450, symSize: 0x18 }
  - { offsetInCU: 0x31516, offset: 0x31516, size: 0x8, addend: 0x0, symName: __ZNSt3__115basic_streambufIcNS_11char_traitsIcEEE5sputnB8ue170006EPKcl, symObjAddr: 0x1041C, symBinAddr: 0x100014468, symSize: 0x3C }
  - { offsetInCU: 0x31558, offset: 0x31558, size: 0x8, addend: 0x0, symName: __ZNSt3__112basic_stringIcNS_11char_traitsIcEENS_9allocatorIcEEEC1B8ue170006Emc, symObjAddr: 0x10458, symBinAddr: 0x1000144A4, symSize: 0x3C }
  - { offsetInCU: 0x315A0, offset: 0x315A0, size: 0x8, addend: 0x0, symName: __ZNKSt3__112basic_stringIcNS_11char_traitsIcEENS_9allocatorIcEEE4dataB8ue170006Ev, symObjAddr: 0x10494, symBinAddr: 0x1000144E0, symSize: 0x28 }
  - { offsetInCU: 0x315C6, offset: 0x315C6, size: 0x8, addend: 0x0, symName: __ZNSt3__18ios_base5widthB8ue170006El, symObjAddr: 0x104BC, symBinAddr: 0x100014508, symSize: 0x2C }
  - { offsetInCU: 0x3160C, offset: 0x3160C, size: 0x8, addend: 0x0, symName: __ZNSt3__112basic_stringIcNS_11char_traitsIcEENS_9allocatorIcEEEC2B8ue170006Emc, symObjAddr: 0x104E8, symBinAddr: 0x100014534, symSize: 0x4C }
  - { offsetInCU: 0x31654, offset: 0x31654, size: 0x8, addend: 0x0, symName: __ZNKSt3__112basic_stringIcNS_11char_traitsIcEENS_9allocatorIcEEE13__get_pointerB8ue170006Ev, symObjAddr: 0x10548, symBinAddr: 0x100014594, symSize: 0x54 }
  - { offsetInCU: 0x3167A, offset: 0x3167A, size: 0x8, addend: 0x0, symName: __ZNKSt3__112basic_stringIcNS_11char_traitsIcEENS_9allocatorIcEEE9__is_longB8ue170006Ev, symObjAddr: 0x1059C, symBinAddr: 0x1000145E8, symSize: 0x38 }
  - { offsetInCU: 0x316A0, offset: 0x316A0, size: 0x8, addend: 0x0, symName: __ZNKSt3__112basic_stringIcNS_11char_traitsIcEENS_9allocatorIcEEE18__get_long_pointerB8ue170006Ev, symObjAddr: 0x105D4, symBinAddr: 0x100014620, symSize: 0x28 }
  - { offsetInCU: 0x316C6, offset: 0x316C6, size: 0x8, addend: 0x0, symName: __ZNKSt3__112basic_stringIcNS_11char_traitsIcEENS_9allocatorIcEEE19__get_short_pointerB8ue170006Ev, symObjAddr: 0x105FC, symBinAddr: 0x100014648, symSize: 0x28 }
  - { offsetInCU: 0x316EC, offset: 0x316EC, size: 0x8, addend: 0x0, symName: __ZNKSt3__117__compressed_pairINS_12basic_stringIcNS_11char_traitsIcEENS_9allocatorIcEEE5__repES5_E5firstB8ue170006Ev, symObjAddr: 0x10624, symBinAddr: 0x100014670, symSize: 0x24 }
  - { offsetInCU: 0x31712, offset: 0x31712, size: 0x8, addend: 0x0, symName: __ZNKSt3__122__compressed_pair_elemINS_12basic_stringIcNS_11char_traitsIcEENS_9allocatorIcEEE5__repELi0ELb0EE5__getB8ue170006Ev, symObjAddr: 0x10648, symBinAddr: 0x100014694, symSize: 0x14 }
  - { offsetInCU: 0x31738, offset: 0x31738, size: 0x8, addend: 0x0, symName: __ZNSt3__114pointer_traitsIPKcE10pointer_toB8ue170006ERS1_, symObjAddr: 0x1065C, symBinAddr: 0x1000146A8, symSize: 0x14 }
  - { offsetInCU: 0x3175B, offset: 0x3175B, size: 0x8, addend: 0x0, symName: __ZNSt3__119ostreambuf_iteratorIcNS_11char_traitsIcEEEC2B8ue170006ERNS_13basic_ostreamIcS2_EE, symObjAddr: 0x10670, symBinAddr: 0x1000146BC, symSize: 0x54 }
  - { offsetInCU: 0x31793, offset: 0x31793, size: 0x8, addend: 0x0, symName: __ZNKSt3__19basic_iosIcNS_11char_traitsIcEEE5rdbufB8ue170006Ev, symObjAddr: 0x106C4, symBinAddr: 0x100014710, symSize: 0x24 }
  - { offsetInCU: 0x317BB, offset: 0x317BB, size: 0x8, addend: 0x0, symName: __ZNKSt3__18ios_base5rdbufB8ue170006Ev, symObjAddr: 0x106E8, symBinAddr: 0x100014734, symSize: 0x18 }
  - { offsetInCU: 0x317E1, offset: 0x317E1, size: 0x8, addend: 0x0, symName: __ZNSt3__111char_traitsIcE11eq_int_typeB8ue170006Eii, symObjAddr: 0x10700, symBinAddr: 0x10001474C, symSize: 0x28 }
  - { offsetInCU: 0x31814, offset: 0x31814, size: 0x8, addend: 0x0, symName: __ZNSt3__111char_traitsIcE3eofB8ue170006Ev, symObjAddr: 0x10728, symBinAddr: 0x100014774, symSize: 0x8 }
  - { offsetInCU: 0x31828, offset: 0x31828, size: 0x8, addend: 0x0, symName: __ZNKSt3__19basic_iosIcNS_11char_traitsIcEEE5widenB8ue170006Ec, symObjAddr: 0x10730, symBinAddr: 0x10001477C, symSize: 0x84 }
  - { offsetInCU: 0x31898, offset: 0x31898, size: 0x8, addend: 0x0, symName: __ZNKSt3__15ctypeIcE5widenB8ue170006Ec, symObjAddr: 0x107E0, symBinAddr: 0x10001482C, symSize: 0x38 }
  - { offsetInCU: 0x318CD, offset: 0x318CD, size: 0x8, addend: 0x0, symName: __ZNSt3__18ios_base8setstateB8ue170006Ej, symObjAddr: 0x10818, symBinAddr: 0x100014864, symSize: 0x34 }
  - { offsetInCU: 0x31904, offset: 0x31904, size: 0x8, addend: 0x0, symName: __ZNSt3__16vectorIiNS_9allocatorIiEEEC2B8ue170006Ev, symObjAddr: 0x1084C, symBinAddr: 0x100014898, symSize: 0x4C }
  - { offsetInCU: 0x3192E, offset: 0x3192E, size: 0x8, addend: 0x0, symName: __ZNSt3__117__compressed_pairIPiNS_9allocatorIiEEEC1B8ue170006IDnNS_18__default_init_tagEEEOT_OT0_, symObjAddr: 0x10898, symBinAddr: 0x1000148E4, symSize: 0x3C }
  - { offsetInCU: 0x31986, offset: 0x31986, size: 0x8, addend: 0x0, symName: __ZNSt3__117__compressed_pairIPiNS_9allocatorIiEEEC2B8ue170006IDnNS_18__default_init_tagEEEOT_OT0_, symObjAddr: 0x108D4, symBinAddr: 0x100014920, symSize: 0x40 }
  - { offsetInCU: 0x319DE, offset: 0x319DE, size: 0x8, addend: 0x0, symName: __ZNSt3__122__compressed_pair_elemIPiLi0ELb0EEC2B8ue170006IDnvEEOT_, symObjAddr: 0x10914, symBinAddr: 0x100014960, symSize: 0x1C }
  - { offsetInCU: 0x31A20, offset: 0x31A20, size: 0x8, addend: 0x0, symName: __ZNSt3__122__compressed_pair_elemINS_9allocatorIiEELi1ELb1EEC2B8ue170006ENS_18__default_init_tagE, symObjAddr: 0x10930, symBinAddr: 0x10001497C, symSize: 0x2C }
  - { offsetInCU: 0x31A54, offset: 0x31A54, size: 0x8, addend: 0x0, symName: __ZNSt3__19allocatorIiEC2B8ue170006Ev, symObjAddr: 0x1095C, symBinAddr: 0x1000149A8, symSize: 0x2C }
  - { offsetInCU: 0x31A7E, offset: 0x31A7E, size: 0x8, addend: 0x0, symName: __ZNSt3__116__non_trivial_ifILb1ENS_9allocatorIiEEEC2B8ue170006Ev, symObjAddr: 0x10988, symBinAddr: 0x1000149D4, symSize: 0x14 }
  - { offsetInCU: 0x31AA8, offset: 0x31AA8, size: 0x8, addend: 0x0, symName: __ZNSt3__16vectorIiNS_9allocatorIiEEED2B8ue170006Ev, symObjAddr: 0x1099C, symBinAddr: 0x1000149E8, symSize: 0x44 }
  - { offsetInCU: 0x31AD2, offset: 0x31AD2, size: 0x8, addend: 0x0, symName: __ZNSt3__16vectorIiNS_9allocatorIiEEE16__destroy_vectorC1B8ue170006ERS3_, symObjAddr: 0x109E0, symBinAddr: 0x100014A2C, symSize: 0x34 }
  - { offsetInCU: 0x31B0B, offset: 0x31B0B, size: 0x8, addend: 0x0, symName: __ZNSt3__16vectorIiNS_9allocatorIiEEE16__destroy_vectorclB8ue170006Ev, symObjAddr: 0x10A14, symBinAddr: 0x100014A60, symSize: 0x90 }
  - { offsetInCU: 0x31B31, offset: 0x31B31, size: 0x8, addend: 0x0, symName: __ZNSt3__16vectorIiNS_9allocatorIiEEE16__destroy_vectorC2B8ue170006ERS3_, symObjAddr: 0x10AA4, symBinAddr: 0x100014AF0, symSize: 0x20 }
  - { offsetInCU: 0x31B6A, offset: 0x31B6A, size: 0x8, addend: 0x0, symName: __ZNSt3__16vectorIiNS_9allocatorIiEEE7__clearB8ue170006Ev, symObjAddr: 0x10AC4, symBinAddr: 0x100014B10, symSize: 0x28 }
  - { offsetInCU: 0x31B90, offset: 0x31B90, size: 0x8, addend: 0x0, symName: __ZNKSt3__16vectorIiNS_9allocatorIiEEE17__annotate_deleteB8ue170006Ev, symObjAddr: 0x10AEC, symBinAddr: 0x100014B38, symSize: 0xB8 }
  - { offsetInCU: 0x31BB6, offset: 0x31BB6, size: 0x8, addend: 0x0, symName: __ZNSt3__116allocator_traitsINS_9allocatorIiEEE10deallocateB8ue170006ERS2_Pim, symObjAddr: 0x10BA4, symBinAddr: 0x100014BF0, symSize: 0x34 }
  - { offsetInCU: 0x31BF8, offset: 0x31BF8, size: 0x8, addend: 0x0, symName: __ZNSt3__16vectorIiNS_9allocatorIiEEE7__allocB8ue170006Ev, symObjAddr: 0x10BD8, symBinAddr: 0x100014C24, symSize: 0x28 }
  - { offsetInCU: 0x31C1E, offset: 0x31C1E, size: 0x8, addend: 0x0, symName: __ZNKSt3__16vectorIiNS_9allocatorIiEEE8capacityB8ue170006Ev, symObjAddr: 0x10C00, symBinAddr: 0x100014C4C, symSize: 0x40 }
  - { offsetInCU: 0x31C44, offset: 0x31C44, size: 0x8, addend: 0x0, symName: __ZNSt3__16vectorIiNS_9allocatorIiEEE22__base_destruct_at_endB8ue170006EPi, symObjAddr: 0x10C40, symBinAddr: 0x100014C8C, symSize: 0x8C }
  - { offsetInCU: 0x31C88, offset: 0x31C88, size: 0x8, addend: 0x0, symName: __ZNSt3__116allocator_traitsINS_9allocatorIiEEE7destroyB8ue170006IivEEvRS2_PT_, symObjAddr: 0x10CCC, symBinAddr: 0x100014D18, symSize: 0x2C }
  - { offsetInCU: 0x31CC5, offset: 0x31CC5, size: 0x8, addend: 0x0, symName: __ZNSt3__19allocatorIiE7destroyB8ue170006EPi, symObjAddr: 0x10D0C, symBinAddr: 0x100014D58, symSize: 0x14 }
  - { offsetInCU: 0x31CF9, offset: 0x31CF9, size: 0x8, addend: 0x0, symName: __ZNKSt3__16vectorIiNS_9allocatorIiEEE31__annotate_contiguous_containerB8ue170006EPKvS5_S5_S5_, symObjAddr: 0x10D20, symBinAddr: 0x100014D6C, symSize: 0x20 }
  - { offsetInCU: 0x31D4F, offset: 0x31D4F, size: 0x8, addend: 0x0, symName: __ZNKSt3__16vectorIiNS_9allocatorIiEEE4dataB8ue170006Ev, symObjAddr: 0x10D40, symBinAddr: 0x100014D8C, symSize: 0x28 }
  - { offsetInCU: 0x31D75, offset: 0x31D75, size: 0x8, addend: 0x0, symName: __ZNSt3__19allocatorIiE10deallocateB8ue170006EPim, symObjAddr: 0x10D68, symBinAddr: 0x100014DB4, symSize: 0x40 }
  - { offsetInCU: 0x31DB7, offset: 0x31DB7, size: 0x8, addend: 0x0, symName: __ZNSt3__117__compressed_pairIPiNS_9allocatorIiEEE6secondB8ue170006Ev, symObjAddr: 0x10DA8, symBinAddr: 0x100014DF4, symSize: 0x24 }
  - { offsetInCU: 0x31DDD, offset: 0x31DDD, size: 0x8, addend: 0x0, symName: __ZNSt3__122__compressed_pair_elemINS_9allocatorIiEELi1ELb1EE5__getB8ue170006Ev, symObjAddr: 0x10DCC, symBinAddr: 0x100014E18, symSize: 0x14 }
  - { offsetInCU: 0x31E03, offset: 0x31E03, size: 0x8, addend: 0x0, symName: __ZNKSt3__16vectorIiNS_9allocatorIiEEE9__end_capB8ue170006Ev, symObjAddr: 0x10DE0, symBinAddr: 0x100014E2C, symSize: 0x28 }
  - { offsetInCU: 0x31E29, offset: 0x31E29, size: 0x8, addend: 0x0, symName: __ZNKSt3__117__compressed_pairIPiNS_9allocatorIiEEE5firstB8ue170006Ev, symObjAddr: 0x10E08, symBinAddr: 0x100014E54, symSize: 0x24 }
  - { offsetInCU: 0x31E4F, offset: 0x31E4F, size: 0x8, addend: 0x0, symName: __ZNKSt3__122__compressed_pair_elemIPiLi0ELb0EE5__getB8ue170006Ev, symObjAddr: 0x10E2C, symBinAddr: 0x100014E78, symSize: 0x14 }
  - { offsetInCU: 0x31E75, offset: 0x31E75, size: 0x8, addend: 0x0, symName: __ZNSt3__16vectorIiNS_9allocatorIiEEE9__end_capB8ue170006Ev, symObjAddr: 0x10E40, symBinAddr: 0x100014E8C, symSize: 0x28 }
  - { offsetInCU: 0x31E9B, offset: 0x31E9B, size: 0x8, addend: 0x0, symName: __ZNSt3__16vectorIiNS_9allocatorIiEEE22__construct_one_at_endB8ue170006IJRKiEEEvDpOT_, symObjAddr: 0x10E68, symBinAddr: 0x100014EB4, symSize: 0x90 }
  - { offsetInCU: 0x31EEA, offset: 0x31EEA, size: 0x8, addend: 0x0, symName: __ZNSt3__16vectorIiNS_9allocatorIiEEE21__push_back_slow_pathIRKiEEvOT_, symObjAddr: 0x10EF8, symBinAddr: 0x100014F44, symSize: 0xD8 }
  - { offsetInCU: 0x31F48, offset: 0x31F48, size: 0x8, addend: 0x0, symName: __ZNSt3__117__compressed_pairIPiNS_9allocatorIiEEE5firstB8ue170006Ev, symObjAddr: 0x10FD0, symBinAddr: 0x10001501C, symSize: 0x24 }
  - { offsetInCU: 0x31F6E, offset: 0x31F6E, size: 0x8, addend: 0x0, symName: __ZNSt3__122__compressed_pair_elemIPiLi0ELb0EE5__getB8ue170006Ev, symObjAddr: 0x10FF4, symBinAddr: 0x100015040, symSize: 0x14 }
  - { offsetInCU: 0x31FB0, offset: 0x31FB0, size: 0x8, addend: 0x0, symName: __ZNSt3__16vectorIiNS_9allocatorIiEEE21_ConstructTransactionC1B8ue170006ERS3_m, symObjAddr: 0x11008, symBinAddr: 0x100015054, symSize: 0x3C }
  - { offsetInCU: 0x31FF8, offset: 0x31FF8, size: 0x8, addend: 0x0, symName: __ZNSt3__116allocator_traitsINS_9allocatorIiEEE9constructB8ue170006IiJRKiEvEEvRS2_PT_DpOT0_, symObjAddr: 0x11044, symBinAddr: 0x100015090, symSize: 0x34 }
  - { offsetInCU: 0x3204F, offset: 0x3204F, size: 0x8, addend: 0x0, symName: __ZNSt3__16vectorIiNS_9allocatorIiEEE21_ConstructTransactionD1B8ue170006Ev, symObjAddr: 0x11078, symBinAddr: 0x1000150C4, symSize: 0x2C }
  - { offsetInCU: 0x32079, offset: 0x32079, size: 0x8, addend: 0x0, symName: __ZNSt3__16vectorIiNS_9allocatorIiEEE21_ConstructTransactionC2B8ue170006ERS3_m, symObjAddr: 0x110A4, symBinAddr: 0x1000150F0, symSize: 0x44 }
  - { offsetInCU: 0x320C1, offset: 0x320C1, size: 0x8, addend: 0x0, symName: __ZNSt3__19allocatorIiE9constructB8ue170006IiJRKiEEEvPT_DpOT0_, symObjAddr: 0x110E8, symBinAddr: 0x100015134, symSize: 0x28 }
  - { offsetInCU: 0x32117, offset: 0x32117, size: 0x8, addend: 0x0, symName: __ZNSt3__16vectorIiNS_9allocatorIiEEE21_ConstructTransactionD2B8ue170006Ev, symObjAddr: 0x11110, symBinAddr: 0x10001515C, symSize: 0x20 }
  - { offsetInCU: 0x32141, offset: 0x32141, size: 0x8, addend: 0x0, symName: __ZNKSt3__16vectorIiNS_9allocatorIiEEE11__recommendB8ue170006Em, symObjAddr: 0x11130, symBinAddr: 0x10001517C, symSize: 0xB4 }
  - { offsetInCU: 0x32196, offset: 0x32196, size: 0x8, addend: 0x0, symName: __ZNSt3__114__split_bufferIiRNS_9allocatorIiEEEC1EmmS3_, symObjAddr: 0x111E4, symBinAddr: 0x100015230, symSize: 0x44 }
  - { offsetInCU: 0x321EC, offset: 0x321EC, size: 0x8, addend: 0x0, symName: __ZNSt3__114__split_bufferIiRNS_9allocatorIiEEED1Ev, symObjAddr: 0x11338, symBinAddr: 0x100015384, symSize: 0x2C }
  - { offsetInCU: 0x32218, offset: 0x32218, size: 0x8, addend: 0x0, symName: __ZNKSt3__16vectorIiNS_9allocatorIiEEE8max_sizeEv, symObjAddr: 0x11364, symBinAddr: 0x1000153B0, symSize: 0x60 }
  - { offsetInCU: 0x32240, offset: 0x32240, size: 0x8, addend: 0x0, symName: __ZNKSt3__16vectorIiNS_9allocatorIiEEE20__throw_length_errorB8ue170006Ev, symObjAddr: 0x113C4, symBinAddr: 0x100015410, symSize: 0x1C }
  - { offsetInCU: 0x32271, offset: 0x32271, size: 0x8, addend: 0x0, symName: __ZNSt3__116allocator_traitsINS_9allocatorIiEEE8max_sizeB8ue170006IS2_vEEmRKS2_, symObjAddr: 0x113E0, symBinAddr: 0x10001542C, symSize: 0x24 }
  - { offsetInCU: 0x3229F, offset: 0x3229F, size: 0x8, addend: 0x0, symName: __ZNKSt3__16vectorIiNS_9allocatorIiEEE7__allocB8ue170006Ev, symObjAddr: 0x11404, symBinAddr: 0x100015450, symSize: 0x28 }
  - { offsetInCU: 0x322C5, offset: 0x322C5, size: 0x8, addend: 0x0, symName: __ZNKSt3__19allocatorIiE8max_sizeB8ue170006Ev, symObjAddr: 0x1142C, symBinAddr: 0x100015478, symSize: 0x14 }
  - { offsetInCU: 0x322EB, offset: 0x322EB, size: 0x8, addend: 0x0, symName: __ZNKSt3__117__compressed_pairIPiNS_9allocatorIiEEE6secondB8ue170006Ev, symObjAddr: 0x11440, symBinAddr: 0x10001548C, symSize: 0x24 }
  - { offsetInCU: 0x32311, offset: 0x32311, size: 0x8, addend: 0x0, symName: __ZNKSt3__122__compressed_pair_elemINS_9allocatorIiEELi1ELb1EE5__getB8ue170006Ev, symObjAddr: 0x11464, symBinAddr: 0x1000154B0, symSize: 0x14 }
  - { offsetInCU: 0x32337, offset: 0x32337, size: 0x8, addend: 0x0, symName: __ZNSt3__114__split_bufferIiRNS_9allocatorIiEEEC2EmmS3_, symObjAddr: 0x11478, symBinAddr: 0x1000154C4, symSize: 0xD4 }
  - { offsetInCU: 0x323AA, offset: 0x323AA, size: 0x8, addend: 0x0, symName: __ZNSt3__117__compressed_pairIPiRNS_9allocatorIiEEEC1B8ue170006IDnS4_EEOT_OT0_, symObjAddr: 0x1154C, symBinAddr: 0x100015598, symSize: 0x3C }
  - { offsetInCU: 0x32402, offset: 0x32402, size: 0x8, addend: 0x0, symName: __ZNSt3__114__split_bufferIiRNS_9allocatorIiEEE7__allocB8ue170006Ev, symObjAddr: 0x115C8, symBinAddr: 0x100015614, symSize: 0x28 }
  - { offsetInCU: 0x32428, offset: 0x32428, size: 0x8, addend: 0x0, symName: __ZNSt3__114__split_bufferIiRNS_9allocatorIiEEE9__end_capB8ue170006Ev, symObjAddr: 0x115F0, symBinAddr: 0x10001563C, symSize: 0x28 }
  - { offsetInCU: 0x3244E, offset: 0x3244E, size: 0x8, addend: 0x0, symName: __ZNSt3__117__compressed_pairIPiRNS_9allocatorIiEEEC2B8ue170006IDnS4_EEOT_OT0_, symObjAddr: 0x11618, symBinAddr: 0x100015664, symSize: 0x48 }
  - { offsetInCU: 0x324A6, offset: 0x324A6, size: 0x8, addend: 0x0, symName: __ZNSt3__122__compressed_pair_elemIRNS_9allocatorIiEELi1ELb0EEC2B8ue170006IS3_vEEOT_, symObjAddr: 0x11660, symBinAddr: 0x1000156AC, symSize: 0x20 }
  - { offsetInCU: 0x324E8, offset: 0x324E8, size: 0x8, addend: 0x0, symName: __ZNSt3__19allocatorIiE8allocateB8ue170006Em, symObjAddr: 0x11680, symBinAddr: 0x1000156CC, symSize: 0x58 }
  - { offsetInCU: 0x3251C, offset: 0x3251C, size: 0x8, addend: 0x0, symName: __ZNSt3__117__compressed_pairIPiRNS_9allocatorIiEEE6secondB8ue170006Ev, symObjAddr: 0x116D8, symBinAddr: 0x100015724, symSize: 0x28 }
  - { offsetInCU: 0x32542, offset: 0x32542, size: 0x8, addend: 0x0, symName: __ZNSt3__122__compressed_pair_elemIRNS_9allocatorIiEELi1ELb0EE5__getB8ue170006Ev, symObjAddr: 0x11700, symBinAddr: 0x10001574C, symSize: 0x18 }
  - { offsetInCU: 0x32568, offset: 0x32568, size: 0x8, addend: 0x0, symName: __ZNSt3__117__compressed_pairIPiRNS_9allocatorIiEEE5firstB8ue170006Ev, symObjAddr: 0x11718, symBinAddr: 0x100015764, symSize: 0x24 }
  - { offsetInCU: 0x3258E, offset: 0x3258E, size: 0x8, addend: 0x0, symName: __ZNSt3__116reverse_iteratorIPiEC1B8ue170006ES1_, symObjAddr: 0x117B4, symBinAddr: 0x100015800, symSize: 0x34 }
  - { offsetInCU: 0x325C6, offset: 0x325C6, size: 0x8, addend: 0x0, symName: __ZNKSt3__116reverse_iteratorIPiE4baseB8ue170006Ev, symObjAddr: 0x117E8, symBinAddr: 0x100015834, symSize: 0x18 }
  - { offsetInCU: 0x325EC, offset: 0x325EC, size: 0x8, addend: 0x0, symName: __ZNKSt3__16vectorIiNS_9allocatorIiEEE14__annotate_newB8ue170006Em, symObjAddr: 0x1183C, symBinAddr: 0x100015888, symSize: 0xAC }
  - { offsetInCU: 0x3263E, offset: 0x3263E, size: 0x8, addend: 0x0, symName: __ZNKSt3__111__move_loopINS_17_ClassicAlgPolicyEEclB8ue170006INS_16reverse_iteratorIPiEES6_S6_EENS_4pairIT_T1_EES8_T0_S9_, symObjAddr: 0x11BD8, symBinAddr: 0x100015C24, symSize: 0xA0 }
  - { offsetInCU: 0x326A9, offset: 0x326A9, size: 0x8, addend: 0x0, symName: __ZNSt3__18_IterOpsINS_17_ClassicAlgPolicyEE11__iter_moveB8ue170006IRNS_16reverse_iteratorIPiEEEENS_9enable_ifIXsr12is_referenceIDTdeclsr3stdE7declvalIRT_EEEEE5valueEDTclsr3stdE4movedeclsr3stdE7declvalISA_EEEEE4typeEOS9_, symObjAddr: 0x11E0C, symBinAddr: 0x100015E58, symSize: 0x28 }
  - { offsetInCU: 0x326D5, offset: 0x326D5, size: 0x8, addend: 0x0, symName: __ZNKSt3__116reverse_iteratorIPiEdeB8ue170006Ev, symObjAddr: 0x11E34, symBinAddr: 0x100015E80, symSize: 0x28 }
  - { offsetInCU: 0x32709, offset: 0x32709, size: 0x8, addend: 0x0, symName: __ZNSt3__116reverse_iteratorIPiEppB8ue170006Ev, symObjAddr: 0x11E5C, symBinAddr: 0x100015EA8, symSize: 0x20 }
  - { offsetInCU: 0x3272F, offset: 0x3272F, size: 0x8, addend: 0x0, symName: __ZNSt3__18_IterOpsINS_17_ClassicAlgPolicyEE25__validate_iter_referenceB8ue170006IRNS_16reverse_iteratorIPiEEEEvv, symObjAddr: 0x11E7C, symBinAddr: 0x100015EC8, symSize: 0x4 }
  - { offsetInCU: 0x3274D, offset: 0x3274D, size: 0x8, addend: 0x0, symName: __ZNSt3__118__unwrap_iter_implINS_16reverse_iteratorIPiEELb0EE8__unwrapB8ue170006ES3_, symObjAddr: 0x11E80, symBinAddr: 0x100015ECC, symSize: 0x24 }
  - { offsetInCU: 0x32776, offset: 0x32776, size: 0x8, addend: 0x0, symName: __ZNSt3__14pairINS_16reverse_iteratorIPiEES3_EC1B8ue170006IS3_S3_LPv0EEEOT_OT0_, symObjAddr: 0x11EA4, symBinAddr: 0x100015EF0, symSize: 0x3C }
  - { offsetInCU: 0x327D4, offset: 0x327D4, size: 0x8, addend: 0x0, symName: __ZNSt3__14pairINS_16reverse_iteratorIPiEES3_EC2B8ue170006IS3_S3_LPv0EEEOT_OT0_, symObjAddr: 0x11EE0, symBinAddr: 0x100015F2C, symSize: 0x34 }
  - { offsetInCU: 0x32832, offset: 0x32832, size: 0x8, addend: 0x0, symName: __ZNSt3__118__unwrap_iter_implINS_16reverse_iteratorIPiEELb0EE8__rewrapB8ue170006ES3_S3_, symObjAddr: 0x11F14, symBinAddr: 0x100015F60, symSize: 0x2C }
  - { offsetInCU: 0x3285F, offset: 0x3285F, size: 0x8, addend: 0x0, symName: __ZNSt3__116reverse_iteratorIPiEC2B8ue170006ES1_, symObjAddr: 0x11F40, symBinAddr: 0x100015F8C, symSize: 0x28 }
  - { offsetInCU: 0x32897, offset: 0x32897, size: 0x8, addend: 0x0, symName: __ZNSt3__114__split_bufferIiRNS_9allocatorIiEEED2Ev, symObjAddr: 0x11F68, symBinAddr: 0x100015FB4, symSize: 0x8C }
  - { offsetInCU: 0x328C3, offset: 0x328C3, size: 0x8, addend: 0x0, symName: __ZNSt3__114__split_bufferIiRNS_9allocatorIiEEE5clearB8ue170006Ev, symObjAddr: 0x11FF4, symBinAddr: 0x100016040, symSize: 0x28 }
  - { offsetInCU: 0x328E9, offset: 0x328E9, size: 0x8, addend: 0x0, symName: __ZNKSt3__114__split_bufferIiRNS_9allocatorIiEEE8capacityB8ue170006Ev, symObjAddr: 0x1201C, symBinAddr: 0x100016068, symSize: 0x40 }
  - { offsetInCU: 0x3290F, offset: 0x3290F, size: 0x8, addend: 0x0, symName: __ZNSt3__114__split_bufferIiRNS_9allocatorIiEEE17__destruct_at_endB8ue170006EPi, symObjAddr: 0x1205C, symBinAddr: 0x1000160A8, symSize: 0x2C }
  - { offsetInCU: 0x32943, offset: 0x32943, size: 0x8, addend: 0x0, symName: __ZNSt3__114__split_bufferIiRNS_9allocatorIiEEE17__destruct_at_endB8ue170006EPiNS_17integral_constantIbLb0EEE, symObjAddr: 0x12088, symBinAddr: 0x1000160D4, symSize: 0x80 }
  - { offsetInCU: 0x32983, offset: 0x32983, size: 0x8, addend: 0x0, symName: __ZNKSt3__114__split_bufferIiRNS_9allocatorIiEEE9__end_capB8ue170006Ev, symObjAddr: 0x12108, symBinAddr: 0x100016154, symSize: 0x28 }
  - { offsetInCU: 0x329A9, offset: 0x329A9, size: 0x8, addend: 0x0, symName: __ZNKSt3__117__compressed_pairIPiRNS_9allocatorIiEEE5firstB8ue170006Ev, symObjAddr: 0x12130, symBinAddr: 0x10001617C, symSize: 0x24 }
  - { offsetInCU: 0x329CF, offset: 0x329CF, size: 0x8, addend: 0x0, symName: __ZNSt3__16vectorIbNS_9allocatorIbEEEC2B8ue170006Ev, symObjAddr: 0x12154, symBinAddr: 0x1000161A0, symSize: 0x4C }
  - { offsetInCU: 0x329FB, offset: 0x329FB, size: 0x8, addend: 0x0, symName: __ZNSt3__117__compressed_pairImNS_9allocatorImEEEC1B8ue170006IiNS_18__default_init_tagEEEOT_OT0_, symObjAddr: 0x121A0, symBinAddr: 0x1000161EC, symSize: 0x3C }
  - { offsetInCU: 0x32A53, offset: 0x32A53, size: 0x8, addend: 0x0, symName: __ZNSt3__117__compressed_pairImNS_9allocatorImEEEC2B8ue170006IiNS_18__default_init_tagEEEOT_OT0_, symObjAddr: 0x121DC, symBinAddr: 0x100016228, symSize: 0x40 }
  - { offsetInCU: 0x32AAB, offset: 0x32AAB, size: 0x8, addend: 0x0, symName: __ZNSt3__122__compressed_pair_elemImLi0ELb0EEC2B8ue170006IivEEOT_, symObjAddr: 0x1221C, symBinAddr: 0x100016268, symSize: 0x24 }
  - { offsetInCU: 0x32AED, offset: 0x32AED, size: 0x8, addend: 0x0, symName: __ZNSt3__122__compressed_pair_elemINS_9allocatorImEELi1ELb1EEC2B8ue170006ENS_18__default_init_tagE, symObjAddr: 0x12240, symBinAddr: 0x10001628C, symSize: 0x2C }
  - { offsetInCU: 0x32B21, offset: 0x32B21, size: 0x8, addend: 0x0, symName: __ZNSt3__19allocatorImEC2B8ue170006Ev, symObjAddr: 0x1226C, symBinAddr: 0x1000162B8, symSize: 0x2C }
  - { offsetInCU: 0x32B4B, offset: 0x32B4B, size: 0x8, addend: 0x0, symName: __ZNSt3__116__non_trivial_ifILb1ENS_9allocatorImEEEC2B8ue170006Ev, symObjAddr: 0x12298, symBinAddr: 0x1000162E4, symSize: 0x14 }
  - { offsetInCU: 0x32B75, offset: 0x32B75, size: 0x8, addend: 0x0, symName: __ZNSt3__16vectorIbNS_9allocatorIbEEED2B8ue170006Ev, symObjAddr: 0x122AC, symBinAddr: 0x1000162F8, symSize: 0x44 }
  - { offsetInCU: 0x32B9F, offset: 0x32B9F, size: 0x8, addend: 0x0, symName: __ZNSt3__16vectorIbNS_9allocatorIbEEE16__destroy_vectorC1B8ue170006ERS3_, symObjAddr: 0x122F0, symBinAddr: 0x10001633C, symSize: 0x34 }
  - { offsetInCU: 0x32BD8, offset: 0x32BD8, size: 0x8, addend: 0x0, symName: __ZNSt3__16vectorIbNS_9allocatorIbEEE16__destroy_vectorclB8ue170006Ev, symObjAddr: 0x12324, symBinAddr: 0x100016370, symSize: 0x7C }
  - { offsetInCU: 0x32BFE, offset: 0x32BFE, size: 0x8, addend: 0x0, symName: __ZNSt3__16vectorIbNS_9allocatorIbEEE16__destroy_vectorC2B8ue170006ERS3_, symObjAddr: 0x123A0, symBinAddr: 0x1000163EC, symSize: 0x20 }
  - { offsetInCU: 0x32C37, offset: 0x32C37, size: 0x8, addend: 0x0, symName: __ZNSt3__116allocator_traitsINS_9allocatorImEEE10deallocateB8ue170006ERS2_Pmm, symObjAddr: 0x123C0, symBinAddr: 0x10001640C, symSize: 0x34 }
  - { offsetInCU: 0x32C79, offset: 0x32C79, size: 0x8, addend: 0x0, symName: __ZNSt3__16vectorIbNS_9allocatorIbEEE7__allocB8ue170006Ev, symObjAddr: 0x123F4, symBinAddr: 0x100016440, symSize: 0x28 }
  - { offsetInCU: 0x32C9F, offset: 0x32C9F, size: 0x8, addend: 0x0, symName: __ZNSt3__16vectorIbNS_9allocatorIbEEE5__capB8ue170006Ev, symObjAddr: 0x1241C, symBinAddr: 0x100016468, symSize: 0x28 }
  - { offsetInCU: 0x32CC5, offset: 0x32CC5, size: 0x8, addend: 0x0, symName: __ZNSt3__19allocatorImE10deallocateB8ue170006EPmm, symObjAddr: 0x12444, symBinAddr: 0x100016490, symSize: 0x40 }
  - { offsetInCU: 0x32D07, offset: 0x32D07, size: 0x8, addend: 0x0, symName: __ZNSt3__117__compressed_pairImNS_9allocatorImEEE6secondB8ue170006Ev, symObjAddr: 0x12484, symBinAddr: 0x1000164D0, symSize: 0x24 }
  - { offsetInCU: 0x32D2D, offset: 0x32D2D, size: 0x8, addend: 0x0, symName: __ZNSt3__122__compressed_pair_elemINS_9allocatorImEELi1ELb1EE5__getB8ue170006Ev, symObjAddr: 0x124A8, symBinAddr: 0x1000164F4, symSize: 0x14 }
  - { offsetInCU: 0x32D53, offset: 0x32D53, size: 0x8, addend: 0x0, symName: __ZNSt3__117__compressed_pairImNS_9allocatorImEEE5firstB8ue170006Ev, symObjAddr: 0x124BC, symBinAddr: 0x100016508, symSize: 0x24 }
  - { offsetInCU: 0x32D79, offset: 0x32D79, size: 0x8, addend: 0x0, symName: __ZNSt3__122__compressed_pair_elemImLi0ELb0EE5__getB8ue170006Ev, symObjAddr: 0x124E0, symBinAddr: 0x10001652C, symSize: 0x14 }
  - { offsetInCU: 0x32D9F, offset: 0x32D9F, size: 0x8, addend: 0x0, symName: __ZNKSt3__16vectorIbNS_9allocatorIbEEE8capacityB8ue170006Ev, symObjAddr: 0x124F4, symBinAddr: 0x100016540, symSize: 0x2C }
  - { offsetInCU: 0x32DC5, offset: 0x32DC5, size: 0x8, addend: 0x0, symName: __ZNKSt3__16vectorIbNS_9allocatorIbEEE8max_sizeEv, symObjAddr: 0x12520, symBinAddr: 0x10001656C, symSize: 0x7C }
  - { offsetInCU: 0x32E0B, offset: 0x32E0B, size: 0x8, addend: 0x0, symName: __ZNKSt3__16vectorIbNS_9allocatorIbEEE20__throw_length_errorB8ue170006Ev, symObjAddr: 0x1259C, symBinAddr: 0x1000165E8, symSize: 0x1C }
  - { offsetInCU: 0x32E31, offset: 0x32E31, size: 0x8, addend: 0x0, symName: __ZNKSt3__16vectorIbNS_9allocatorIbEEE13get_allocatorB8ue170006Ev, symObjAddr: 0x125B8, symBinAddr: 0x100016604, symSize: 0x30 }
  - { offsetInCU: 0x32E57, offset: 0x32E57, size: 0x8, addend: 0x0, symName: __ZNSt3__16vectorIbNS_9allocatorIbEEEC1B8ue170006ERKS2_, symObjAddr: 0x125E8, symBinAddr: 0x100016634, symSize: 0x34 }
  - { offsetInCU: 0x32E92, offset: 0x32E92, size: 0x8, addend: 0x0, symName: __ZNSt3__16vectorIbNS_9allocatorIbEEE11__vallocateB8ue170006Em, symObjAddr: 0x1261C, symBinAddr: 0x100016668, symSize: 0xA0 }
  - { offsetInCU: 0x32ED6, offset: 0x32ED6, size: 0x8, addend: 0x0, symName: __ZNSt3__16vectorIbNS_9allocatorIbEEE18__construct_at_endINS_14__bit_iteratorIS3_Lb0ELm0EEES6_EEvT_T0_m, symObjAddr: 0x126BC, symBinAddr: 0x100016708, symSize: 0x12C }
  - { offsetInCU: 0x32F4E, offset: 0x32F4E, size: 0x8, addend: 0x0, symName: __ZNSt3__16vectorIbNS_9allocatorIbEEE5beginB8ue170006Ev, symObjAddr: 0x127E8, symBinAddr: 0x100016834, symSize: 0x30 }
  - { offsetInCU: 0x32F74, offset: 0x32F74, size: 0x8, addend: 0x0, symName: __ZNSt3__16vectorIbNS_9allocatorIbEEE3endB8ue170006Ev, symObjAddr: 0x12818, symBinAddr: 0x100016864, symSize: 0x30 }
  - { offsetInCU: 0x32F9A, offset: 0x32F9A, size: 0x8, addend: 0x0, symName: __ZNSt3__16vectorIbNS_9allocatorIbEEE4swapERS3_, symObjAddr: 0x12848, symBinAddr: 0x100016894, symSize: 0x84 }
  - { offsetInCU: 0x32FD1, offset: 0x32FD1, size: 0x8, addend: 0x0, symName: __ZNSt3__16vectorIbNS_9allocatorIbEEE26__internal_cap_to_externalB8ue170006Em, symObjAddr: 0x128CC, symBinAddr: 0x100016918, symSize: 0x18 }
  - { offsetInCU: 0x32FF5, offset: 0x32FF5, size: 0x8, addend: 0x0, symName: __ZNKSt3__16vectorIbNS_9allocatorIbEEE5__capB8ue170006Ev, symObjAddr: 0x128E4, symBinAddr: 0x100016930, symSize: 0x28 }
  - { offsetInCU: 0x3301B, offset: 0x3301B, size: 0x8, addend: 0x0, symName: __ZNKSt3__117__compressed_pairImNS_9allocatorImEEE5firstB8ue170006Ev, symObjAddr: 0x1290C, symBinAddr: 0x100016958, symSize: 0x24 }
  - { offsetInCU: 0x33041, offset: 0x33041, size: 0x8, addend: 0x0, symName: __ZNKSt3__122__compressed_pair_elemImLi0ELb0EE5__getB8ue170006Ev, symObjAddr: 0x12930, symBinAddr: 0x10001697C, symSize: 0x14 }
  - { offsetInCU: 0x33072, offset: 0x33072, size: 0x8, addend: 0x0, symName: __ZNSt3__116allocator_traitsINS_9allocatorImEEE8max_sizeB8ue170006IS2_vEEmRKS2_, symObjAddr: 0x12944, symBinAddr: 0x100016990, symSize: 0x24 }
  - { offsetInCU: 0x330A0, offset: 0x330A0, size: 0x8, addend: 0x0, symName: __ZNKSt3__16vectorIbNS_9allocatorIbEEE7__allocB8ue170006Ev, symObjAddr: 0x12968, symBinAddr: 0x1000169B4, symSize: 0x28 }
  - { offsetInCU: 0x330C6, offset: 0x330C6, size: 0x8, addend: 0x0, symName: __ZNSt3__114numeric_limitsImE3maxB8ue170006Ev, symObjAddr: 0x12990, symBinAddr: 0x1000169DC, symSize: 0x14 }
  - { offsetInCU: 0x330DA, offset: 0x330DA, size: 0x8, addend: 0x0, symName: __ZNKSt3__19allocatorImE8max_sizeB8ue170006Ev, symObjAddr: 0x129A4, symBinAddr: 0x1000169F0, symSize: 0x14 }
  - { offsetInCU: 0x33100, offset: 0x33100, size: 0x8, addend: 0x0, symName: __ZNKSt3__117__compressed_pairImNS_9allocatorImEEE6secondB8ue170006Ev, symObjAddr: 0x129B8, symBinAddr: 0x100016A04, symSize: 0x24 }
  - { offsetInCU: 0x33126, offset: 0x33126, size: 0x8, addend: 0x0, symName: __ZNKSt3__122__compressed_pair_elemINS_9allocatorImEELi1ELb1EE5__getB8ue170006Ev, symObjAddr: 0x129DC, symBinAddr: 0x100016A28, symSize: 0x14 }
  - { offsetInCU: 0x3314C, offset: 0x3314C, size: 0x8, addend: 0x0, symName: __ZNSt3__123__libcpp_numeric_limitsImLb1EE3maxB8ue170006Ev, symObjAddr: 0x129F0, symBinAddr: 0x100016A3C, symSize: 0x8 }
  - { offsetInCU: 0x33160, offset: 0x33160, size: 0x8, addend: 0x0, symName: __ZNSt3__19allocatorIbEC1B8ue170006ImEERKNS0_IT_EE, symObjAddr: 0x129F8, symBinAddr: 0x100016A44, symSize: 0x34 }
  - { offsetInCU: 0x3319D, offset: 0x3319D, size: 0x8, addend: 0x0, symName: __ZNSt3__19allocatorIbEC2B8ue170006ImEERKNS0_IT_EE, symObjAddr: 0x12A2C, symBinAddr: 0x100016A78, symSize: 0x30 }
  - { offsetInCU: 0x331DA, offset: 0x331DA, size: 0x8, addend: 0x0, symName: __ZNSt3__116__non_trivial_ifILb1ENS_9allocatorIbEEEC2B8ue170006Ev, symObjAddr: 0x12A5C, symBinAddr: 0x100016AA8, symSize: 0x14 }
  - { offsetInCU: 0x33204, offset: 0x33204, size: 0x8, addend: 0x0, symName: __ZNSt3__16vectorIbNS_9allocatorIbEEEC2B8ue170006ERKS2_, symObjAddr: 0x12A70, symBinAddr: 0x100016ABC, symSize: 0x6C }
  - { offsetInCU: 0x33245, offset: 0x33245, size: 0x8, addend: 0x0, symName: __ZNSt3__19allocatorImEC1B8ue170006IbEERKNS0_IT_EE, symObjAddr: 0x12ADC, symBinAddr: 0x100016B28, symSize: 0x34 }
  - { offsetInCU: 0x33288, offset: 0x33288, size: 0x8, addend: 0x0, symName: __ZNSt3__117__compressed_pairImNS_9allocatorImEEEC1B8ue170006IiS2_EEOT_OT0_, symObjAddr: 0x12B10, symBinAddr: 0x100016B5C, symSize: 0x3C }
  - { offsetInCU: 0x332E0, offset: 0x332E0, size: 0x8, addend: 0x0, symName: __ZNSt3__19allocatorImEC2B8ue170006IbEERKNS0_IT_EE, symObjAddr: 0x12B4C, symBinAddr: 0x100016B98, symSize: 0x30 }
  - { offsetInCU: 0x3331D, offset: 0x3331D, size: 0x8, addend: 0x0, symName: __ZNSt3__117__compressed_pairImNS_9allocatorImEEEC2B8ue170006IiS2_EEOT_OT0_, symObjAddr: 0x12B7C, symBinAddr: 0x100016BC8, symSize: 0x44 }
  - { offsetInCU: 0x33375, offset: 0x33375, size: 0x8, addend: 0x0, symName: __ZNSt3__122__compressed_pair_elemINS_9allocatorImEELi1ELb1EEC2B8ue170006IS2_vEEOT_, symObjAddr: 0x12BC0, symBinAddr: 0x100016C0C, symSize: 0x18 }
  - { offsetInCU: 0x333B7, offset: 0x333B7, size: 0x8, addend: 0x0, symName: __ZNSt3__16vectorIbNS_9allocatorIbEEE26__external_cap_to_internalB8ue170006Em, symObjAddr: 0x12C18, symBinAddr: 0x100016C64, symSize: 0x24 }
  - { offsetInCU: 0x333DB, offset: 0x333DB, size: 0x8, addend: 0x0, symName: __ZNSt3__19allocatorImE8allocateB8ue170006Em, symObjAddr: 0x12C3C, symBinAddr: 0x100016C88, symSize: 0x58 }
  - { offsetInCU: 0x3340F, offset: 0x3340F, size: 0x8, addend: 0x0, symName: __ZNSt3__114__bit_iteratorINS_6vectorIbNS_9allocatorIbEEEELb0ELm0EEC1B8ue170006ERKS5_, symObjAddr: 0x12D1C, symBinAddr: 0x100016D68, symSize: 0x34 }
  - { offsetInCU: 0x33448, offset: 0x33448, size: 0x8, addend: 0x0, symName: __ZNSt3__16vectorIbNS_9allocatorIbEEE11__make_iterB8ue170006Em, symObjAddr: 0x12D50, symBinAddr: 0x100016D9C, symSize: 0x64 }
  - { offsetInCU: 0x3349A, offset: 0x3349A, size: 0x8, addend: 0x0, symName: __ZNKSt3__111__copy_loopINS_17_ClassicAlgPolicyEEclB8ue170006INS_14__bit_iteratorINS_6vectorIbNS_9allocatorIbEEEELb0ELm0EEES9_S9_EENS_4pairIT_T1_EESB_T0_SC_, symObjAddr: 0x13024, symBinAddr: 0x100017070, symSize: 0xB8 }
  - { offsetInCU: 0x33508, offset: 0x33508, size: 0x8, addend: 0x0, symName: __ZNKSt3__114__bit_iteratorINS_6vectorIbNS_9allocatorIbEEEELb0ELm0EEdeB8ue170006Ev, symObjAddr: 0x13274, symBinAddr: 0x1000172C0, symSize: 0x44 }
  - { offsetInCU: 0x3352E, offset: 0x3352E, size: 0x8, addend: 0x0, symName: __ZNSt3__115__bit_referenceINS_6vectorIbNS_9allocatorIbEEEELb1EEaSB8ue170006ERKS5_, symObjAddr: 0x132B8, symBinAddr: 0x100017304, symSize: 0x40 }
  - { offsetInCU: 0x33562, offset: 0x33562, size: 0x8, addend: 0x0, symName: __ZNSt3__114__bit_iteratorINS_6vectorIbNS_9allocatorIbEEEELb0ELm0EEppB8ue170006Ev, symObjAddr: 0x132F8, symBinAddr: 0x100017344, symSize: 0x5C }
  - { offsetInCU: 0x33588, offset: 0x33588, size: 0x8, addend: 0x0, symName: __ZNSt3__115__bit_referenceINS_6vectorIbNS_9allocatorIbEEEELb1EEaSB8ue170006Eb, symObjAddr: 0x133B8, symBinAddr: 0x100017404, symSize: 0x6C }
  - { offsetInCU: 0x335BC, offset: 0x335BC, size: 0x8, addend: 0x0, symName: __ZNSt3__118__unwrap_iter_implINS_14__bit_iteratorINS_6vectorIbNS_9allocatorIbEEEELb0ELm0EEELb0EE8__unwrapB8ue170006ES6_, symObjAddr: 0x13424, symBinAddr: 0x100017470, symSize: 0x38 }
  - { offsetInCU: 0x335E6, offset: 0x335E6, size: 0x8, addend: 0x0, symName: __ZNSt3__14pairINS_14__bit_iteratorINS_6vectorIbNS_9allocatorIbEEEELb0ELm0EEES6_EC1B8ue170006IS6_S6_LPv0EEEOT_OT0_, symObjAddr: 0x1345C, symBinAddr: 0x1000174A8, symSize: 0x3C }
  - { offsetInCU: 0x33644, offset: 0x33644, size: 0x8, addend: 0x0, symName: __ZNSt3__14pairINS_14__bit_iteratorINS_6vectorIbNS_9allocatorIbEEEELb0ELm0EEES6_EC2B8ue170006IS6_S6_LPv0EEEOT_OT0_, symObjAddr: 0x13498, symBinAddr: 0x1000174E4, symSize: 0x48 }
  - { offsetInCU: 0x336A2, offset: 0x336A2, size: 0x8, addend: 0x0, symName: __ZNSt3__118__unwrap_iter_implINS_14__bit_iteratorINS_6vectorIbNS_9allocatorIbEEEELb0ELm0EEELb0EE8__rewrapB8ue170006ES6_S6_, symObjAddr: 0x134E0, symBinAddr: 0x10001752C, symSize: 0x3C }
  - { offsetInCU: 0x336D1, offset: 0x336D1, size: 0x8, addend: 0x0, symName: __ZNSt3__114__bit_iteratorINS_6vectorIbNS_9allocatorIbEEEELb0ELm0EEC2B8ue170006ERKS5_, symObjAddr: 0x1351C, symBinAddr: 0x100017568, symSize: 0x30 }
  - { offsetInCU: 0x3370A, offset: 0x3370A, size: 0x8, addend: 0x0, symName: __ZNSt3__114__bit_iteratorINS_6vectorIbNS_9allocatorIbEEEELb0ELm0EEC1B8ue170006EPmj, symObjAddr: 0x1354C, symBinAddr: 0x100017598, symSize: 0x3C }
  - { offsetInCU: 0x33752, offset: 0x33752, size: 0x8, addend: 0x0, symName: __ZNSt3__114__bit_iteratorINS_6vectorIbNS_9allocatorIbEEEELb0ELm0EEC2B8ue170006EPmj, symObjAddr: 0x13588, symBinAddr: 0x1000175D4, symSize: 0x2C }
  - { offsetInCU: 0x3379A, offset: 0x3379A, size: 0x8, addend: 0x0, symName: __ZNSt3__16vectorIbNS_9allocatorIbEEEC2ERKS3_, symObjAddr: 0x13640, symBinAddr: 0x10001768C, symSize: 0xDC }
  - { offsetInCU: 0x337D5, offset: 0x337D5, size: 0x8, addend: 0x0, symName: __ZNSt3__116allocator_traitsINS_9allocatorImEEE37select_on_container_copy_constructionB8ue170006IS2_vvEES2_RKS2_, symObjAddr: 0x1371C, symBinAddr: 0x100017768, symSize: 0x10 }
  - { offsetInCU: 0x33804, offset: 0x33804, size: 0x8, addend: 0x0, symName: __ZNSt3__16vectorIbNS_9allocatorIbEEE18__construct_at_endINS_14__bit_iteratorIS3_Lb1ELm0EEES6_EEvT_T0_m, symObjAddr: 0x1372C, symBinAddr: 0x100017778, symSize: 0x124 }
  - { offsetInCU: 0x3387A, offset: 0x3387A, size: 0x8, addend: 0x0, symName: __ZNKSt3__16vectorIbNS_9allocatorIbEEE5beginB8ue170006Ev, symObjAddr: 0x13850, symBinAddr: 0x10001789C, symSize: 0x38 }
  - { offsetInCU: 0x338A0, offset: 0x338A0, size: 0x8, addend: 0x0, symName: __ZNKSt3__16vectorIbNS_9allocatorIbEEE3endB8ue170006Ev, symObjAddr: 0x13888, symBinAddr: 0x1000178D4, symSize: 0x38 }
  - { offsetInCU: 0x338E3, offset: 0x338E3, size: 0x8, addend: 0x0, symName: __ZNKSt3__111__copy_loopINS_17_ClassicAlgPolicyEEclB8ue170006INS_14__bit_iteratorINS_6vectorIbNS_9allocatorIbEEEELb1ELm0EEES9_NS4_IS8_Lb0ELm0EEEEENS_4pairIT_T1_EESC_T0_SD_, symObjAddr: 0x13B8C, symBinAddr: 0x100017BD8, symSize: 0xC4 }
  - { offsetInCU: 0x33972, offset: 0x33972, size: 0x8, addend: 0x0, symName: __ZNSt3__14pairINS_14__bit_iteratorINS_6vectorIbNS_9allocatorIbEEEELb1ELm0EEES6_EC1B8ue170006IS6_S6_LPv0EEEOT_OT0_, symObjAddr: 0x13D68, symBinAddr: 0x100017DB4, symSize: 0x3C }
  - { offsetInCU: 0x339D0, offset: 0x339D0, size: 0x8, addend: 0x0, symName: __ZNSt3__14pairINS_14__bit_iteratorINS_6vectorIbNS_9allocatorIbEEEELb1ELm0EEES6_EC2B8ue170006IS6_S6_LPv0EEEOT_OT0_, symObjAddr: 0x13DA4, symBinAddr: 0x100017DF0, symSize: 0x34 }
  - { offsetInCU: 0x33A2E, offset: 0x33A2E, size: 0x8, addend: 0x0, symName: __ZNSt3__118__unwrap_iter_implINS_14__bit_iteratorINS_6vectorIbNS_9allocatorIbEEEELb1ELm0EEELb0EE8__unwrapB8ue170006ES6_, symObjAddr: 0x13DD8, symBinAddr: 0x100017E24, symSize: 0x24 }
  - { offsetInCU: 0x33A51, offset: 0x33A51, size: 0x8, addend: 0x0, symName: __ZNKSt3__114__bit_iteratorINS_6vectorIbNS_9allocatorIbEEEELb1ELm0EEdeB8ue170006Ev, symObjAddr: 0x13E30, symBinAddr: 0x100017E7C, symSize: 0x44 }
  - { offsetInCU: 0x33A77, offset: 0x33A77, size: 0x8, addend: 0x0, symName: __ZNKSt3__121__bit_const_referenceINS_6vectorIbNS_9allocatorIbEEEEEcvbB8ue170006Ev, symObjAddr: 0x13E74, symBinAddr: 0x100017EC0, symSize: 0x2C }
  - { offsetInCU: 0x33A9D, offset: 0x33A9D, size: 0x8, addend: 0x0, symName: __ZNSt3__114__bit_iteratorINS_6vectorIbNS_9allocatorIbEEEELb1ELm0EEppB8ue170006Ev, symObjAddr: 0x13EA0, symBinAddr: 0x100017EEC, symSize: 0x5C }
  - { offsetInCU: 0x33AC3, offset: 0x33AC3, size: 0x8, addend: 0x0, symName: __ZNSt3__121__bit_const_referenceINS_6vectorIbNS_9allocatorIbEEEEEC1B8ue170006EPKmm, symObjAddr: 0x13F60, symBinAddr: 0x100017FAC, symSize: 0x3C }
  - { offsetInCU: 0x33B09, offset: 0x33B09, size: 0x8, addend: 0x0, symName: __ZNSt3__121__bit_const_referenceINS_6vectorIbNS_9allocatorIbEEEEEC2B8ue170006EPKmm, symObjAddr: 0x13F9C, symBinAddr: 0x100017FE8, symSize: 0x2C }
  - { offsetInCU: 0x33B4F, offset: 0x33B4F, size: 0x8, addend: 0x0, symName: __ZNSt3__14pairINS_14__bit_iteratorINS_6vectorIbNS_9allocatorIbEEEELb1ELm0EEENS1_IS5_Lb0ELm0EEEEC1B8ue170006IS6_S7_LPv0EEEOT_OT0_, symObjAddr: 0x13FC8, symBinAddr: 0x100018014, symSize: 0x3C }
  - { offsetInCU: 0x33BAD, offset: 0x33BAD, size: 0x8, addend: 0x0, symName: __ZNSt3__14pairINS_14__bit_iteratorINS_6vectorIbNS_9allocatorIbEEEELb1ELm0EEENS1_IS5_Lb0ELm0EEEEC2B8ue170006IS6_S7_LPv0EEEOT_OT0_, symObjAddr: 0x14004, symBinAddr: 0x100018050, symSize: 0x48 }
  - { offsetInCU: 0x33C0B, offset: 0x33C0B, size: 0x8, addend: 0x0, symName: __ZNSt3__118__unwrap_iter_implINS_14__bit_iteratorINS_6vectorIbNS_9allocatorIbEEEELb1ELm0EEELb0EE8__rewrapB8ue170006ES6_S6_, symObjAddr: 0x140C0, symBinAddr: 0x10001810C, symSize: 0x2C }
  - { offsetInCU: 0x33C38, offset: 0x33C38, size: 0x8, addend: 0x0, symName: __ZNKSt3__16vectorIbNS_9allocatorIbEEE11__make_iterB8ue170006Em, symObjAddr: 0x140EC, symBinAddr: 0x100018138, symSize: 0x5C }
  - { offsetInCU: 0x33C6D, offset: 0x33C6D, size: 0x8, addend: 0x0, symName: __ZNSt3__114__bit_iteratorINS_6vectorIbNS_9allocatorIbEEEELb1ELm0EEC1B8ue170006EPKmj, symObjAddr: 0x14148, symBinAddr: 0x100018194, symSize: 0x3C }
  - { offsetInCU: 0x33CB5, offset: 0x33CB5, size: 0x8, addend: 0x0, symName: __ZNSt3__114__bit_iteratorINS_6vectorIbNS_9allocatorIbEEEELb1ELm0EEC2B8ue170006EPKmj, symObjAddr: 0x14184, symBinAddr: 0x1000181D0, symSize: 0x2C }
  - { offsetInCU: 0x33CFD, offset: 0x33CFD, size: 0x8, addend: 0x0, symName: __ZNKSt3__16vectorIbNS_9allocatorIbEEE11__recommendB8ue170006Em, symObjAddr: 0x141B0, symBinAddr: 0x1000181FC, symSize: 0xCC }
  - { offsetInCU: 0x33D52, offset: 0x33D52, size: 0x8, addend: 0x0, symName: __ZNSt3__16vectorIbNS_9allocatorIbEEE4backB8ue170006Ev, symObjAddr: 0x1427C, symBinAddr: 0x1000182C8, symSize: 0x3C }
  - { offsetInCU: 0x33D78, offset: 0x33D78, size: 0x8, addend: 0x0, symName: __ZNSt3__16vectorIbNS_9allocatorIbEEE10__align_itB8ue170006Em, symObjAddr: 0x142B8, symBinAddr: 0x100018304, symSize: 0x1C }
  - { offsetInCU: 0x33D9C, offset: 0x33D9C, size: 0x8, addend: 0x0, symName: __ZNKSt3__110__function12__value_funcIFvvEEclB8ue170006Ev, symObjAddr: 0x142D4, symBinAddr: 0x100018320, symSize: 0x50 }
  - { offsetInCU: 0x33DC8, offset: 0x33DC8, size: 0x8, addend: 0x0, symName: __ZNSt3__117bad_function_callC1Ev, symObjAddr: 0x1435C, symBinAddr: 0x1000183A8, symSize: 0x2C }
  - { offsetInCU: 0x33DF4, offset: 0x33DF4, size: 0x8, addend: 0x0, symName: __ZNSt3__117bad_function_callD1Ev, symObjAddr: 0x14388, symBinAddr: 0x1000183D4, symSize: 0x2C }
  - { offsetInCU: 0x33E1E, offset: 0x33E1E, size: 0x8, addend: 0x0, symName: __ZNSt3__117bad_function_callC2Ev, symObjAddr: 0x143B4, symBinAddr: 0x100018400, symSize: 0x44 }
  - { offsetInCU: 0x33E4A, offset: 0x33E4A, size: 0x8, addend: 0x0, symName: __ZNSt9exceptionC2B8ue170006Ev, symObjAddr: 0x143F8, symBinAddr: 0x100018444, symSize: 0x24 }
  - { offsetInCU: 0x33E74, offset: 0x33E74, size: 0x8, addend: 0x0, symName: __ZNSt3__117bad_function_callD0Ev, symObjAddr: 0x1441C, symBinAddr: 0x100018468, symSize: 0x30 }
  - { offsetInCU: 0x33E9E, offset: 0x33E9E, size: 0x8, addend: 0x0, symName: __ZNSt3__117bad_function_callD2Ev, symObjAddr: 0x1444C, symBinAddr: 0x100018498, symSize: 0x2C }
  - { offsetInCU: 0x33EC8, offset: 0x33EC8, size: 0x8, addend: 0x0, symName: '__ZNSt3__18functionIFvvEEC2IZ10partitionsiNS0_IFvNS_6vectorIbNS_9allocatorIbEEEEEEEE3$_0vEET_', symObjAddr: 0x14478, symBinAddr: 0x1000184C4, symSize: 0x34 }
  - { offsetInCU: 0x33F0E, offset: 0x33F0E, size: 0x8, addend: 0x0, symName: '__ZNSt3__110__function12__value_funcIFvvEEC1B8ue170006IZ10partitionsiNS_8functionIFvNS_6vectorIbNS_9allocatorIbEEEEEEEE3$_0vEEOT_', symObjAddr: 0x144AC, symBinAddr: 0x1000184F8, symSize: 0x50 }
  - { offsetInCU: 0x33F51, offset: 0x33F51, size: 0x8, addend: 0x0, symName: '__ZNSt3__19allocatorIZ10partitionsiNS_8functionIFvNS_6vectorIbNS0_IbEEEEEEEE3$_0EC1B8ue170006Ev', symObjAddr: 0x144FC, symBinAddr: 0x100018548, symSize: 0x2C }
  - { offsetInCU: 0x33F7B, offset: 0x33F7B, size: 0x8, addend: 0x0, symName: '__ZNSt3__110__function12__value_funcIFvvEEC1B8ue170006IZ10partitionsiNS_8functionIFvNS_6vectorIbNS_9allocatorIbEEEEEEEE3$_0NS7_ISC_EEEEOT_RKT0_', symObjAddr: 0x14528, symBinAddr: 0x100018574, symSize: 0x3C }
  - { offsetInCU: 0x33FD5, offset: 0x33FD5, size: 0x8, addend: 0x0, symName: '__ZNSt3__19allocatorIZ10partitionsiNS_8functionIFvNS_6vectorIbNS0_IbEEEEEEEE3$_0EC2B8ue170006Ev', symObjAddr: 0x14564, symBinAddr: 0x1000185B0, symSize: 0x2C }
  - { offsetInCU: 0x33FFF, offset: 0x33FFF, size: 0x8, addend: 0x0, symName: '__ZNSt3__116__non_trivial_ifILb1ENS_9allocatorIZ10partitionsiNS_8functionIFvNS_6vectorIbNS1_IbEEEEEEEE3$_0EEEC2B8ue170006Ev', symObjAddr: 0x14590, symBinAddr: 0x1000185DC, symSize: 0x14 }
  - { offsetInCU: 0x34029, offset: 0x34029, size: 0x8, addend: 0x0, symName: '__ZNSt3__110__function12__value_funcIFvvEEC2B8ue170006IZ10partitionsiNS_8functionIFvNS_6vectorIbNS_9allocatorIbEEEEEEEE3$_0NS7_ISC_EEEEOT_RKT0_', symObjAddr: 0x145A4, symBinAddr: 0x1000185F0, symSize: 0xF4 }
  - { offsetInCU: 0x340E2, offset: 0x340E2, size: 0x8, addend: 0x0, symName: '__ZNSt3__19allocatorINS_10__function6__funcIZ10partitionsiNS_8functionIFvNS_6vectorIbNS0_IbEEEEEEEE3$_0NS0_IS9_EEFvvEEEEC1B8ue170006IS9_EERKNS0_IT_EE', symObjAddr: 0x146B0, symBinAddr: 0x1000186FC, symSize: 0x34 }
  - { offsetInCU: 0x3411F, offset: 0x3411F, size: 0x8, addend: 0x0, symName: '__ZNSt3__19allocatorINS_10__function6__funcIZ10partitionsiNS_8functionIFvNS_6vectorIbNS0_IbEEEEEEEE3$_0NS0_IS9_EEFvvEEEE8allocateB8ue170006Em', symObjAddr: 0x146E4, symBinAddr: 0x100018730, symSize: 0x5C }
  - { offsetInCU: 0x34165, offset: 0x34165, size: 0x8, addend: 0x0, symName: '__ZNSt3__122__allocator_destructorINS_9allocatorINS_10__function6__funcIZ10partitionsiNS_8functionIFvNS_6vectorIbNS1_IbEEEEEEEE3$_0NS1_ISA_EEFvvEEEEEEC1B8ue170006ERSE_m', symObjAddr: 0x14740, symBinAddr: 0x10001878C, symSize: 0x3C }
  - { offsetInCU: 0x3424C, offset: 0x3424C, size: 0x8, addend: 0x0, symName: '__ZNSt3__110unique_ptrINS_10__function6__baseIFvvEEENS_22__allocator_destructorINS_9allocatorINS1_6__funcIZ10partitionsiNS_8functionIFvNS_6vectorIbNS6_IbEEEEEEEE3$_0NS6_ISE_EES3_EEEEEEEC1B8ue170006ILb1EvEEPSG_NS_16__dependent_typeINS_27__unique_ptr_deleter_sfinaeISI_EEXT_EE20__good_rval_ref_typeE', symObjAddr: 0x1477C, symBinAddr: 0x1000187C8, symSize: 0x3C }
  - { offsetInCU: 0x3429D, offset: 0x3429D, size: 0x8, addend: 0x0, symName: '__ZNKSt3__110unique_ptrINS_10__function6__baseIFvvEEENS_22__allocator_destructorINS_9allocatorINS1_6__funcIZ10partitionsiNS_8functionIFvNS_6vectorIbNS6_IbEEEEEEEE3$_0NS6_ISE_EES3_EEEEEEE3getB8ue170006Ev', symObjAddr: 0x147B8, symBinAddr: 0x100018804, symSize: 0x28 }
  - { offsetInCU: 0x342C3, offset: 0x342C3, size: 0x8, addend: 0x0, symName: '__ZNSt3__110__function6__funcIZ10partitionsiNS_8functionIFvNS_6vectorIbNS_9allocatorIbEEEEEEEE3$_0NS4_IS9_EEFvvEEC1B8ue170006EOS9_OSA_', symObjAddr: 0x147E0, symBinAddr: 0x10001882C, symSize: 0x3C }
  - { offsetInCU: 0x3430B, offset: 0x3430B, size: 0x8, addend: 0x0, symName: '__ZNSt3__110unique_ptrINS_10__function6__baseIFvvEEENS_22__allocator_destructorINS_9allocatorINS1_6__funcIZ10partitionsiNS_8functionIFvNS_6vectorIbNS6_IbEEEEEEEE3$_0NS6_ISE_EES3_EEEEEEE7releaseB8ue170006Ev', symObjAddr: 0x1481C, symBinAddr: 0x100018868, symSize: 0x44 }
  - { offsetInCU: 0x34340, offset: 0x34340, size: 0x8, addend: 0x0, symName: '__ZNSt3__110unique_ptrINS_10__function6__baseIFvvEEENS_22__allocator_destructorINS_9allocatorINS1_6__funcIZ10partitionsiNS_8functionIFvNS_6vectorIbNS6_IbEEEEEEEE3$_0NS6_ISE_EES3_EEEEEEED1B8ue170006Ev', symObjAddr: 0x14860, symBinAddr: 0x1000188AC, symSize: 0x2C }
  - { offsetInCU: 0x3436A, offset: 0x3436A, size: 0x8, addend: 0x0, symName: '__ZNSt3__19allocatorINS_10__function6__funcIZ10partitionsiNS_8functionIFvNS_6vectorIbNS0_IbEEEEEEEE3$_0NS0_IS9_EEFvvEEEEC2B8ue170006IS9_EERKNS0_IT_EE', symObjAddr: 0x1488C, symBinAddr: 0x1000188D8, symSize: 0x30 }
  - { offsetInCU: 0x343A7, offset: 0x343A7, size: 0x8, addend: 0x0, symName: '__ZNSt3__116__non_trivial_ifILb1ENS_9allocatorINS_10__function6__funcIZ10partitionsiNS_8functionIFvNS_6vectorIbNS1_IbEEEEEEEE3$_0NS1_ISA_EEFvvEEEEEEC2B8ue170006Ev', symObjAddr: 0x148BC, symBinAddr: 0x100018908, symSize: 0x14 }
  - { offsetInCU: 0x343DC, offset: 0x343DC, size: 0x8, addend: 0x0, symName: '__ZNSt3__116allocator_traitsINS_9allocatorINS_10__function6__funcIZ10partitionsiNS_8functionIFvNS_6vectorIbNS1_IbEEEEEEEE3$_0NS1_ISA_EEFvvEEEEEE8max_sizeB8ue170006ISE_vEEmRKSE_', symObjAddr: 0x148D0, symBinAddr: 0x10001891C, symSize: 0x24 }
  - { offsetInCU: 0x3440A, offset: 0x3440A, size: 0x8, addend: 0x0, symName: '__ZNKSt3__19allocatorINS_10__function6__funcIZ10partitionsiNS_8functionIFvNS_6vectorIbNS0_IbEEEEEEEE3$_0NS0_IS9_EEFvvEEEE8max_sizeB8ue170006Ev', symObjAddr: 0x148F4, symBinAddr: 0x100018940, symSize: 0x18 }
  - { offsetInCU: 0x34430, offset: 0x34430, size: 0x8, addend: 0x0, symName: '__ZNSt3__122__allocator_destructorINS_9allocatorINS_10__function6__funcIZ10partitionsiNS_8functionIFvNS_6vectorIbNS1_IbEEEEEEEE3$_0NS1_ISA_EEFvvEEEEEEC2B8ue170006ERSE_m', symObjAddr: 0x1490C, symBinAddr: 0x100018958, symSize: 0x2C }
  - { offsetInCU: 0x34476, offset: 0x34476, size: 0x8, addend: 0x0, symName: '__ZNSt3__110unique_ptrINS_10__function6__baseIFvvEEENS_22__allocator_destructorINS_9allocatorINS1_6__funcIZ10partitionsiNS_8functionIFvNS_6vectorIbNS6_IbEEEEEEEE3$_0NS6_ISE_EES3_EEEEEEEC2B8ue170006ILb1EvEEPSG_NS_16__dependent_typeINS_27__unique_ptr_deleter_sfinaeISI_EEXT_EE20__good_rval_ref_typeE', symObjAddr: 0x14938, symBinAddr: 0x100018984, symSize: 0x48 }
  - { offsetInCU: 0x344C7, offset: 0x344C7, size: 0x8, addend: 0x0, symName: '__ZNSt3__117__compressed_pairIPNS_10__function6__funcIZ10partitionsiNS_8functionIFvNS_6vectorIbNS_9allocatorIbEEEEEEEE3$_0NS5_ISA_EEFvvEEENS_22__allocator_destructorINS5_ISD_EEEEEC1B8ue170006IRSE_SH_EEOT_OT0_', symObjAddr: 0x14980, symBinAddr: 0x1000189CC, symSize: 0x3C }
  - { offsetInCU: 0x3451F, offset: 0x3451F, size: 0x8, addend: 0x0, symName: '__ZNSt3__117__compressed_pairIPNS_10__function6__funcIZ10partitionsiNS_8functionIFvNS_6vectorIbNS_9allocatorIbEEEEEEEE3$_0NS5_ISA_EEFvvEEENS_22__allocator_destructorINS5_ISD_EEEEEC2B8ue170006IRSE_SH_EEOT_OT0_', symObjAddr: 0x149BC, symBinAddr: 0x100018A08, symSize: 0x48 }
  - { offsetInCU: 0x34577, offset: 0x34577, size: 0x8, addend: 0x0, symName: '__ZNSt3__122__compressed_pair_elemIPNS_10__function6__funcIZ10partitionsiNS_8functionIFvNS_6vectorIbNS_9allocatorIbEEEEEEEE3$_0NS5_ISA_EEFvvEEELi0ELb0EEC2B8ue170006IRSE_vEEOT_', symObjAddr: 0x14A04, symBinAddr: 0x100018A50, symSize: 0x24 }
  - { offsetInCU: 0x345B9, offset: 0x345B9, size: 0x8, addend: 0x0, symName: '__ZNSt3__122__compressed_pair_elemINS_22__allocator_destructorINS_9allocatorINS_10__function6__funcIZ10partitionsiNS_8functionIFvNS_6vectorIbNS2_IbEEEEEEEE3$_0NS2_ISB_EEFvvEEEEEEELi1ELb0EEC2B8ue170006ISG_vEEOT_', symObjAddr: 0x14A28, symBinAddr: 0x100018A74, symSize: 0x24 }
  - { offsetInCU: 0x345FB, offset: 0x345FB, size: 0x8, addend: 0x0, symName: '__ZNKSt3__117__compressed_pairIPNS_10__function6__funcIZ10partitionsiNS_8functionIFvNS_6vectorIbNS_9allocatorIbEEEEEEEE3$_0NS5_ISA_EEFvvEEENS_22__allocator_destructorINS5_ISD_EEEEE5firstB8ue170006Ev', symObjAddr: 0x14A4C, symBinAddr: 0x100018A98, symSize: 0x24 }
  - { offsetInCU: 0x34621, offset: 0x34621, size: 0x8, addend: 0x0, symName: '__ZNKSt3__122__compressed_pair_elemIPNS_10__function6__funcIZ10partitionsiNS_8functionIFvNS_6vectorIbNS_9allocatorIbEEEEEEEE3$_0NS5_ISA_EEFvvEEELi0ELb0EE5__getB8ue170006Ev', symObjAddr: 0x14A70, symBinAddr: 0x100018ABC, symSize: 0x14 }
  - { offsetInCU: 0x34647, offset: 0x34647, size: 0x8, addend: 0x0, symName: '__ZNSt3__110__function6__funcIZ10partitionsiNS_8functionIFvNS_6vectorIbNS_9allocatorIbEEEEEEEE3$_0NS4_IS9_EEFvvEEC2B8ue170006EOS9_OSA_', symObjAddr: 0x14A84, symBinAddr: 0x100018AD0, symSize: 0x88 }
  - { offsetInCU: 0x3468F, offset: 0x3468F, size: 0x8, addend: 0x0, symName: __ZNSt3__110__function6__baseIFvvEEC2B8ue170006Ev, symObjAddr: 0x14B0C, symBinAddr: 0x100018B58, symSize: 0x24 }
  - { offsetInCU: 0x346B9, offset: 0x346B9, size: 0x8, addend: 0x0, symName: '__ZNSt3__110__function12__alloc_funcIZ10partitionsiNS_8functionIFvNS_6vectorIbNS_9allocatorIbEEEEEEEE3$_0NS4_IS9_EEFvvEEC1B8ue170006EOS9_OSA_', symObjAddr: 0x14B30, symBinAddr: 0x100018B7C, symSize: 0x3C }
  - { offsetInCU: 0x346FF, offset: 0x346FF, size: 0x8, addend: 0x0, symName: __ZNSt3__110__function6__baseIFvvEED2Ev, symObjAddr: 0x14B6C, symBinAddr: 0x100018BB8, symSize: 0x14 }
  - { offsetInCU: 0x34729, offset: 0x34729, size: 0x8, addend: 0x0, symName: '__ZNSt3__110__function6__funcIZ10partitionsiNS_8functionIFvNS_6vectorIbNS_9allocatorIbEEEEEEEE3$_0NS4_IS9_EEFvvEED1Ev', symObjAddr: 0x14B80, symBinAddr: 0x100018BCC, symSize: 0x2C }
  - { offsetInCU: 0x34756, offset: 0x34756, size: 0x8, addend: 0x0, symName: '__ZNSt3__110__function6__funcIZ10partitionsiNS_8functionIFvNS_6vectorIbNS_9allocatorIbEEEEEEEE3$_0NS4_IS9_EEFvvEED0Ev', symObjAddr: 0x14BAC, symBinAddr: 0x100018BF8, symSize: 0x30 }
  - { offsetInCU: 0x34783, offset: 0x34783, size: 0x8, addend: 0x0, symName: '__ZNKSt3__110__function6__funcIZ10partitionsiNS_8functionIFvNS_6vectorIbNS_9allocatorIbEEEEEEEE3$_0NS4_IS9_EEFvvEE7__cloneEv', symObjAddr: 0x14BDC, symBinAddr: 0x100018C28, symSize: 0xFC }
  - { offsetInCU: 0x347D5, offset: 0x347D5, size: 0x8, addend: 0x0, symName: '__ZNKSt3__110__function6__funcIZ10partitionsiNS_8functionIFvNS_6vectorIbNS_9allocatorIbEEEEEEEE3$_0NS4_IS9_EEFvvEE7__cloneEPNS0_6__baseISB_EE', symObjAddr: 0x14CD8, symBinAddr: 0x100018D24, symSize: 0x58 }
  - { offsetInCU: 0x3480C, offset: 0x3480C, size: 0x8, addend: 0x0, symName: '__ZNSt3__110__function6__funcIZ10partitionsiNS_8functionIFvNS_6vectorIbNS_9allocatorIbEEEEEEEE3$_0NS4_IS9_EEFvvEE7destroyEv', symObjAddr: 0x14D30, symBinAddr: 0x100018D7C, symSize: 0x28 }
  - { offsetInCU: 0x34834, offset: 0x34834, size: 0x8, addend: 0x0, symName: '__ZNSt3__110__function6__funcIZ10partitionsiNS_8functionIFvNS_6vectorIbNS_9allocatorIbEEEEEEEE3$_0NS4_IS9_EEFvvEE18destroy_deallocateEv', symObjAddr: 0x14D58, symBinAddr: 0x100018DA4, symSize: 0x58 }
  - { offsetInCU: 0x34877, offset: 0x34877, size: 0x8, addend: 0x0, symName: '__ZNSt3__110__function6__funcIZ10partitionsiNS_8functionIFvNS_6vectorIbNS_9allocatorIbEEEEEEEE3$_0NS4_IS9_EEFvvEEclEv', symObjAddr: 0x14DB0, symBinAddr: 0x100018DFC, symSize: 0x28 }
  - { offsetInCU: 0x3489F, offset: 0x3489F, size: 0x8, addend: 0x0, symName: '__ZNKSt3__110__function6__funcIZ10partitionsiNS_8functionIFvNS_6vectorIbNS_9allocatorIbEEEEEEEE3$_0NS4_IS9_EEFvvEE6targetERKSt9type_info', symObjAddr: 0x14DD8, symBinAddr: 0x100018E24, symSize: 0x60 }
  - { offsetInCU: 0x348D6, offset: 0x348D6, size: 0x8, addend: 0x0, symName: '__ZNKSt3__110__function6__funcIZ10partitionsiNS_8functionIFvNS_6vectorIbNS_9allocatorIbEEEEEEEE3$_0NS4_IS9_EEFvvEE11target_typeEv', symObjAddr: 0x14E38, symBinAddr: 0x100018E84, symSize: 0x18 }
  - { offsetInCU: 0x348FE, offset: 0x348FE, size: 0x8, addend: 0x0, symName: __ZNSt3__110__function6__baseIFvvEED1Ev, symObjAddr: 0x14E50, symBinAddr: 0x100018E9C, symSize: 0x14 }
  - { offsetInCU: 0x34928, offset: 0x34928, size: 0x8, addend: 0x0, symName: __ZNSt3__110__function6__baseIFvvEED0Ev, symObjAddr: 0x14E64, symBinAddr: 0x100018EB0, symSize: 0xC }
  - { offsetInCU: 0x34952, offset: 0x34952, size: 0x8, addend: 0x0, symName: '__ZNSt3__110__function12__alloc_funcIZ10partitionsiNS_8functionIFvNS_6vectorIbNS_9allocatorIbEEEEEEEE3$_0NS4_IS9_EEFvvEEC2B8ue170006EOS9_OSA_', symObjAddr: 0x14E70, symBinAddr: 0x100018EBC, symSize: 0x5C }
  - { offsetInCU: 0x34998, offset: 0x34998, size: 0x8, addend: 0x0, symName: '__ZNSt3__117__compressed_pairIZ10partitionsiNS_8functionIFvNS_6vectorIbNS_9allocatorIbEEEEEEEE3$_0NS3_IS8_EEEC1B8ue170006IJOS8_EJOS9_EEENS_21piecewise_construct_tENS_5tupleIJDpT_EEENSF_IJDpT0_EEE', symObjAddr: 0x14F24, symBinAddr: 0x100018F70, symSize: 0x3C }
  - { offsetInCU: 0x34A02, offset: 0x34A02, size: 0x8, addend: 0x0, symName: '__ZNSt3__15tupleIJOZ10partitionsiNS_8functionIFvNS_6vectorIbNS_9allocatorIbEEEEEEEE3$_0EEC1B8ue170006IJS8_ELi0EEEDpOT_', symObjAddr: 0x14F60, symBinAddr: 0x100018FAC, symSize: 0x34 }
  - { offsetInCU: 0x34A4C, offset: 0x34A4C, size: 0x8, addend: 0x0, symName: '__ZNSt3__15tupleIJOZ10partitionsiNS_8functionIFvNS_6vectorIbNS_9allocatorIbEEEEEEEE3$_0EEC2B8ue170006IJS8_ELi0EEEDpOT_', symObjAddr: 0x14F94, symBinAddr: 0x100018FE0, symSize: 0x34 }
  - { offsetInCU: 0x34A96, offset: 0x34A96, size: 0x8, addend: 0x0, symName: '__ZNSt3__112__tuple_implINS_15__tuple_indicesIJLm0EEEEJOZ10partitionsiNS_8functionIFvNS_6vectorIbNS_9allocatorIbEEEEEEEE3$_0EEC1B8ue170006IJLm0EEJSB_EJEJEJSA_EEENS1_IJXspT_EEEENS_13__tuple_typesIJDpT0_EEENS1_IJXspT1_EEEENSF_IJDpT2_EEEDpOT3_', symObjAddr: 0x14FC8, symBinAddr: 0x100019014, symSize: 0x34 }
  - { offsetInCU: 0x34B2B, offset: 0x34B2B, size: 0x8, addend: 0x0, symName: '__ZNSt3__112__tuple_implINS_15__tuple_indicesIJLm0EEEEJOZ10partitionsiNS_8functionIFvNS_6vectorIbNS_9allocatorIbEEEEEEEE3$_0EEC2B8ue170006IJLm0EEJSB_EJEJEJSA_EEENS1_IJXspT_EEEENS_13__tuple_typesIJDpT0_EEENS1_IJXspT1_EEEENSF_IJDpT2_EEEDpOT3_', symObjAddr: 0x14FFC, symBinAddr: 0x100019048, symSize: 0x34 }
  - { offsetInCU: 0x34BC0, offset: 0x34BC0, size: 0x8, addend: 0x0, symName: '__ZNSt3__112__tuple_leafILm0EOZ10partitionsiNS_8functionIFvNS_6vectorIbNS_9allocatorIbEEEEEEEE3$_0Lb0EEC2B8ue170006IS8_vEEOT_', symObjAddr: 0x15030, symBinAddr: 0x10001907C, symSize: 0x20 }
  - { offsetInCU: 0x34C03, offset: 0x34C03, size: 0x8, addend: 0x0, symName: '__ZNSt3__15tupleIJONS_9allocatorIZ10partitionsiNS_8functionIFvNS_6vectorIbNS1_IbEEEEEEEE3$_0EEEEC1B8ue170006IJS9_ELi0EEEDpOT_', symObjAddr: 0x15050, symBinAddr: 0x10001909C, symSize: 0x34 }
  - { offsetInCU: 0x34C4D, offset: 0x34C4D, size: 0x8, addend: 0x0, symName: '__ZNSt3__15tupleIJONS_9allocatorIZ10partitionsiNS_8functionIFvNS_6vectorIbNS1_IbEEEEEEEE3$_0EEEEC2B8ue170006IJS9_ELi0EEEDpOT_', symObjAddr: 0x15084, symBinAddr: 0x1000190D0, symSize: 0x34 }
  - { offsetInCU: 0x34C97, offset: 0x34C97, size: 0x8, addend: 0x0, symName: '__ZNSt3__112__tuple_implINS_15__tuple_indicesIJLm0EEEEJONS_9allocatorIZ10partitionsiNS_8functionIFvNS_6vectorIbNS3_IbEEEEEEEE3$_0EEEEC1B8ue170006IJLm0EEJSC_EJEJEJSB_EEENS1_IJXspT_EEEENS_13__tuple_typesIJDpT0_EEENS1_IJXspT1_EEEENSG_IJDpT2_EEEDpOT3_', symObjAddr: 0x150B8, symBinAddr: 0x100019104, symSize: 0x34 }
  - { offsetInCU: 0x34D2C, offset: 0x34D2C, size: 0x8, addend: 0x0, symName: '__ZNSt3__112__tuple_implINS_15__tuple_indicesIJLm0EEEEJONS_9allocatorIZ10partitionsiNS_8functionIFvNS_6vectorIbNS3_IbEEEEEEEE3$_0EEEEC2B8ue170006IJLm0EEJSC_EJEJEJSB_EEENS1_IJXspT_EEEENS_13__tuple_typesIJDpT0_EEENS1_IJXspT1_EEEENSG_IJDpT2_EEEDpOT3_', symObjAddr: 0x150EC, symBinAddr: 0x100019138, symSize: 0x34 }
  - { offsetInCU: 0x34DC1, offset: 0x34DC1, size: 0x8, addend: 0x0, symName: '__ZNSt3__112__tuple_leafILm0EONS_9allocatorIZ10partitionsiNS_8functionIFvNS_6vectorIbNS1_IbEEEEEEEE3$_0EELb0EEC2B8ue170006IS9_vEEOT_', symObjAddr: 0x15120, symBinAddr: 0x10001916C, symSize: 0x20 }
  - { offsetInCU: 0x34E04, offset: 0x34E04, size: 0x8, addend: 0x0, symName: '__ZNSt3__117__compressed_pairIZ10partitionsiNS_8functionIFvNS_6vectorIbNS_9allocatorIbEEEEEEEE3$_0NS3_IS8_EEEC2B8ue170006IJOS8_EJOS9_EEENS_21piecewise_construct_tENS_5tupleIJDpT_EEENSF_IJDpT0_EEE', symObjAddr: 0x15140, symBinAddr: 0x10001918C, symSize: 0x54 }
  - { offsetInCU: 0x34E6E, offset: 0x34E6E, size: 0x8, addend: 0x0, symName: '__ZNSt3__122__compressed_pair_elemIZ10partitionsiNS_8functionIFvNS_6vectorIbNS_9allocatorIbEEEEEEEE3$_0Li0ELb0EEC2B8ue170006IJOS8_EJLm0EEEENS_21piecewise_construct_tENS_5tupleIJDpT_EEENS_15__tuple_indicesIJXspT0_EEEE', symObjAddr: 0x15194, symBinAddr: 0x1000191E0, symSize: 0x4C }
  - { offsetInCU: 0x34ED1, offset: 0x34ED1, size: 0x8, addend: 0x0, symName: '__ZNSt3__122__compressed_pair_elemINS_9allocatorIZ10partitionsiNS_8functionIFvNS_6vectorIbNS1_IbEEEEEEEE3$_0EELi1ELb1EEC2B8ue170006IJOS9_EJLm0EEEENS_21piecewise_construct_tENS_5tupleIJDpT_EEENS_15__tuple_indicesIJXspT0_EEEE', symObjAddr: 0x151E0, symBinAddr: 0x10001922C, symSize: 0x38 }
  - { offsetInCU: 0x34F34, offset: 0x34F34, size: 0x8, addend: 0x0, symName: '__ZNSt3__112__tuple_leafILm0EOZ10partitionsiNS_8functionIFvNS_6vectorIbNS_9allocatorIbEEEEEEEE3$_0Lb0EE3getB8ue170006Ev', symObjAddr: 0x1523C, symBinAddr: 0x100019288, symSize: 0x18 }
  - { offsetInCU: 0x34F5A, offset: 0x34F5A, size: 0x8, addend: 0x0, symName: '__ZNSt3__112__tuple_leafILm0EONS_9allocatorIZ10partitionsiNS_8functionIFvNS_6vectorIbNS1_IbEEEEEEEE3$_0EELb0EE3getB8ue170006Ev', symObjAddr: 0x15278, symBinAddr: 0x1000192C4, symSize: 0x18 }
  - { offsetInCU: 0x34F80, offset: 0x34F80, size: 0x8, addend: 0x0, symName: '__ZNSt3__110__function6__funcIZ10partitionsiNS_8functionIFvNS_6vectorIbNS_9allocatorIbEEEEEEEE3$_0NS4_IS9_EEFvvEED2Ev', symObjAddr: 0x15290, symBinAddr: 0x1000192DC, symSize: 0x2C }
  - { offsetInCU: 0x34FAD, offset: 0x34FAD, size: 0x8, addend: 0x0, symName: '__ZNKSt3__110__function12__alloc_funcIZ10partitionsiNS_8functionIFvNS_6vectorIbNS_9allocatorIbEEEEEEEE3$_0NS4_IS9_EEFvvEE15__get_allocatorB8ue170006Ev', symObjAddr: 0x152BC, symBinAddr: 0x100019308, symSize: 0x24 }
  - { offsetInCU: 0x35001, offset: 0x35001, size: 0x8, addend: 0x0, symName: '__ZNSt3__110unique_ptrINS_10__function6__funcIZ10partitionsiNS_8functionIFvNS_6vectorIbNS_9allocatorIbEEEEEEEE3$_0NS5_ISA_EEFvvEEENS_22__allocator_destructorINS5_ISD_EEEEEC1B8ue170006ILb1EvEEPSD_NS_16__dependent_typeINS_27__unique_ptr_deleter_sfinaeISG_EEXT_EE20__good_rval_ref_typeE', symObjAddr: 0x152E0, symBinAddr: 0x10001932C, symSize: 0x3C }
  - { offsetInCU: 0x35052, offset: 0x35052, size: 0x8, addend: 0x0, symName: '__ZNKSt3__110unique_ptrINS_10__function6__funcIZ10partitionsiNS_8functionIFvNS_6vectorIbNS_9allocatorIbEEEEEEEE3$_0NS5_ISA_EEFvvEEENS_22__allocator_destructorINS5_ISD_EEEEE3getB8ue170006Ev', symObjAddr: 0x1531C, symBinAddr: 0x100019368, symSize: 0x28 }
  - { offsetInCU: 0x35078, offset: 0x35078, size: 0x8, addend: 0x0, symName: '__ZNKSt3__110__function12__alloc_funcIZ10partitionsiNS_8functionIFvNS_6vectorIbNS_9allocatorIbEEEEEEEE3$_0NS4_IS9_EEFvvEE8__targetB8ue170006Ev', symObjAddr: 0x15344, symBinAddr: 0x100019390, symSize: 0x24 }
  - { offsetInCU: 0x350A4, offset: 0x350A4, size: 0x8, addend: 0x0, symName: '__ZNSt3__19allocatorIZ10partitionsiNS_8functionIFvNS_6vectorIbNS0_IbEEEEEEEE3$_0EC1B8ue170006INS_10__function6__funcIS7_S8_FvvEEEEERKNS0_IT_EE', symObjAddr: 0x15368, symBinAddr: 0x1000193B4, symSize: 0x34 }
  - { offsetInCU: 0x350E1, offset: 0x350E1, size: 0x8, addend: 0x0, symName: '__ZNSt3__110__function6__funcIZ10partitionsiNS_8functionIFvNS_6vectorIbNS_9allocatorIbEEEEEEEE3$_0NS4_IS9_EEFvvEEC1B8ue170006ERKS9_OSA_', symObjAddr: 0x1539C, symBinAddr: 0x1000193E8, symSize: 0x3C }
  - { offsetInCU: 0x35129, offset: 0x35129, size: 0x8, addend: 0x0, symName: '__ZNSt3__110unique_ptrINS_10__function6__funcIZ10partitionsiNS_8functionIFvNS_6vectorIbNS_9allocatorIbEEEEEEEE3$_0NS5_ISA_EEFvvEEENS_22__allocator_destructorINS5_ISD_EEEEE7releaseB8ue170006Ev', symObjAddr: 0x153D8, symBinAddr: 0x100019424, symSize: 0x44 }
  - { offsetInCU: 0x3515E, offset: 0x3515E, size: 0x8, addend: 0x0, symName: '__ZNSt3__110unique_ptrINS_10__function6__funcIZ10partitionsiNS_8functionIFvNS_6vectorIbNS_9allocatorIbEEEEEEEE3$_0NS5_ISA_EEFvvEEENS_22__allocator_destructorINS5_ISD_EEEEED1B8ue170006Ev', symObjAddr: 0x1541C, symBinAddr: 0x100019468, symSize: 0x2C }
  - { offsetInCU: 0x35188, offset: 0x35188, size: 0x8, addend: 0x0, symName: '__ZNKSt3__117__compressed_pairIZ10partitionsiNS_8functionIFvNS_6vectorIbNS_9allocatorIbEEEEEEEE3$_0NS3_IS8_EEE6secondB8ue170006Ev', symObjAddr: 0x15448, symBinAddr: 0x100019494, symSize: 0x24 }
  - { offsetInCU: 0x351AE, offset: 0x351AE, size: 0x8, addend: 0x0, symName: '__ZNKSt3__122__compressed_pair_elemINS_9allocatorIZ10partitionsiNS_8functionIFvNS_6vectorIbNS1_IbEEEEEEEE3$_0EELi1ELb1EE5__getB8ue170006Ev', symObjAddr: 0x1546C, symBinAddr: 0x1000194B8, symSize: 0x14 }
  - { offsetInCU: 0x351D4, offset: 0x351D4, size: 0x8, addend: 0x0, symName: '__ZNSt3__110unique_ptrINS_10__function6__funcIZ10partitionsiNS_8functionIFvNS_6vectorIbNS_9allocatorIbEEEEEEEE3$_0NS5_ISA_EEFvvEEENS_22__allocator_destructorINS5_ISD_EEEEEC2B8ue170006ILb1EvEEPSD_NS_16__dependent_typeINS_27__unique_ptr_deleter_sfinaeISG_EEXT_EE20__good_rval_ref_typeE', symObjAddr: 0x15480, symBinAddr: 0x1000194CC, symSize: 0x48 }
  - { offsetInCU: 0x35225, offset: 0x35225, size: 0x8, addend: 0x0, symName: '__ZNKSt3__117__compressed_pairIZ10partitionsiNS_8functionIFvNS_6vectorIbNS_9allocatorIbEEEEEEEE3$_0NS3_IS8_EEE5firstB8ue170006Ev', symObjAddr: 0x154C8, symBinAddr: 0x100019514, symSize: 0x24 }
  - { offsetInCU: 0x3524B, offset: 0x3524B, size: 0x8, addend: 0x0, symName: '__ZNKSt3__122__compressed_pair_elemIZ10partitionsiNS_8functionIFvNS_6vectorIbNS_9allocatorIbEEEEEEEE3$_0Li0ELb0EE5__getB8ue170006Ev', symObjAddr: 0x154EC, symBinAddr: 0x100019538, symSize: 0x14 }
  - { offsetInCU: 0x35271, offset: 0x35271, size: 0x8, addend: 0x0, symName: '__ZNSt3__19allocatorIZ10partitionsiNS_8functionIFvNS_6vectorIbNS0_IbEEEEEEEE3$_0EC2B8ue170006INS_10__function6__funcIS7_S8_FvvEEEEERKNS0_IT_EE', symObjAddr: 0x15500, symBinAddr: 0x10001954C, symSize: 0x30 }
  - { offsetInCU: 0x352AE, offset: 0x352AE, size: 0x8, addend: 0x0, symName: '__ZNSt3__110__function6__funcIZ10partitionsiNS_8functionIFvNS_6vectorIbNS_9allocatorIbEEEEEEEE3$_0NS4_IS9_EEFvvEEC2B8ue170006ERKS9_OSA_', symObjAddr: 0x15530, symBinAddr: 0x10001957C, symSize: 0x88 }
  - { offsetInCU: 0x352F6, offset: 0x352F6, size: 0x8, addend: 0x0, symName: '__ZNSt3__110__function12__alloc_funcIZ10partitionsiNS_8functionIFvNS_6vectorIbNS_9allocatorIbEEEEEEEE3$_0NS4_IS9_EEFvvEEC1B8ue170006ERKS9_OSA_', symObjAddr: 0x155B8, symBinAddr: 0x100019604, symSize: 0x3C }
  - { offsetInCU: 0x3533C, offset: 0x3533C, size: 0x8, addend: 0x0, symName: '__ZNSt3__110__function12__alloc_funcIZ10partitionsiNS_8functionIFvNS_6vectorIbNS_9allocatorIbEEEEEEEE3$_0NS4_IS9_EEFvvEEC2B8ue170006ERKS9_OSA_', symObjAddr: 0x155F4, symBinAddr: 0x100019640, symSize: 0x5C }
  - { offsetInCU: 0x35382, offset: 0x35382, size: 0x8, addend: 0x0, symName: '__ZNSt3__117__compressed_pairIZ10partitionsiNS_8functionIFvNS_6vectorIbNS_9allocatorIbEEEEEEEE3$_0NS3_IS8_EEEC1B8ue170006IJRKS8_EJOS9_EEENS_21piecewise_construct_tENS_5tupleIJDpT_EEENSG_IJDpT0_EEE', symObjAddr: 0x1567C, symBinAddr: 0x1000196C8, symSize: 0x3C }
  - { offsetInCU: 0x353EC, offset: 0x353EC, size: 0x8, addend: 0x0, symName: '__ZNSt3__15tupleIJRKZ10partitionsiNS_8functionIFvNS_6vectorIbNS_9allocatorIbEEEEEEEE3$_0EEC1B8ue170006INS_4_AndELi0EEESA_', symObjAddr: 0x156B8, symBinAddr: 0x100019704, symSize: 0x34 }
  - { offsetInCU: 0x35434, offset: 0x35434, size: 0x8, addend: 0x0, symName: '__ZNSt3__15tupleIJRKZ10partitionsiNS_8functionIFvNS_6vectorIbNS_9allocatorIbEEEEEEEE3$_0EEC2B8ue170006INS_4_AndELi0EEESA_', symObjAddr: 0x156EC, symBinAddr: 0x100019738, symSize: 0x34 }
  - { offsetInCU: 0x3547C, offset: 0x3547C, size: 0x8, addend: 0x0, symName: '__ZNSt3__112__tuple_implINS_15__tuple_indicesIJLm0EEEEJRKZ10partitionsiNS_8functionIFvNS_6vectorIbNS_9allocatorIbEEEEEEEE3$_0EEC1B8ue170006IJLm0EEJSC_EJEJEJSC_EEENS1_IJXspT_EEEENS_13__tuple_typesIJDpT0_EEENS1_IJXspT1_EEEENSG_IJDpT2_EEEDpOT3_', symObjAddr: 0x15720, symBinAddr: 0x10001976C, symSize: 0x34 }
  - { offsetInCU: 0x35511, offset: 0x35511, size: 0x8, addend: 0x0, symName: '__ZNSt3__112__tuple_implINS_15__tuple_indicesIJLm0EEEEJRKZ10partitionsiNS_8functionIFvNS_6vectorIbNS_9allocatorIbEEEEEEEE3$_0EEC2B8ue170006IJLm0EEJSC_EJEJEJSC_EEENS1_IJXspT_EEEENS_13__tuple_typesIJDpT0_EEENS1_IJXspT1_EEEENSG_IJDpT2_EEEDpOT3_', symObjAddr: 0x15754, symBinAddr: 0x1000197A0, symSize: 0x34 }
  - { offsetInCU: 0x355A6, offset: 0x355A6, size: 0x8, addend: 0x0, symName: '__ZNSt3__112__tuple_leafILm0ERKZ10partitionsiNS_8functionIFvNS_6vectorIbNS_9allocatorIbEEEEEEEE3$_0Lb0EEC2B8ue170006ISA_vEEOT_', symObjAddr: 0x15788, symBinAddr: 0x1000197D4, symSize: 0x20 }
  - { offsetInCU: 0x355E9, offset: 0x355E9, size: 0x8, addend: 0x0, symName: '__ZNSt3__117__compressed_pairIZ10partitionsiNS_8functionIFvNS_6vectorIbNS_9allocatorIbEEEEEEEE3$_0NS3_IS8_EEEC2B8ue170006IJRKS8_EJOS9_EEENS_21piecewise_construct_tENS_5tupleIJDpT_EEENSG_IJDpT0_EEE', symObjAddr: 0x157A8, symBinAddr: 0x1000197F4, symSize: 0x54 }
  - { offsetInCU: 0x35653, offset: 0x35653, size: 0x8, addend: 0x0, symName: '__ZNSt3__122__compressed_pair_elemIZ10partitionsiNS_8functionIFvNS_6vectorIbNS_9allocatorIbEEEEEEEE3$_0Li0ELb0EEC2B8ue170006IJRKS8_EJLm0EEEENS_21piecewise_construct_tENS_5tupleIJDpT_EEENS_15__tuple_indicesIJXspT0_EEEE', symObjAddr: 0x157FC, symBinAddr: 0x100019848, symSize: 0x4C }
  - { offsetInCU: 0x356B6, offset: 0x356B6, size: 0x8, addend: 0x0, symName: '__ZNSt3__112__tuple_leafILm0ERKZ10partitionsiNS_8functionIFvNS_6vectorIbNS_9allocatorIbEEEEEEEE3$_0Lb0EE3getB8ue170006Ev', symObjAddr: 0x1586C, symBinAddr: 0x1000198B8, symSize: 0x18 }
  - { offsetInCU: 0x356DC, offset: 0x356DC, size: 0x8, addend: 0x0, symName: '__ZNSt3__117__compressed_pairIPNS_10__function6__funcIZ10partitionsiNS_8functionIFvNS_6vectorIbNS_9allocatorIbEEEEEEEE3$_0NS5_ISA_EEFvvEEENS_22__allocator_destructorINS5_ISD_EEEEE5firstB8ue170006Ev', symObjAddr: 0x15884, symBinAddr: 0x1000198D0, symSize: 0x24 }
  - { offsetInCU: 0x35702, offset: 0x35702, size: 0x8, addend: 0x0, symName: '__ZNSt3__122__compressed_pair_elemIPNS_10__function6__funcIZ10partitionsiNS_8functionIFvNS_6vectorIbNS_9allocatorIbEEEEEEEE3$_0NS5_ISA_EEFvvEEELi0ELb0EE5__getB8ue170006Ev', symObjAddr: 0x158A8, symBinAddr: 0x1000198F4, symSize: 0x14 }
  - { offsetInCU: 0x35728, offset: 0x35728, size: 0x8, addend: 0x0, symName: '__ZNSt3__110unique_ptrINS_10__function6__funcIZ10partitionsiNS_8functionIFvNS_6vectorIbNS_9allocatorIbEEEEEEEE3$_0NS5_ISA_EEFvvEEENS_22__allocator_destructorINS5_ISD_EEEEED2B8ue170006Ev', symObjAddr: 0x158BC, symBinAddr: 0x100019908, symSize: 0x30 }
  - { offsetInCU: 0x35752, offset: 0x35752, size: 0x8, addend: 0x0, symName: '__ZNSt3__110unique_ptrINS_10__function6__funcIZ10partitionsiNS_8functionIFvNS_6vectorIbNS_9allocatorIbEEEEEEEE3$_0NS5_ISA_EEFvvEEENS_22__allocator_destructorINS5_ISD_EEEEE5resetB8ue170006EPSD_', symObjAddr: 0x158EC, symBinAddr: 0x100019938, symSize: 0x78 }
  - { offsetInCU: 0x35796, offset: 0x35796, size: 0x8, addend: 0x0, symName: '__ZNSt3__117__compressed_pairIPNS_10__function6__funcIZ10partitionsiNS_8functionIFvNS_6vectorIbNS_9allocatorIbEEEEEEEE3$_0NS5_ISA_EEFvvEEENS_22__allocator_destructorINS5_ISD_EEEEE6secondB8ue170006Ev', symObjAddr: 0x15964, symBinAddr: 0x1000199B0, symSize: 0x28 }
  - { offsetInCU: 0x357BC, offset: 0x357BC, size: 0x8, addend: 0x0, symName: '__ZNSt3__122__allocator_destructorINS_9allocatorINS_10__function6__funcIZ10partitionsiNS_8functionIFvNS_6vectorIbNS1_IbEEEEEEEE3$_0NS1_ISA_EEFvvEEEEEEclB8ue170006EPSD_', symObjAddr: 0x1598C, symBinAddr: 0x1000199D8, symSize: 0x34 }
  - { offsetInCU: 0x357F0, offset: 0x357F0, size: 0x8, addend: 0x0, symName: '__ZNSt3__122__compressed_pair_elemINS_22__allocator_destructorINS_9allocatorINS_10__function6__funcIZ10partitionsiNS_8functionIFvNS_6vectorIbNS2_IbEEEEEEEE3$_0NS2_ISB_EEFvvEEEEEEELi1ELb0EE5__getB8ue170006Ev', symObjAddr: 0x159C0, symBinAddr: 0x100019A0C, symSize: 0x14 }
  - { offsetInCU: 0x35816, offset: 0x35816, size: 0x8, addend: 0x0, symName: '__ZNSt3__116allocator_traitsINS_9allocatorINS_10__function6__funcIZ10partitionsiNS_8functionIFvNS_6vectorIbNS1_IbEEEEEEEE3$_0NS1_ISA_EEFvvEEEEEE10deallocateB8ue170006ERSE_PSD_m', symObjAddr: 0x159D4, symBinAddr: 0x100019A20, symSize: 0x34 }
  - { offsetInCU: 0x35858, offset: 0x35858, size: 0x8, addend: 0x0, symName: '__ZNSt3__19allocatorINS_10__function6__funcIZ10partitionsiNS_8functionIFvNS_6vectorIbNS0_IbEEEEEEEE3$_0NS0_IS9_EEFvvEEEE10deallocateB8ue170006EPSC_m', symObjAddr: 0x15A08, symBinAddr: 0x100019A54, symSize: 0x44 }
  - { offsetInCU: 0x3589A, offset: 0x3589A, size: 0x8, addend: 0x0, symName: '__ZNSt3__110__function6__funcIZ10partitionsiNS_8functionIFvNS_6vectorIbNS_9allocatorIbEEEEEEEE3$_0NS4_IS9_EEFvvEEC1B8ue170006ERKS9_RKSA_', symObjAddr: 0x15A4C, symBinAddr: 0x100019A98, symSize: 0x3C }
  - { offsetInCU: 0x358E2, offset: 0x358E2, size: 0x8, addend: 0x0, symName: '__ZNSt3__110__function6__funcIZ10partitionsiNS_8functionIFvNS_6vectorIbNS_9allocatorIbEEEEEEEE3$_0NS4_IS9_EEFvvEEC2B8ue170006ERKS9_RKSA_', symObjAddr: 0x15A88, symBinAddr: 0x100019AD4, symSize: 0x88 }
  - { offsetInCU: 0x3592A, offset: 0x3592A, size: 0x8, addend: 0x0, symName: '__ZNSt3__110__function12__alloc_funcIZ10partitionsiNS_8functionIFvNS_6vectorIbNS_9allocatorIbEEEEEEEE3$_0NS4_IS9_EEFvvEEC1B8ue170006ERKS9_RKSA_', symObjAddr: 0x15B10, symBinAddr: 0x100019B5C, symSize: 0x3C }
  - { offsetInCU: 0x35970, offset: 0x35970, size: 0x8, addend: 0x0, symName: '__ZNSt3__110__function12__alloc_funcIZ10partitionsiNS_8functionIFvNS_6vectorIbNS_9allocatorIbEEEEEEEE3$_0NS4_IS9_EEFvvEEC2B8ue170006ERKS9_RKSA_', symObjAddr: 0x15B4C, symBinAddr: 0x100019B98, symSize: 0x5C }
  - { offsetInCU: 0x359B6, offset: 0x359B6, size: 0x8, addend: 0x0, symName: '__ZNSt3__117__compressed_pairIZ10partitionsiNS_8functionIFvNS_6vectorIbNS_9allocatorIbEEEEEEEE3$_0NS3_IS8_EEEC1B8ue170006IJRKS8_EJRKS9_EEENS_21piecewise_construct_tENS_5tupleIJDpT_EEENSH_IJDpT0_EEE', symObjAddr: 0x15BD4, symBinAddr: 0x100019C20, symSize: 0x3C }
  - { offsetInCU: 0x35A20, offset: 0x35A20, size: 0x8, addend: 0x0, symName: '__ZNSt3__15tupleIJRKNS_9allocatorIZ10partitionsiNS_8functionIFvNS_6vectorIbNS1_IbEEEEEEEE3$_0EEEEC1B8ue170006INS_4_AndELi0EEESB_', symObjAddr: 0x15C10, symBinAddr: 0x100019C5C, symSize: 0x34 }
  - { offsetInCU: 0x35A68, offset: 0x35A68, size: 0x8, addend: 0x0, symName: '__ZNSt3__15tupleIJRKNS_9allocatorIZ10partitionsiNS_8functionIFvNS_6vectorIbNS1_IbEEEEEEEE3$_0EEEEC2B8ue170006INS_4_AndELi0EEESB_', symObjAddr: 0x15C44, symBinAddr: 0x100019C90, symSize: 0x34 }
  - { offsetInCU: 0x35AB0, offset: 0x35AB0, size: 0x8, addend: 0x0, symName: '__ZNSt3__112__tuple_implINS_15__tuple_indicesIJLm0EEEEJRKNS_9allocatorIZ10partitionsiNS_8functionIFvNS_6vectorIbNS3_IbEEEEEEEE3$_0EEEEC1B8ue170006IJLm0EEJSD_EJEJEJSD_EEENS1_IJXspT_EEEENS_13__tuple_typesIJDpT0_EEENS1_IJXspT1_EEEENSH_IJDpT2_EEEDpOT3_', symObjAddr: 0x15C78, symBinAddr: 0x100019CC4, symSize: 0x34 }
  - { offsetInCU: 0x35B45, offset: 0x35B45, size: 0x8, addend: 0x0, symName: '__ZNSt3__112__tuple_implINS_15__tuple_indicesIJLm0EEEEJRKNS_9allocatorIZ10partitionsiNS_8functionIFvNS_6vectorIbNS3_IbEEEEEEEE3$_0EEEEC2B8ue170006IJLm0EEJSD_EJEJEJSD_EEENS1_IJXspT_EEEENS_13__tuple_typesIJDpT0_EEENS1_IJXspT1_EEEENSH_IJDpT2_EEEDpOT3_', symObjAddr: 0x15CAC, symBinAddr: 0x100019CF8, symSize: 0x34 }
  - { offsetInCU: 0x35BDA, offset: 0x35BDA, size: 0x8, addend: 0x0, symName: '__ZNSt3__112__tuple_leafILm0ERKNS_9allocatorIZ10partitionsiNS_8functionIFvNS_6vectorIbNS1_IbEEEEEEEE3$_0EELb0EEC2B8ue170006ISB_vEEOT_', symObjAddr: 0x15CE0, symBinAddr: 0x100019D2C, symSize: 0x20 }
  - { offsetInCU: 0x35C1D, offset: 0x35C1D, size: 0x8, addend: 0x0, symName: '__ZNSt3__117__compressed_pairIZ10partitionsiNS_8functionIFvNS_6vectorIbNS_9allocatorIbEEEEEEEE3$_0NS3_IS8_EEEC2B8ue170006IJRKS8_EJRKS9_EEENS_21piecewise_construct_tENS_5tupleIJDpT_EEENSH_IJDpT0_EEE', symObjAddr: 0x15D00, symBinAddr: 0x100019D4C, symSize: 0x54 }
  - { offsetInCU: 0x35C87, offset: 0x35C87, size: 0x8, addend: 0x0, symName: '__ZNSt3__122__compressed_pair_elemINS_9allocatorIZ10partitionsiNS_8functionIFvNS_6vectorIbNS1_IbEEEEEEEE3$_0EELi1ELb1EEC2B8ue170006IJRKS9_EJLm0EEEENS_21piecewise_construct_tENS_5tupleIJDpT_EEENS_15__tuple_indicesIJXspT0_EEEE', symObjAddr: 0x15D54, symBinAddr: 0x100019DA0, symSize: 0x38 }
  - { offsetInCU: 0x35CEA, offset: 0x35CEA, size: 0x8, addend: 0x0, symName: '__ZNSt3__112__tuple_leafILm0ERKNS_9allocatorIZ10partitionsiNS_8functionIFvNS_6vectorIbNS1_IbEEEEEEEE3$_0EELb0EE3getB8ue170006Ev', symObjAddr: 0x15DB0, symBinAddr: 0x100019DFC, symSize: 0x18 }
  - { offsetInCU: 0x35D10, offset: 0x35D10, size: 0x8, addend: 0x0, symName: '__ZNSt3__110__function12__alloc_funcIZ10partitionsiNS_8functionIFvNS_6vectorIbNS_9allocatorIbEEEEEEEE3$_0NS4_IS9_EEFvvEE7destroyB8ue170006Ev', symObjAddr: 0x15DC8, symBinAddr: 0x100019E14, symSize: 0x10 }
  - { offsetInCU: 0x35D36, offset: 0x35D36, size: 0x8, addend: 0x0, symName: '__ZNSt3__110__function12__alloc_funcIZ10partitionsiNS_8functionIFvNS_6vectorIbNS_9allocatorIbEEEEEEEE3$_0NS4_IS9_EEFvvEEclB8ue170006Ev', symObjAddr: 0x15DD8, symBinAddr: 0x100019E24, symSize: 0x28 }
  - { offsetInCU: 0x35D5C, offset: 0x35D5C, size: 0x8, addend: 0x0, symName: '__ZNSt3__128__invoke_void_return_wrapperIvLb1EE6__callB8ue170006IJRZ10partitionsiNS_8functionIFvNS_6vectorIbNS_9allocatorIbEEEEEEEE3$_0EEEvDpOT_', symObjAddr: 0x15E00, symBinAddr: 0x100019E4C, symSize: 0x24 }
  - { offsetInCU: 0x35D8B, offset: 0x35D8B, size: 0x8, addend: 0x0, symName: '__ZNSt3__117__compressed_pairIZ10partitionsiNS_8functionIFvNS_6vectorIbNS_9allocatorIbEEEEEEEE3$_0NS3_IS8_EEE5firstB8ue170006Ev', symObjAddr: 0x15E24, symBinAddr: 0x100019E70, symSize: 0x24 }
  - { offsetInCU: 0x35DB7, offset: 0x35DB7, size: 0x8, addend: 0x0, symName: '__ZZ10partitionsiNSt3__18functionIFvNS_6vectorIbNS_9allocatorIbEEEEEEEENK3$_0clEv', symObjAddr: 0x15E6C, symBinAddr: 0x100019EB8, symSize: 0x100 }
  - { offsetInCU: 0x35DE1, offset: 0x35DE1, size: 0x8, addend: 0x0, symName: __ZNKSt3__18functionIFvNS_6vectorIbNS_9allocatorIbEEEEEEclES4_, symObjAddr: 0x15F6C, symBinAddr: 0x100019FB8, symSize: 0x2C }
  - { offsetInCU: 0x35E19, offset: 0x35E19, size: 0x8, addend: 0x0, symName: __ZNSt3__16vectorIbNS_9allocatorIbEEE8pop_backB8ue170006Ev, symObjAddr: 0x15F98, symBinAddr: 0x100019FE4, symSize: 0x20 }
  - { offsetInCU: 0x35E3F, offset: 0x35E3F, size: 0x8, addend: 0x0, symName: __ZNKSt3__110__function12__value_funcIFvNS_6vectorIbNS_9allocatorIbEEEEEEclB8ue170006EOS5_, symObjAddr: 0x15FB8, symBinAddr: 0x10001A004, symSize: 0x58 }
  - { offsetInCU: 0x35E74, offset: 0x35E74, size: 0x8, addend: 0x0, symName: '__ZNSt3__122__compressed_pair_elemIZ10partitionsiNS_8functionIFvNS_6vectorIbNS_9allocatorIbEEEEEEEE3$_0Li0ELb0EE5__getB8ue170006Ev', symObjAddr: 0x16010, symBinAddr: 0x10001A05C, symSize: 0x14 }
  - { offsetInCU: 0x35ED0, offset: 0x35ED0, size: 0x8, addend: 0x0, symName: __ZNKSt9type_infoeqB8ue170006ERKS_, symObjAddr: 0x16024, symBinAddr: 0x10001A070, symSize: 0xDC }
  - { offsetInCU: 0x35F6E, offset: 0x35F6E, size: 0x8, addend: 0x0, symName: __ZNSt27__type_info_implementations30__non_unique_arm_rtti_bit_impl21__is_type_name_uniqueB8ue170006Em, symObjAddr: 0x16100, symBinAddr: 0x10001A14C, symSize: 0x20 }
  - { offsetInCU: 0x35F92, offset: 0x35F92, size: 0x8, addend: 0x0, symName: '__ZNSt3__110unique_ptrINS_10__function6__baseIFvvEEENS_22__allocator_destructorINS_9allocatorINS1_6__funcIZ10partitionsiNS_8functionIFvNS_6vectorIbNS6_IbEEEEEEEE3$_0NS6_ISE_EES3_EEEEEEED2B8ue170006Ev', symObjAddr: 0x16120, symBinAddr: 0x10001A16C, symSize: 0x30 }
  - { offsetInCU: 0x35FBC, offset: 0x35FBC, size: 0x8, addend: 0x0, symName: '__ZNSt3__110unique_ptrINS_10__function6__baseIFvvEEENS_22__allocator_destructorINS_9allocatorINS1_6__funcIZ10partitionsiNS_8functionIFvNS_6vectorIbNS6_IbEEEEEEEE3$_0NS6_ISE_EES3_EEEEEEE5resetB8ue170006EPSG_', symObjAddr: 0x16150, symBinAddr: 0x10001A19C, symSize: 0x78 }
  - { offsetInCU: 0x36000, offset: 0x36000, size: 0x8, addend: 0x0, symName: __ZNSt3__18functionIFvvEED2Ev, symObjAddr: 0x161C8, symBinAddr: 0x10001A214, symSize: 0x2C }
  - { offsetInCU: 0x3602C, offset: 0x3602C, size: 0x8, addend: 0x0, symName: __ZNSt3__110__function12__value_funcIFvvEED1B8ue170006Ev, symObjAddr: 0x161F4, symBinAddr: 0x10001A240, symSize: 0x2C }
  - { offsetInCU: 0x36056, offset: 0x36056, size: 0x8, addend: 0x0, symName: __ZNSt3__110__function12__value_funcIFvvEED2B8ue170006Ev, symObjAddr: 0x16220, symBinAddr: 0x10001A26C, symSize: 0x90 }
  - { offsetInCU: 0x36080, offset: 0x36080, size: 0x8, addend: 0x0, symName: __ZNKSt3__110__function12__value_funcIFviEEclB8ue170006EOi, symObjAddr: 0x162B0, symBinAddr: 0x10001A2FC, symSize: 0x58 }
  - { offsetInCU: 0x360B5, offset: 0x360B5, size: 0x8, addend: 0x0, symName: '__ZNSt3__18functionIFviEEC2IZ12combinationsiiNS0_IFvNS_6vectorIbNS_9allocatorIbEEEEEEEE3$_1vEET_', symObjAddr: 0x16308, symBinAddr: 0x10001A354, symSize: 0x34 }
  - { offsetInCU: 0x360FB, offset: 0x360FB, size: 0x8, addend: 0x0, symName: '__ZNSt3__110__function12__value_funcIFviEEC1B8ue170006IZ12combinationsiiNS_8functionIFvNS_6vectorIbNS_9allocatorIbEEEEEEEE3$_1vEEOT_', symObjAddr: 0x1633C, symBinAddr: 0x10001A388, symSize: 0x50 }
  - { offsetInCU: 0x3613E, offset: 0x3613E, size: 0x8, addend: 0x0, symName: '__ZNSt3__19allocatorIZ12combinationsiiNS_8functionIFvNS_6vectorIbNS0_IbEEEEEEEE3$_1EC1B8ue170006Ev', symObjAddr: 0x1638C, symBinAddr: 0x10001A3D8, symSize: 0x2C }
  - { offsetInCU: 0x36168, offset: 0x36168, size: 0x8, addend: 0x0, symName: '__ZNSt3__110__function12__value_funcIFviEEC1B8ue170006IZ12combinationsiiNS_8functionIFvNS_6vectorIbNS_9allocatorIbEEEEEEEE3$_1NS7_ISC_EEEEOT_RKT0_', symObjAddr: 0x163B8, symBinAddr: 0x10001A404, symSize: 0x3C }
  - { offsetInCU: 0x361C2, offset: 0x361C2, size: 0x8, addend: 0x0, symName: '__ZNSt3__19allocatorIZ12combinationsiiNS_8functionIFvNS_6vectorIbNS0_IbEEEEEEEE3$_1EC2B8ue170006Ev', symObjAddr: 0x163F4, symBinAddr: 0x10001A440, symSize: 0x2C }
  - { offsetInCU: 0x361EC, offset: 0x361EC, size: 0x8, addend: 0x0, symName: '__ZNSt3__116__non_trivial_ifILb1ENS_9allocatorIZ12combinationsiiNS_8functionIFvNS_6vectorIbNS1_IbEEEEEEEE3$_1EEEC2B8ue170006Ev', symObjAddr: 0x16420, symBinAddr: 0x10001A46C, symSize: 0x14 }
  - { offsetInCU: 0x36216, offset: 0x36216, size: 0x8, addend: 0x0, symName: '__ZNSt3__110__function12__value_funcIFviEEC2B8ue170006IZ12combinationsiiNS_8functionIFvNS_6vectorIbNS_9allocatorIbEEEEEEEE3$_1NS7_ISC_EEEEOT_RKT0_', symObjAddr: 0x16434, symBinAddr: 0x10001A480, symSize: 0xF4 }
  - { offsetInCU: 0x362CF, offset: 0x362CF, size: 0x8, addend: 0x0, symName: '__ZNSt3__19allocatorINS_10__function6__funcIZ12combinationsiiNS_8functionIFvNS_6vectorIbNS0_IbEEEEEEEE3$_1NS0_IS9_EEFviEEEEC1B8ue170006IS9_EERKNS0_IT_EE', symObjAddr: 0x16540, symBinAddr: 0x10001A58C, symSize: 0x34 }
  - { offsetInCU: 0x3630C, offset: 0x3630C, size: 0x8, addend: 0x0, symName: '__ZNSt3__19allocatorINS_10__function6__funcIZ12combinationsiiNS_8functionIFvNS_6vectorIbNS0_IbEEEEEEEE3$_1NS0_IS9_EEFviEEEE8allocateB8ue170006Em', symObjAddr: 0x16574, symBinAddr: 0x10001A5C0, symSize: 0x5C }
  - { offsetInCU: 0x36352, offset: 0x36352, size: 0x8, addend: 0x0, symName: '__ZNSt3__122__allocator_destructorINS_9allocatorINS_10__function6__funcIZ12combinationsiiNS_8functionIFvNS_6vectorIbNS1_IbEEEEEEEE3$_1NS1_ISA_EEFviEEEEEEC1B8ue170006ERSE_m', symObjAddr: 0x165D0, symBinAddr: 0x10001A61C, symSize: 0x3C }
  - { offsetInCU: 0x36439, offset: 0x36439, size: 0x8, addend: 0x0, symName: '__ZNSt3__110unique_ptrINS_10__function6__baseIFviEEENS_22__allocator_destructorINS_9allocatorINS1_6__funcIZ12combinationsiiNS_8functionIFvNS_6vectorIbNS6_IbEEEEEEEE3$_1NS6_ISE_EES3_EEEEEEEC1B8ue170006ILb1EvEEPSG_NS_16__dependent_typeINS_27__unique_ptr_deleter_sfinaeISI_EEXT_EE20__good_rval_ref_typeE', symObjAddr: 0x1660C, symBinAddr: 0x10001A658, symSize: 0x3C }
  - { offsetInCU: 0x3648A, offset: 0x3648A, size: 0x8, addend: 0x0, symName: '__ZNKSt3__110unique_ptrINS_10__function6__baseIFviEEENS_22__allocator_destructorINS_9allocatorINS1_6__funcIZ12combinationsiiNS_8functionIFvNS_6vectorIbNS6_IbEEEEEEEE3$_1NS6_ISE_EES3_EEEEEEE3getB8ue170006Ev', symObjAddr: 0x16648, symBinAddr: 0x10001A694, symSize: 0x28 }
  - { offsetInCU: 0x364B0, offset: 0x364B0, size: 0x8, addend: 0x0, symName: '__ZNSt3__110__function6__funcIZ12combinationsiiNS_8functionIFvNS_6vectorIbNS_9allocatorIbEEEEEEEE3$_1NS4_IS9_EEFviEEC1B8ue170006EOS9_OSA_', symObjAddr: 0x16670, symBinAddr: 0x10001A6BC, symSize: 0x3C }
  - { offsetInCU: 0x364F8, offset: 0x364F8, size: 0x8, addend: 0x0, symName: '__ZNSt3__110unique_ptrINS_10__function6__baseIFviEEENS_22__allocator_destructorINS_9allocatorINS1_6__funcIZ12combinationsiiNS_8functionIFvNS_6vectorIbNS6_IbEEEEEEEE3$_1NS6_ISE_EES3_EEEEEEE7releaseB8ue170006Ev', symObjAddr: 0x166AC, symBinAddr: 0x10001A6F8, symSize: 0x44 }
  - { offsetInCU: 0x3652D, offset: 0x3652D, size: 0x8, addend: 0x0, symName: '__ZNSt3__110unique_ptrINS_10__function6__baseIFviEEENS_22__allocator_destructorINS_9allocatorINS1_6__funcIZ12combinationsiiNS_8functionIFvNS_6vectorIbNS6_IbEEEEEEEE3$_1NS6_ISE_EES3_EEEEEEED1B8ue170006Ev', symObjAddr: 0x166F0, symBinAddr: 0x10001A73C, symSize: 0x2C }
  - { offsetInCU: 0x36557, offset: 0x36557, size: 0x8, addend: 0x0, symName: '__ZNSt3__19allocatorINS_10__function6__funcIZ12combinationsiiNS_8functionIFvNS_6vectorIbNS0_IbEEEEEEEE3$_1NS0_IS9_EEFviEEEEC2B8ue170006IS9_EERKNS0_IT_EE', symObjAddr: 0x1671C, symBinAddr: 0x10001A768, symSize: 0x30 }
  - { offsetInCU: 0x36594, offset: 0x36594, size: 0x8, addend: 0x0, symName: '__ZNSt3__116__non_trivial_ifILb1ENS_9allocatorINS_10__function6__funcIZ12combinationsiiNS_8functionIFvNS_6vectorIbNS1_IbEEEEEEEE3$_1NS1_ISA_EEFviEEEEEEC2B8ue170006Ev', symObjAddr: 0x1674C, symBinAddr: 0x10001A798, symSize: 0x14 }
  - { offsetInCU: 0x365C9, offset: 0x365C9, size: 0x8, addend: 0x0, symName: '__ZNSt3__116allocator_traitsINS_9allocatorINS_10__function6__funcIZ12combinationsiiNS_8functionIFvNS_6vectorIbNS1_IbEEEEEEEE3$_1NS1_ISA_EEFviEEEEEE8max_sizeB8ue170006ISE_vEEmRKSE_', symObjAddr: 0x16760, symBinAddr: 0x10001A7AC, symSize: 0x24 }
  - { offsetInCU: 0x365F7, offset: 0x365F7, size: 0x8, addend: 0x0, symName: '__ZNKSt3__19allocatorINS_10__function6__funcIZ12combinationsiiNS_8functionIFvNS_6vectorIbNS0_IbEEEEEEEE3$_1NS0_IS9_EEFviEEEE8max_sizeB8ue170006Ev', symObjAddr: 0x16784, symBinAddr: 0x10001A7D0, symSize: 0x18 }
  - { offsetInCU: 0x3661D, offset: 0x3661D, size: 0x8, addend: 0x0, symName: '__ZNSt3__122__allocator_destructorINS_9allocatorINS_10__function6__funcIZ12combinationsiiNS_8functionIFvNS_6vectorIbNS1_IbEEEEEEEE3$_1NS1_ISA_EEFviEEEEEEC2B8ue170006ERSE_m', symObjAddr: 0x1679C, symBinAddr: 0x10001A7E8, symSize: 0x2C }
  - { offsetInCU: 0x36663, offset: 0x36663, size: 0x8, addend: 0x0, symName: '__ZNSt3__110unique_ptrINS_10__function6__baseIFviEEENS_22__allocator_destructorINS_9allocatorINS1_6__funcIZ12combinationsiiNS_8functionIFvNS_6vectorIbNS6_IbEEEEEEEE3$_1NS6_ISE_EES3_EEEEEEEC2B8ue170006ILb1EvEEPSG_NS_16__dependent_typeINS_27__unique_ptr_deleter_sfinaeISI_EEXT_EE20__good_rval_ref_typeE', symObjAddr: 0x167C8, symBinAddr: 0x10001A814, symSize: 0x48 }
  - { offsetInCU: 0x366B4, offset: 0x366B4, size: 0x8, addend: 0x0, symName: '__ZNSt3__117__compressed_pairIPNS_10__function6__funcIZ12combinationsiiNS_8functionIFvNS_6vectorIbNS_9allocatorIbEEEEEEEE3$_1NS5_ISA_EEFviEEENS_22__allocator_destructorINS5_ISD_EEEEEC1B8ue170006IRSE_SH_EEOT_OT0_', symObjAddr: 0x16810, symBinAddr: 0x10001A85C, symSize: 0x3C }
  - { offsetInCU: 0x3670C, offset: 0x3670C, size: 0x8, addend: 0x0, symName: '__ZNSt3__117__compressed_pairIPNS_10__function6__funcIZ12combinationsiiNS_8functionIFvNS_6vectorIbNS_9allocatorIbEEEEEEEE3$_1NS5_ISA_EEFviEEENS_22__allocator_destructorINS5_ISD_EEEEEC2B8ue170006IRSE_SH_EEOT_OT0_', symObjAddr: 0x1684C, symBinAddr: 0x10001A898, symSize: 0x48 }
  - { offsetInCU: 0x36764, offset: 0x36764, size: 0x8, addend: 0x0, symName: '__ZNSt3__122__compressed_pair_elemIPNS_10__function6__funcIZ12combinationsiiNS_8functionIFvNS_6vectorIbNS_9allocatorIbEEEEEEEE3$_1NS5_ISA_EEFviEEELi0ELb0EEC2B8ue170006IRSE_vEEOT_', symObjAddr: 0x16894, symBinAddr: 0x10001A8E0, symSize: 0x24 }
  - { offsetInCU: 0x367A6, offset: 0x367A6, size: 0x8, addend: 0x0, symName: '__ZNSt3__122__compressed_pair_elemINS_22__allocator_destructorINS_9allocatorINS_10__function6__funcIZ12combinationsiiNS_8functionIFvNS_6vectorIbNS2_IbEEEEEEEE3$_1NS2_ISB_EEFviEEEEEEELi1ELb0EEC2B8ue170006ISG_vEEOT_', symObjAddr: 0x168B8, symBinAddr: 0x10001A904, symSize: 0x24 }
  - { offsetInCU: 0x367E8, offset: 0x367E8, size: 0x8, addend: 0x0, symName: '__ZNKSt3__117__compressed_pairIPNS_10__function6__funcIZ12combinationsiiNS_8functionIFvNS_6vectorIbNS_9allocatorIbEEEEEEEE3$_1NS5_ISA_EEFviEEENS_22__allocator_destructorINS5_ISD_EEEEE5firstB8ue170006Ev', symObjAddr: 0x168DC, symBinAddr: 0x10001A928, symSize: 0x24 }
  - { offsetInCU: 0x3680E, offset: 0x3680E, size: 0x8, addend: 0x0, symName: '__ZNKSt3__122__compressed_pair_elemIPNS_10__function6__funcIZ12combinationsiiNS_8functionIFvNS_6vectorIbNS_9allocatorIbEEEEEEEE3$_1NS5_ISA_EEFviEEELi0ELb0EE5__getB8ue170006Ev', symObjAddr: 0x16900, symBinAddr: 0x10001A94C, symSize: 0x14 }
  - { offsetInCU: 0x36834, offset: 0x36834, size: 0x8, addend: 0x0, symName: '__ZNSt3__110__function6__funcIZ12combinationsiiNS_8functionIFvNS_6vectorIbNS_9allocatorIbEEEEEEEE3$_1NS4_IS9_EEFviEEC2B8ue170006EOS9_OSA_', symObjAddr: 0x16914, symBinAddr: 0x10001A960, symSize: 0x88 }
  - { offsetInCU: 0x3687C, offset: 0x3687C, size: 0x8, addend: 0x0, symName: __ZNSt3__110__function6__baseIFviEEC2B8ue170006Ev, symObjAddr: 0x1699C, symBinAddr: 0x10001A9E8, symSize: 0x24 }
  - { offsetInCU: 0x368A6, offset: 0x368A6, size: 0x8, addend: 0x0, symName: '__ZNSt3__110__function12__alloc_funcIZ12combinationsiiNS_8functionIFvNS_6vectorIbNS_9allocatorIbEEEEEEEE3$_1NS4_IS9_EEFviEEC1B8ue170006EOS9_OSA_', symObjAddr: 0x169C0, symBinAddr: 0x10001AA0C, symSize: 0x3C }
  - { offsetInCU: 0x368EC, offset: 0x368EC, size: 0x8, addend: 0x0, symName: __ZNSt3__110__function6__baseIFviEED2Ev, symObjAddr: 0x169FC, symBinAddr: 0x10001AA48, symSize: 0x14 }
  - { offsetInCU: 0x36916, offset: 0x36916, size: 0x8, addend: 0x0, symName: '__ZNSt3__110__function6__funcIZ12combinationsiiNS_8functionIFvNS_6vectorIbNS_9allocatorIbEEEEEEEE3$_1NS4_IS9_EEFviEED1Ev', symObjAddr: 0x16A10, symBinAddr: 0x10001AA5C, symSize: 0x2C }
  - { offsetInCU: 0x36943, offset: 0x36943, size: 0x8, addend: 0x0, symName: '__ZNSt3__110__function6__funcIZ12combinationsiiNS_8functionIFvNS_6vectorIbNS_9allocatorIbEEEEEEEE3$_1NS4_IS9_EEFviEED0Ev', symObjAddr: 0x16A3C, symBinAddr: 0x10001AA88, symSize: 0x30 }
  - { offsetInCU: 0x36970, offset: 0x36970, size: 0x8, addend: 0x0, symName: '__ZNKSt3__110__function6__funcIZ12combinationsiiNS_8functionIFvNS_6vectorIbNS_9allocatorIbEEEEEEEE3$_1NS4_IS9_EEFviEE7__cloneEv', symObjAddr: 0x16A6C, symBinAddr: 0x10001AAB8, symSize: 0xFC }
  - { offsetInCU: 0x369C2, offset: 0x369C2, size: 0x8, addend: 0x0, symName: '__ZNKSt3__110__function6__funcIZ12combinationsiiNS_8functionIFvNS_6vectorIbNS_9allocatorIbEEEEEEEE3$_1NS4_IS9_EEFviEE7__cloneEPNS0_6__baseISB_EE', symObjAddr: 0x16B68, symBinAddr: 0x10001ABB4, symSize: 0x58 }
  - { offsetInCU: 0x369F9, offset: 0x369F9, size: 0x8, addend: 0x0, symName: '__ZNSt3__110__function6__funcIZ12combinationsiiNS_8functionIFvNS_6vectorIbNS_9allocatorIbEEEEEEEE3$_1NS4_IS9_EEFviEE7destroyEv', symObjAddr: 0x16BC0, symBinAddr: 0x10001AC0C, symSize: 0x28 }
  - { offsetInCU: 0x36A21, offset: 0x36A21, size: 0x8, addend: 0x0, symName: '__ZNSt3__110__function6__funcIZ12combinationsiiNS_8functionIFvNS_6vectorIbNS_9allocatorIbEEEEEEEE3$_1NS4_IS9_EEFviEE18destroy_deallocateEv', symObjAddr: 0x16BE8, symBinAddr: 0x10001AC34, symSize: 0x58 }
  - { offsetInCU: 0x36A64, offset: 0x36A64, size: 0x8, addend: 0x0, symName: '__ZNSt3__110__function6__funcIZ12combinationsiiNS_8functionIFvNS_6vectorIbNS_9allocatorIbEEEEEEEE3$_1NS4_IS9_EEFviEEclEOi', symObjAddr: 0x16C40, symBinAddr: 0x10001AC8C, symSize: 0x30 }
  - { offsetInCU: 0x36A9B, offset: 0x36A9B, size: 0x8, addend: 0x0, symName: '__ZNKSt3__110__function6__funcIZ12combinationsiiNS_8functionIFvNS_6vectorIbNS_9allocatorIbEEEEEEEE3$_1NS4_IS9_EEFviEE6targetERKSt9type_info', symObjAddr: 0x16C70, symBinAddr: 0x10001ACBC, symSize: 0x60 }
  - { offsetInCU: 0x36AD2, offset: 0x36AD2, size: 0x8, addend: 0x0, symName: '__ZNKSt3__110__function6__funcIZ12combinationsiiNS_8functionIFvNS_6vectorIbNS_9allocatorIbEEEEEEEE3$_1NS4_IS9_EEFviEE11target_typeEv', symObjAddr: 0x16CD0, symBinAddr: 0x10001AD1C, symSize: 0x18 }
  - { offsetInCU: 0x36AFA, offset: 0x36AFA, size: 0x8, addend: 0x0, symName: __ZNSt3__110__function6__baseIFviEED1Ev, symObjAddr: 0x16CE8, symBinAddr: 0x10001AD34, symSize: 0x14 }
  - { offsetInCU: 0x36B24, offset: 0x36B24, size: 0x8, addend: 0x0, symName: __ZNSt3__110__function6__baseIFviEED0Ev, symObjAddr: 0x16CFC, symBinAddr: 0x10001AD48, symSize: 0xC }
  - { offsetInCU: 0x36B4E, offset: 0x36B4E, size: 0x8, addend: 0x0, symName: '__ZNSt3__110__function12__alloc_funcIZ12combinationsiiNS_8functionIFvNS_6vectorIbNS_9allocatorIbEEEEEEEE3$_1NS4_IS9_EEFviEEC2B8ue170006EOS9_OSA_', symObjAddr: 0x16D08, symBinAddr: 0x10001AD54, symSize: 0x5C }
  - { offsetInCU: 0x36B94, offset: 0x36B94, size: 0x8, addend: 0x0, symName: '__ZNSt3__117__compressed_pairIZ12combinationsiiNS_8functionIFvNS_6vectorIbNS_9allocatorIbEEEEEEEE3$_1NS3_IS8_EEEC1B8ue170006IJOS8_EJOS9_EEENS_21piecewise_construct_tENS_5tupleIJDpT_EEENSF_IJDpT0_EEE', symObjAddr: 0x16DBC, symBinAddr: 0x10001AE08, symSize: 0x3C }
  - { offsetInCU: 0x36BFE, offset: 0x36BFE, size: 0x8, addend: 0x0, symName: '__ZNSt3__15tupleIJOZ12combinationsiiNS_8functionIFvNS_6vectorIbNS_9allocatorIbEEEEEEEE3$_1EEC1B8ue170006IJS8_ELi0EEEDpOT_', symObjAddr: 0x16DF8, symBinAddr: 0x10001AE44, symSize: 0x34 }
  - { offsetInCU: 0x36C48, offset: 0x36C48, size: 0x8, addend: 0x0, symName: '__ZNSt3__15tupleIJOZ12combinationsiiNS_8functionIFvNS_6vectorIbNS_9allocatorIbEEEEEEEE3$_1EEC2B8ue170006IJS8_ELi0EEEDpOT_', symObjAddr: 0x16E2C, symBinAddr: 0x10001AE78, symSize: 0x34 }
  - { offsetInCU: 0x36C92, offset: 0x36C92, size: 0x8, addend: 0x0, symName: '__ZNSt3__112__tuple_implINS_15__tuple_indicesIJLm0EEEEJOZ12combinationsiiNS_8functionIFvNS_6vectorIbNS_9allocatorIbEEEEEEEE3$_1EEC1B8ue170006IJLm0EEJSB_EJEJEJSA_EEENS1_IJXspT_EEEENS_13__tuple_typesIJDpT0_EEENS1_IJXspT1_EEEENSF_IJDpT2_EEEDpOT3_', symObjAddr: 0x16E60, symBinAddr: 0x10001AEAC, symSize: 0x34 }
  - { offsetInCU: 0x36D27, offset: 0x36D27, size: 0x8, addend: 0x0, symName: '__ZNSt3__112__tuple_implINS_15__tuple_indicesIJLm0EEEEJOZ12combinationsiiNS_8functionIFvNS_6vectorIbNS_9allocatorIbEEEEEEEE3$_1EEC2B8ue170006IJLm0EEJSB_EJEJEJSA_EEENS1_IJXspT_EEEENS_13__tuple_typesIJDpT0_EEENS1_IJXspT1_EEEENSF_IJDpT2_EEEDpOT3_', symObjAddr: 0x16E94, symBinAddr: 0x10001AEE0, symSize: 0x34 }
  - { offsetInCU: 0x36DBC, offset: 0x36DBC, size: 0x8, addend: 0x0, symName: '__ZNSt3__112__tuple_leafILm0EOZ12combinationsiiNS_8functionIFvNS_6vectorIbNS_9allocatorIbEEEEEEEE3$_1Lb0EEC2B8ue170006IS8_vEEOT_', symObjAddr: 0x16EC8, symBinAddr: 0x10001AF14, symSize: 0x20 }
  - { offsetInCU: 0x36DFF, offset: 0x36DFF, size: 0x8, addend: 0x0, symName: '__ZNSt3__15tupleIJONS_9allocatorIZ12combinationsiiNS_8functionIFvNS_6vectorIbNS1_IbEEEEEEEE3$_1EEEEC1B8ue170006IJS9_ELi0EEEDpOT_', symObjAddr: 0x16EE8, symBinAddr: 0x10001AF34, symSize: 0x34 }
  - { offsetInCU: 0x36E49, offset: 0x36E49, size: 0x8, addend: 0x0, symName: '__ZNSt3__15tupleIJONS_9allocatorIZ12combinationsiiNS_8functionIFvNS_6vectorIbNS1_IbEEEEEEEE3$_1EEEEC2B8ue170006IJS9_ELi0EEEDpOT_', symObjAddr: 0x16F1C, symBinAddr: 0x10001AF68, symSize: 0x34 }
  - { offsetInCU: 0x36E93, offset: 0x36E93, size: 0x8, addend: 0x0, symName: '__ZNSt3__112__tuple_implINS_15__tuple_indicesIJLm0EEEEJONS_9allocatorIZ12combinationsiiNS_8functionIFvNS_6vectorIbNS3_IbEEEEEEEE3$_1EEEEC1B8ue170006IJLm0EEJSC_EJEJEJSB_EEENS1_IJXspT_EEEENS_13__tuple_typesIJDpT0_EEENS1_IJXspT1_EEEENSG_IJDpT2_EEEDpOT3_', symObjAddr: 0x16F50, symBinAddr: 0x10001AF9C, symSize: 0x34 }
  - { offsetInCU: 0x36F28, offset: 0x36F28, size: 0x8, addend: 0x0, symName: '__ZNSt3__112__tuple_implINS_15__tuple_indicesIJLm0EEEEJONS_9allocatorIZ12combinationsiiNS_8functionIFvNS_6vectorIbNS3_IbEEEEEEEE3$_1EEEEC2B8ue170006IJLm0EEJSC_EJEJEJSB_EEENS1_IJXspT_EEEENS_13__tuple_typesIJDpT0_EEENS1_IJXspT1_EEEENSG_IJDpT2_EEEDpOT3_', symObjAddr: 0x16F84, symBinAddr: 0x10001AFD0, symSize: 0x34 }
  - { offsetInCU: 0x36FBD, offset: 0x36FBD, size: 0x8, addend: 0x0, symName: '__ZNSt3__112__tuple_leafILm0EONS_9allocatorIZ12combinationsiiNS_8functionIFvNS_6vectorIbNS1_IbEEEEEEEE3$_1EELb0EEC2B8ue170006IS9_vEEOT_', symObjAddr: 0x16FB8, symBinAddr: 0x10001B004, symSize: 0x20 }
  - { offsetInCU: 0x37000, offset: 0x37000, size: 0x8, addend: 0x0, symName: '__ZNSt3__117__compressed_pairIZ12combinationsiiNS_8functionIFvNS_6vectorIbNS_9allocatorIbEEEEEEEE3$_1NS3_IS8_EEEC2B8ue170006IJOS8_EJOS9_EEENS_21piecewise_construct_tENS_5tupleIJDpT_EEENSF_IJDpT0_EEE', symObjAddr: 0x16FD8, symBinAddr: 0x10001B024, symSize: 0x54 }
  - { offsetInCU: 0x3706A, offset: 0x3706A, size: 0x8, addend: 0x0, symName: '__ZNSt3__122__compressed_pair_elemIZ12combinationsiiNS_8functionIFvNS_6vectorIbNS_9allocatorIbEEEEEEEE3$_1Li0ELb0EEC2B8ue170006IJOS8_EJLm0EEEENS_21piecewise_construct_tENS_5tupleIJDpT_EEENS_15__tuple_indicesIJXspT0_EEEE', symObjAddr: 0x1702C, symBinAddr: 0x10001B078, symSize: 0x4C }
  - { offsetInCU: 0x370CD, offset: 0x370CD, size: 0x8, addend: 0x0, symName: '__ZNSt3__122__compressed_pair_elemINS_9allocatorIZ12combinationsiiNS_8functionIFvNS_6vectorIbNS1_IbEEEEEEEE3$_1EELi1ELb1EEC2B8ue170006IJOS9_EJLm0EEEENS_21piecewise_construct_tENS_5tupleIJDpT_EEENS_15__tuple_indicesIJXspT0_EEEE', symObjAddr: 0x17078, symBinAddr: 0x10001B0C4, symSize: 0x38 }
  - { offsetInCU: 0x37130, offset: 0x37130, size: 0x8, addend: 0x0, symName: '__ZNSt3__112__tuple_leafILm0EOZ12combinationsiiNS_8functionIFvNS_6vectorIbNS_9allocatorIbEEEEEEEE3$_1Lb0EE3getB8ue170006Ev', symObjAddr: 0x170D4, symBinAddr: 0x10001B120, symSize: 0x18 }
  - { offsetInCU: 0x37156, offset: 0x37156, size: 0x8, addend: 0x0, symName: '__ZNSt3__112__tuple_leafILm0EONS_9allocatorIZ12combinationsiiNS_8functionIFvNS_6vectorIbNS1_IbEEEEEEEE3$_1EELb0EE3getB8ue170006Ev', symObjAddr: 0x17110, symBinAddr: 0x10001B15C, symSize: 0x18 }
  - { offsetInCU: 0x3717C, offset: 0x3717C, size: 0x8, addend: 0x0, symName: '__ZNSt3__110__function6__funcIZ12combinationsiiNS_8functionIFvNS_6vectorIbNS_9allocatorIbEEEEEEEE3$_1NS4_IS9_EEFviEED2Ev', symObjAddr: 0x17128, symBinAddr: 0x10001B174, symSize: 0x2C }
  - { offsetInCU: 0x371A9, offset: 0x371A9, size: 0x8, addend: 0x0, symName: '__ZNKSt3__110__function12__alloc_funcIZ12combinationsiiNS_8functionIFvNS_6vectorIbNS_9allocatorIbEEEEEEEE3$_1NS4_IS9_EEFviEE15__get_allocatorB8ue170006Ev', symObjAddr: 0x17154, symBinAddr: 0x10001B1A0, symSize: 0x24 }
  - { offsetInCU: 0x371FD, offset: 0x371FD, size: 0x8, addend: 0x0, symName: '__ZNSt3__110unique_ptrINS_10__function6__funcIZ12combinationsiiNS_8functionIFvNS_6vectorIbNS_9allocatorIbEEEEEEEE3$_1NS5_ISA_EEFviEEENS_22__allocator_destructorINS5_ISD_EEEEEC1B8ue170006ILb1EvEEPSD_NS_16__dependent_typeINS_27__unique_ptr_deleter_sfinaeISG_EEXT_EE20__good_rval_ref_typeE', symObjAddr: 0x17178, symBinAddr: 0x10001B1C4, symSize: 0x3C }
  - { offsetInCU: 0x3724E, offset: 0x3724E, size: 0x8, addend: 0x0, symName: '__ZNKSt3__110unique_ptrINS_10__function6__funcIZ12combinationsiiNS_8functionIFvNS_6vectorIbNS_9allocatorIbEEEEEEEE3$_1NS5_ISA_EEFviEEENS_22__allocator_destructorINS5_ISD_EEEEE3getB8ue170006Ev', symObjAddr: 0x171B4, symBinAddr: 0x10001B200, symSize: 0x28 }
  - { offsetInCU: 0x37274, offset: 0x37274, size: 0x8, addend: 0x0, symName: '__ZNKSt3__110__function12__alloc_funcIZ12combinationsiiNS_8functionIFvNS_6vectorIbNS_9allocatorIbEEEEEEEE3$_1NS4_IS9_EEFviEE8__targetB8ue170006Ev', symObjAddr: 0x171DC, symBinAddr: 0x10001B228, symSize: 0x24 }
  - { offsetInCU: 0x372A0, offset: 0x372A0, size: 0x8, addend: 0x0, symName: '__ZNSt3__19allocatorIZ12combinationsiiNS_8functionIFvNS_6vectorIbNS0_IbEEEEEEEE3$_1EC1B8ue170006INS_10__function6__funcIS7_S8_FviEEEEERKNS0_IT_EE', symObjAddr: 0x17200, symBinAddr: 0x10001B24C, symSize: 0x34 }
  - { offsetInCU: 0x372DD, offset: 0x372DD, size: 0x8, addend: 0x0, symName: '__ZNSt3__110__function6__funcIZ12combinationsiiNS_8functionIFvNS_6vectorIbNS_9allocatorIbEEEEEEEE3$_1NS4_IS9_EEFviEEC1B8ue170006ERKS9_OSA_', symObjAddr: 0x17234, symBinAddr: 0x10001B280, symSize: 0x3C }
  - { offsetInCU: 0x37325, offset: 0x37325, size: 0x8, addend: 0x0, symName: '__ZNSt3__110unique_ptrINS_10__function6__funcIZ12combinationsiiNS_8functionIFvNS_6vectorIbNS_9allocatorIbEEEEEEEE3$_1NS5_ISA_EEFviEEENS_22__allocator_destructorINS5_ISD_EEEEE7releaseB8ue170006Ev', symObjAddr: 0x17270, symBinAddr: 0x10001B2BC, symSize: 0x44 }
  - { offsetInCU: 0x3735A, offset: 0x3735A, size: 0x8, addend: 0x0, symName: '__ZNSt3__110unique_ptrINS_10__function6__funcIZ12combinationsiiNS_8functionIFvNS_6vectorIbNS_9allocatorIbEEEEEEEE3$_1NS5_ISA_EEFviEEENS_22__allocator_destructorINS5_ISD_EEEEED1B8ue170006Ev', symObjAddr: 0x172B4, symBinAddr: 0x10001B300, symSize: 0x2C }
  - { offsetInCU: 0x37384, offset: 0x37384, size: 0x8, addend: 0x0, symName: '__ZNKSt3__117__compressed_pairIZ12combinationsiiNS_8functionIFvNS_6vectorIbNS_9allocatorIbEEEEEEEE3$_1NS3_IS8_EEE6secondB8ue170006Ev', symObjAddr: 0x172E0, symBinAddr: 0x10001B32C, symSize: 0x24 }
  - { offsetInCU: 0x373AA, offset: 0x373AA, size: 0x8, addend: 0x0, symName: '__ZNKSt3__122__compressed_pair_elemINS_9allocatorIZ12combinationsiiNS_8functionIFvNS_6vectorIbNS1_IbEEEEEEEE3$_1EELi1ELb1EE5__getB8ue170006Ev', symObjAddr: 0x17304, symBinAddr: 0x10001B350, symSize: 0x14 }
  - { offsetInCU: 0x373D0, offset: 0x373D0, size: 0x8, addend: 0x0, symName: '__ZNSt3__110unique_ptrINS_10__function6__funcIZ12combinationsiiNS_8functionIFvNS_6vectorIbNS_9allocatorIbEEEEEEEE3$_1NS5_ISA_EEFviEEENS_22__allocator_destructorINS5_ISD_EEEEEC2B8ue170006ILb1EvEEPSD_NS_16__dependent_typeINS_27__unique_ptr_deleter_sfinaeISG_EEXT_EE20__good_rval_ref_typeE', symObjAddr: 0x17318, symBinAddr: 0x10001B364, symSize: 0x48 }
  - { offsetInCU: 0x37421, offset: 0x37421, size: 0x8, addend: 0x0, symName: '__ZNKSt3__117__compressed_pairIZ12combinationsiiNS_8functionIFvNS_6vectorIbNS_9allocatorIbEEEEEEEE3$_1NS3_IS8_EEE5firstB8ue170006Ev', symObjAddr: 0x17360, symBinAddr: 0x10001B3AC, symSize: 0x24 }
  - { offsetInCU: 0x37447, offset: 0x37447, size: 0x8, addend: 0x0, symName: '__ZNKSt3__122__compressed_pair_elemIZ12combinationsiiNS_8functionIFvNS_6vectorIbNS_9allocatorIbEEEEEEEE3$_1Li0ELb0EE5__getB8ue170006Ev', symObjAddr: 0x17384, symBinAddr: 0x10001B3D0, symSize: 0x14 }
  - { offsetInCU: 0x3746D, offset: 0x3746D, size: 0x8, addend: 0x0, symName: '__ZNSt3__19allocatorIZ12combinationsiiNS_8functionIFvNS_6vectorIbNS0_IbEEEEEEEE3$_1EC2B8ue170006INS_10__function6__funcIS7_S8_FviEEEEERKNS0_IT_EE', symObjAddr: 0x17398, symBinAddr: 0x10001B3E4, symSize: 0x30 }
  - { offsetInCU: 0x374AA, offset: 0x374AA, size: 0x8, addend: 0x0, symName: '__ZNSt3__110__function6__funcIZ12combinationsiiNS_8functionIFvNS_6vectorIbNS_9allocatorIbEEEEEEEE3$_1NS4_IS9_EEFviEEC2B8ue170006ERKS9_OSA_', symObjAddr: 0x173C8, symBinAddr: 0x10001B414, symSize: 0x88 }
  - { offsetInCU: 0x374F2, offset: 0x374F2, size: 0x8, addend: 0x0, symName: '__ZNSt3__110__function12__alloc_funcIZ12combinationsiiNS_8functionIFvNS_6vectorIbNS_9allocatorIbEEEEEEEE3$_1NS4_IS9_EEFviEEC1B8ue170006ERKS9_OSA_', symObjAddr: 0x17450, symBinAddr: 0x10001B49C, symSize: 0x3C }
  - { offsetInCU: 0x37538, offset: 0x37538, size: 0x8, addend: 0x0, symName: '__ZNSt3__110__function12__alloc_funcIZ12combinationsiiNS_8functionIFvNS_6vectorIbNS_9allocatorIbEEEEEEEE3$_1NS4_IS9_EEFviEEC2B8ue170006ERKS9_OSA_', symObjAddr: 0x1748C, symBinAddr: 0x10001B4D8, symSize: 0x5C }
  - { offsetInCU: 0x3757E, offset: 0x3757E, size: 0x8, addend: 0x0, symName: '__ZNSt3__117__compressed_pairIZ12combinationsiiNS_8functionIFvNS_6vectorIbNS_9allocatorIbEEEEEEEE3$_1NS3_IS8_EEEC1B8ue170006IJRKS8_EJOS9_EEENS_21piecewise_construct_tENS_5tupleIJDpT_EEENSG_IJDpT0_EEE', symObjAddr: 0x17514, symBinAddr: 0x10001B560, symSize: 0x3C }
  - { offsetInCU: 0x375E8, offset: 0x375E8, size: 0x8, addend: 0x0, symName: '__ZNSt3__15tupleIJRKZ12combinationsiiNS_8functionIFvNS_6vectorIbNS_9allocatorIbEEEEEEEE3$_1EEC1B8ue170006INS_4_AndELi0EEESA_', symObjAddr: 0x17550, symBinAddr: 0x10001B59C, symSize: 0x34 }
  - { offsetInCU: 0x37630, offset: 0x37630, size: 0x8, addend: 0x0, symName: '__ZNSt3__15tupleIJRKZ12combinationsiiNS_8functionIFvNS_6vectorIbNS_9allocatorIbEEEEEEEE3$_1EEC2B8ue170006INS_4_AndELi0EEESA_', symObjAddr: 0x17584, symBinAddr: 0x10001B5D0, symSize: 0x34 }
  - { offsetInCU: 0x37678, offset: 0x37678, size: 0x8, addend: 0x0, symName: '__ZNSt3__112__tuple_implINS_15__tuple_indicesIJLm0EEEEJRKZ12combinationsiiNS_8functionIFvNS_6vectorIbNS_9allocatorIbEEEEEEEE3$_1EEC1B8ue170006IJLm0EEJSC_EJEJEJSC_EEENS1_IJXspT_EEEENS_13__tuple_typesIJDpT0_EEENS1_IJXspT1_EEEENSG_IJDpT2_EEEDpOT3_', symObjAddr: 0x175B8, symBinAddr: 0x10001B604, symSize: 0x34 }
  - { offsetInCU: 0x3770D, offset: 0x3770D, size: 0x8, addend: 0x0, symName: '__ZNSt3__112__tuple_implINS_15__tuple_indicesIJLm0EEEEJRKZ12combinationsiiNS_8functionIFvNS_6vectorIbNS_9allocatorIbEEEEEEEE3$_1EEC2B8ue170006IJLm0EEJSC_EJEJEJSC_EEENS1_IJXspT_EEEENS_13__tuple_typesIJDpT0_EEENS1_IJXspT1_EEEENSG_IJDpT2_EEEDpOT3_', symObjAddr: 0x175EC, symBinAddr: 0x10001B638, symSize: 0x34 }
  - { offsetInCU: 0x377A2, offset: 0x377A2, size: 0x8, addend: 0x0, symName: '__ZNSt3__112__tuple_leafILm0ERKZ12combinationsiiNS_8functionIFvNS_6vectorIbNS_9allocatorIbEEEEEEEE3$_1Lb0EEC2B8ue170006ISA_vEEOT_', symObjAddr: 0x17620, symBinAddr: 0x10001B66C, symSize: 0x20 }
  - { offsetInCU: 0x377E5, offset: 0x377E5, size: 0x8, addend: 0x0, symName: '__ZNSt3__117__compressed_pairIZ12combinationsiiNS_8functionIFvNS_6vectorIbNS_9allocatorIbEEEEEEEE3$_1NS3_IS8_EEEC2B8ue170006IJRKS8_EJOS9_EEENS_21piecewise_construct_tENS_5tupleIJDpT_EEENSG_IJDpT0_EEE', symObjAddr: 0x17640, symBinAddr: 0x10001B68C, symSize: 0x54 }
  - { offsetInCU: 0x3784F, offset: 0x3784F, size: 0x8, addend: 0x0, symName: '__ZNSt3__122__compressed_pair_elemIZ12combinationsiiNS_8functionIFvNS_6vectorIbNS_9allocatorIbEEEEEEEE3$_1Li0ELb0EEC2B8ue170006IJRKS8_EJLm0EEEENS_21piecewise_construct_tENS_5tupleIJDpT_EEENS_15__tuple_indicesIJXspT0_EEEE', symObjAddr: 0x17694, symBinAddr: 0x10001B6E0, symSize: 0x4C }
  - { offsetInCU: 0x378B2, offset: 0x378B2, size: 0x8, addend: 0x0, symName: '__ZNSt3__112__tuple_leafILm0ERKZ12combinationsiiNS_8functionIFvNS_6vectorIbNS_9allocatorIbEEEEEEEE3$_1Lb0EE3getB8ue170006Ev', symObjAddr: 0x17704, symBinAddr: 0x10001B750, symSize: 0x18 }
  - { offsetInCU: 0x378D8, offset: 0x378D8, size: 0x8, addend: 0x0, symName: '__ZNSt3__117__compressed_pairIPNS_10__function6__funcIZ12combinationsiiNS_8functionIFvNS_6vectorIbNS_9allocatorIbEEEEEEEE3$_1NS5_ISA_EEFviEEENS_22__allocator_destructorINS5_ISD_EEEEE5firstB8ue170006Ev', symObjAddr: 0x1771C, symBinAddr: 0x10001B768, symSize: 0x24 }
  - { offsetInCU: 0x378FE, offset: 0x378FE, size: 0x8, addend: 0x0, symName: '__ZNSt3__122__compressed_pair_elemIPNS_10__function6__funcIZ12combinationsiiNS_8functionIFvNS_6vectorIbNS_9allocatorIbEEEEEEEE3$_1NS5_ISA_EEFviEEELi0ELb0EE5__getB8ue170006Ev', symObjAddr: 0x17740, symBinAddr: 0x10001B78C, symSize: 0x14 }
  - { offsetInCU: 0x37924, offset: 0x37924, size: 0x8, addend: 0x0, symName: '__ZNSt3__110unique_ptrINS_10__function6__funcIZ12combinationsiiNS_8functionIFvNS_6vectorIbNS_9allocatorIbEEEEEEEE3$_1NS5_ISA_EEFviEEENS_22__allocator_destructorINS5_ISD_EEEEED2B8ue170006Ev', symObjAddr: 0x17754, symBinAddr: 0x10001B7A0, symSize: 0x30 }
  - { offsetInCU: 0x3794E, offset: 0x3794E, size: 0x8, addend: 0x0, symName: '__ZNSt3__110unique_ptrINS_10__function6__funcIZ12combinationsiiNS_8functionIFvNS_6vectorIbNS_9allocatorIbEEEEEEEE3$_1NS5_ISA_EEFviEEENS_22__allocator_destructorINS5_ISD_EEEEE5resetB8ue170006EPSD_', symObjAddr: 0x17784, symBinAddr: 0x10001B7D0, symSize: 0x78 }
  - { offsetInCU: 0x37992, offset: 0x37992, size: 0x8, addend: 0x0, symName: '__ZNSt3__117__compressed_pairIPNS_10__function6__funcIZ12combinationsiiNS_8functionIFvNS_6vectorIbNS_9allocatorIbEEEEEEEE3$_1NS5_ISA_EEFviEEENS_22__allocator_destructorINS5_ISD_EEEEE6secondB8ue170006Ev', symObjAddr: 0x177FC, symBinAddr: 0x10001B848, symSize: 0x28 }
  - { offsetInCU: 0x379B8, offset: 0x379B8, size: 0x8, addend: 0x0, symName: '__ZNSt3__122__allocator_destructorINS_9allocatorINS_10__function6__funcIZ12combinationsiiNS_8functionIFvNS_6vectorIbNS1_IbEEEEEEEE3$_1NS1_ISA_EEFviEEEEEEclB8ue170006EPSD_', symObjAddr: 0x17824, symBinAddr: 0x10001B870, symSize: 0x34 }
  - { offsetInCU: 0x379EC, offset: 0x379EC, size: 0x8, addend: 0x0, symName: '__ZNSt3__122__compressed_pair_elemINS_22__allocator_destructorINS_9allocatorINS_10__function6__funcIZ12combinationsiiNS_8functionIFvNS_6vectorIbNS2_IbEEEEEEEE3$_1NS2_ISB_EEFviEEEEEEELi1ELb0EE5__getB8ue170006Ev', symObjAddr: 0x17858, symBinAddr: 0x10001B8A4, symSize: 0x14 }
  - { offsetInCU: 0x37A12, offset: 0x37A12, size: 0x8, addend: 0x0, symName: '__ZNSt3__116allocator_traitsINS_9allocatorINS_10__function6__funcIZ12combinationsiiNS_8functionIFvNS_6vectorIbNS1_IbEEEEEEEE3$_1NS1_ISA_EEFviEEEEEE10deallocateB8ue170006ERSE_PSD_m', symObjAddr: 0x1786C, symBinAddr: 0x10001B8B8, symSize: 0x34 }
  - { offsetInCU: 0x37A54, offset: 0x37A54, size: 0x8, addend: 0x0, symName: '__ZNSt3__19allocatorINS_10__function6__funcIZ12combinationsiiNS_8functionIFvNS_6vectorIbNS0_IbEEEEEEEE3$_1NS0_IS9_EEFviEEEE10deallocateB8ue170006EPSC_m', symObjAddr: 0x178A0, symBinAddr: 0x10001B8EC, symSize: 0x44 }
  - { offsetInCU: 0x37A96, offset: 0x37A96, size: 0x8, addend: 0x0, symName: '__ZNSt3__110__function6__funcIZ12combinationsiiNS_8functionIFvNS_6vectorIbNS_9allocatorIbEEEEEEEE3$_1NS4_IS9_EEFviEEC1B8ue170006ERKS9_RKSA_', symObjAddr: 0x178E4, symBinAddr: 0x10001B930, symSize: 0x3C }
  - { offsetInCU: 0x37ADE, offset: 0x37ADE, size: 0x8, addend: 0x0, symName: '__ZNSt3__110__function6__funcIZ12combinationsiiNS_8functionIFvNS_6vectorIbNS_9allocatorIbEEEEEEEE3$_1NS4_IS9_EEFviEEC2B8ue170006ERKS9_RKSA_', symObjAddr: 0x17920, symBinAddr: 0x10001B96C, symSize: 0x88 }
  - { offsetInCU: 0x37B26, offset: 0x37B26, size: 0x8, addend: 0x0, symName: '__ZNSt3__110__function12__alloc_funcIZ12combinationsiiNS_8functionIFvNS_6vectorIbNS_9allocatorIbEEEEEEEE3$_1NS4_IS9_EEFviEEC1B8ue170006ERKS9_RKSA_', symObjAddr: 0x179A8, symBinAddr: 0x10001B9F4, symSize: 0x3C }
  - { offsetInCU: 0x37B6C, offset: 0x37B6C, size: 0x8, addend: 0x0, symName: '__ZNSt3__110__function12__alloc_funcIZ12combinationsiiNS_8functionIFvNS_6vectorIbNS_9allocatorIbEEEEEEEE3$_1NS4_IS9_EEFviEEC2B8ue170006ERKS9_RKSA_', symObjAddr: 0x179E4, symBinAddr: 0x10001BA30, symSize: 0x5C }
  - { offsetInCU: 0x37BB2, offset: 0x37BB2, size: 0x8, addend: 0x0, symName: '__ZNSt3__117__compressed_pairIZ12combinationsiiNS_8functionIFvNS_6vectorIbNS_9allocatorIbEEEEEEEE3$_1NS3_IS8_EEEC1B8ue170006IJRKS8_EJRKS9_EEENS_21piecewise_construct_tENS_5tupleIJDpT_EEENSH_IJDpT0_EEE', symObjAddr: 0x17A6C, symBinAddr: 0x10001BAB8, symSize: 0x3C }
  - { offsetInCU: 0x37C1C, offset: 0x37C1C, size: 0x8, addend: 0x0, symName: '__ZNSt3__15tupleIJRKNS_9allocatorIZ12combinationsiiNS_8functionIFvNS_6vectorIbNS1_IbEEEEEEEE3$_1EEEEC1B8ue170006INS_4_AndELi0EEESB_', symObjAddr: 0x17AA8, symBinAddr: 0x10001BAF4, symSize: 0x34 }
  - { offsetInCU: 0x37C64, offset: 0x37C64, size: 0x8, addend: 0x0, symName: '__ZNSt3__15tupleIJRKNS_9allocatorIZ12combinationsiiNS_8functionIFvNS_6vectorIbNS1_IbEEEEEEEE3$_1EEEEC2B8ue170006INS_4_AndELi0EEESB_', symObjAddr: 0x17ADC, symBinAddr: 0x10001BB28, symSize: 0x34 }
  - { offsetInCU: 0x37CAC, offset: 0x37CAC, size: 0x8, addend: 0x0, symName: '__ZNSt3__112__tuple_implINS_15__tuple_indicesIJLm0EEEEJRKNS_9allocatorIZ12combinationsiiNS_8functionIFvNS_6vectorIbNS3_IbEEEEEEEE3$_1EEEEC1B8ue170006IJLm0EEJSD_EJEJEJSD_EEENS1_IJXspT_EEEENS_13__tuple_typesIJDpT0_EEENS1_IJXspT1_EEEENSH_IJDpT2_EEEDpOT3_', symObjAddr: 0x17B10, symBinAddr: 0x10001BB5C, symSize: 0x34 }
  - { offsetInCU: 0x37D41, offset: 0x37D41, size: 0x8, addend: 0x0, symName: '__ZNSt3__112__tuple_implINS_15__tuple_indicesIJLm0EEEEJRKNS_9allocatorIZ12combinationsiiNS_8functionIFvNS_6vectorIbNS3_IbEEEEEEEE3$_1EEEEC2B8ue170006IJLm0EEJSD_EJEJEJSD_EEENS1_IJXspT_EEEENS_13__tuple_typesIJDpT0_EEENS1_IJXspT1_EEEENSH_IJDpT2_EEEDpOT3_', symObjAddr: 0x17B44, symBinAddr: 0x10001BB90, symSize: 0x34 }
  - { offsetInCU: 0x37DD6, offset: 0x37DD6, size: 0x8, addend: 0x0, symName: '__ZNSt3__112__tuple_leafILm0ERKNS_9allocatorIZ12combinationsiiNS_8functionIFvNS_6vectorIbNS1_IbEEEEEEEE3$_1EELb0EEC2B8ue170006ISB_vEEOT_', symObjAddr: 0x17B78, symBinAddr: 0x10001BBC4, symSize: 0x20 }
  - { offsetInCU: 0x37E19, offset: 0x37E19, size: 0x8, addend: 0x0, symName: '__ZNSt3__117__compressed_pairIZ12combinationsiiNS_8functionIFvNS_6vectorIbNS_9allocatorIbEEEEEEEE3$_1NS3_IS8_EEEC2B8ue170006IJRKS8_EJRKS9_EEENS_21piecewise_construct_tENS_5tupleIJDpT_EEENSH_IJDpT0_EEE', symObjAddr: 0x17B98, symBinAddr: 0x10001BBE4, symSize: 0x54 }
  - { offsetInCU: 0x37E83, offset: 0x37E83, size: 0x8, addend: 0x0, symName: '__ZNSt3__122__compressed_pair_elemINS_9allocatorIZ12combinationsiiNS_8functionIFvNS_6vectorIbNS1_IbEEEEEEEE3$_1EELi1ELb1EEC2B8ue170006IJRKS9_EJLm0EEEENS_21piecewise_construct_tENS_5tupleIJDpT_EEENS_15__tuple_indicesIJXspT0_EEEE', symObjAddr: 0x17BEC, symBinAddr: 0x10001BC38, symSize: 0x38 }
  - { offsetInCU: 0x37EE6, offset: 0x37EE6, size: 0x8, addend: 0x0, symName: '__ZNSt3__112__tuple_leafILm0ERKNS_9allocatorIZ12combinationsiiNS_8functionIFvNS_6vectorIbNS1_IbEEEEEEEE3$_1EELb0EE3getB8ue170006Ev', symObjAddr: 0x17C48, symBinAddr: 0x10001BC94, symSize: 0x18 }
  - { offsetInCU: 0x37F0C, offset: 0x37F0C, size: 0x8, addend: 0x0, symName: '__ZNSt3__110__function12__alloc_funcIZ12combinationsiiNS_8functionIFvNS_6vectorIbNS_9allocatorIbEEEEEEEE3$_1NS4_IS9_EEFviEE7destroyB8ue170006Ev', symObjAddr: 0x17C60, symBinAddr: 0x10001BCAC, symSize: 0x10 }
  - { offsetInCU: 0x37F32, offset: 0x37F32, size: 0x8, addend: 0x0, symName: '__ZNSt3__110__function12__alloc_funcIZ12combinationsiiNS_8functionIFvNS_6vectorIbNS_9allocatorIbEEEEEEEE3$_1NS4_IS9_EEFviEEclB8ue170006EOi', symObjAddr: 0x17C70, symBinAddr: 0x10001BCBC, symSize: 0x30 }
  - { offsetInCU: 0x37F66, offset: 0x37F66, size: 0x8, addend: 0x0, symName: '__ZNSt3__128__invoke_void_return_wrapperIvLb1EE6__callB8ue170006IJRZ12combinationsiiNS_8functionIFvNS_6vectorIbNS_9allocatorIbEEEEEEEE3$_1iEEEvDpOT_', symObjAddr: 0x17CA0, symBinAddr: 0x10001BCEC, symSize: 0x2C }
  - { offsetInCU: 0x37FA9, offset: 0x37FA9, size: 0x8, addend: 0x0, symName: '__ZNSt3__117__compressed_pairIZ12combinationsiiNS_8functionIFvNS_6vectorIbNS_9allocatorIbEEEEEEEE3$_1NS3_IS8_EEE5firstB8ue170006Ev', symObjAddr: 0x17CCC, symBinAddr: 0x10001BD18, symSize: 0x24 }
  - { offsetInCU: 0x37FD5, offset: 0x37FD5, size: 0x8, addend: 0x0, symName: '__ZZ12combinationsiiNSt3__18functionIFvNS_6vectorIbNS_9allocatorIbEEEEEEEENK3$_1clEi', symObjAddr: 0x17D20, symBinAddr: 0x10001BD6C, symSize: 0x16C }
  - { offsetInCU: 0x3800E, offset: 0x3800E, size: 0x8, addend: 0x0, symName: '__ZNSt3__122__compressed_pair_elemIZ12combinationsiiNS_8functionIFvNS_6vectorIbNS_9allocatorIbEEEEEEEE3$_1Li0ELb0EE5__getB8ue170006Ev', symObjAddr: 0x17E8C, symBinAddr: 0x10001BED8, symSize: 0x14 }
  - { offsetInCU: 0x38034, offset: 0x38034, size: 0x8, addend: 0x0, symName: '__ZNSt3__110unique_ptrINS_10__function6__baseIFviEEENS_22__allocator_destructorINS_9allocatorINS1_6__funcIZ12combinationsiiNS_8functionIFvNS_6vectorIbNS6_IbEEEEEEEE3$_1NS6_ISE_EES3_EEEEEEED2B8ue170006Ev', symObjAddr: 0x17EA0, symBinAddr: 0x10001BEEC, symSize: 0x30 }
  - { offsetInCU: 0x3805E, offset: 0x3805E, size: 0x8, addend: 0x0, symName: '__ZNSt3__110unique_ptrINS_10__function6__baseIFviEEENS_22__allocator_destructorINS_9allocatorINS1_6__funcIZ12combinationsiiNS_8functionIFvNS_6vectorIbNS6_IbEEEEEEEE3$_1NS6_ISE_EES3_EEEEEEE5resetB8ue170006EPSG_', symObjAddr: 0x17ED0, symBinAddr: 0x10001BF1C, symSize: 0x78 }
  - { offsetInCU: 0x380A2, offset: 0x380A2, size: 0x8, addend: 0x0, symName: __ZNSt3__18functionIFviEED2Ev, symObjAddr: 0x17F48, symBinAddr: 0x10001BF94, symSize: 0x2C }
  - { offsetInCU: 0x380CE, offset: 0x380CE, size: 0x8, addend: 0x0, symName: __ZNSt3__110__function12__value_funcIFviEED1B8ue170006Ev, symObjAddr: 0x17F74, symBinAddr: 0x10001BFC0, symSize: 0x2C }
  - { offsetInCU: 0x380F8, offset: 0x380F8, size: 0x8, addend: 0x0, symName: __ZNSt3__110__function12__value_funcIFviEED2B8ue170006Ev, symObjAddr: 0x17FA0, symBinAddr: 0x10001BFEC, symSize: 0x90 }
  - { offsetInCU: 0x38122, offset: 0x38122, size: 0x8, addend: 0x0, symName: '__ZNSt3__18functionIFviEEC2IZ23iterate_words_of_weightiiNS0_IFvNS_6vectorIbNS_9allocatorIbEEEEEEEE3$_2vEET_', symObjAddr: 0x18030, symBinAddr: 0x10001C07C, symSize: 0x34 }
  - { offsetInCU: 0x38168, offset: 0x38168, size: 0x8, addend: 0x0, symName: '__ZNSt3__110__function12__value_funcIFviEEC1B8ue170006IZ23iterate_words_of_weightiiNS_8functionIFvNS_6vectorIbNS_9allocatorIbEEEEEEEE3$_2vEEOT_', symObjAddr: 0x18064, symBinAddr: 0x10001C0B0, symSize: 0x50 }
  - { offsetInCU: 0x381AB, offset: 0x381AB, size: 0x8, addend: 0x0, symName: '__ZNSt3__19allocatorIZ23iterate_words_of_weightiiNS_8functionIFvNS_6vectorIbNS0_IbEEEEEEEE3$_2EC1B8ue170006Ev', symObjAddr: 0x180B4, symBinAddr: 0x10001C100, symSize: 0x2C }
  - { offsetInCU: 0x381D5, offset: 0x381D5, size: 0x8, addend: 0x0, symName: '__ZNSt3__110__function12__value_funcIFviEEC1B8ue170006IZ23iterate_words_of_weightiiNS_8functionIFvNS_6vectorIbNS_9allocatorIbEEEEEEEE3$_2NS7_ISC_EEEEOT_RKT0_', symObjAddr: 0x180E0, symBinAddr: 0x10001C12C, symSize: 0x3C }
  - { offsetInCU: 0x3822F, offset: 0x3822F, size: 0x8, addend: 0x0, symName: '__ZNSt3__19allocatorIZ23iterate_words_of_weightiiNS_8functionIFvNS_6vectorIbNS0_IbEEEEEEEE3$_2EC2B8ue170006Ev', symObjAddr: 0x1811C, symBinAddr: 0x10001C168, symSize: 0x2C }
  - { offsetInCU: 0x38259, offset: 0x38259, size: 0x8, addend: 0x0, symName: '__ZNSt3__116__non_trivial_ifILb1ENS_9allocatorIZ23iterate_words_of_weightiiNS_8functionIFvNS_6vectorIbNS1_IbEEEEEEEE3$_2EEEC2B8ue170006Ev', symObjAddr: 0x18148, symBinAddr: 0x10001C194, symSize: 0x14 }
  - { offsetInCU: 0x38283, offset: 0x38283, size: 0x8, addend: 0x0, symName: '__ZNSt3__110__function12__value_funcIFviEEC2B8ue170006IZ23iterate_words_of_weightiiNS_8functionIFvNS_6vectorIbNS_9allocatorIbEEEEEEEE3$_2NS7_ISC_EEEEOT_RKT0_', symObjAddr: 0x1815C, symBinAddr: 0x10001C1A8, symSize: 0xF4 }
  - { offsetInCU: 0x3833C, offset: 0x3833C, size: 0x8, addend: 0x0, symName: '__ZNSt3__19allocatorINS_10__function6__funcIZ23iterate_words_of_weightiiNS_8functionIFvNS_6vectorIbNS0_IbEEEEEEEE3$_2NS0_IS9_EEFviEEEEC1B8ue170006IS9_EERKNS0_IT_EE', symObjAddr: 0x18268, symBinAddr: 0x10001C2B4, symSize: 0x34 }
  - { offsetInCU: 0x38379, offset: 0x38379, size: 0x8, addend: 0x0, symName: '__ZNSt3__19allocatorINS_10__function6__funcIZ23iterate_words_of_weightiiNS_8functionIFvNS_6vectorIbNS0_IbEEEEEEEE3$_2NS0_IS9_EEFviEEEE8allocateB8ue170006Em', symObjAddr: 0x1829C, symBinAddr: 0x10001C2E8, symSize: 0x5C }
  - { offsetInCU: 0x383BF, offset: 0x383BF, size: 0x8, addend: 0x0, symName: '__ZNSt3__122__allocator_destructorINS_9allocatorINS_10__function6__funcIZ23iterate_words_of_weightiiNS_8functionIFvNS_6vectorIbNS1_IbEEEEEEEE3$_2NS1_ISA_EEFviEEEEEEC1B8ue170006ERSE_m', symObjAddr: 0x182F8, symBinAddr: 0x10001C344, symSize: 0x3C }
  - { offsetInCU: 0x384A6, offset: 0x384A6, size: 0x8, addend: 0x0, symName: '__ZNSt3__110unique_ptrINS_10__function6__baseIFviEEENS_22__allocator_destructorINS_9allocatorINS1_6__funcIZ23iterate_words_of_weightiiNS_8functionIFvNS_6vectorIbNS6_IbEEEEEEEE3$_2NS6_ISE_EES3_EEEEEEEC1B8ue170006ILb1EvEEPSG_NS_16__dependent_typeINS_27__unique_ptr_deleter_sfinaeISI_EEXT_EE20__good_rval_ref_typeE', symObjAddr: 0x18334, symBinAddr: 0x10001C380, symSize: 0x3C }
  - { offsetInCU: 0x384F7, offset: 0x384F7, size: 0x8, addend: 0x0, symName: '__ZNKSt3__110unique_ptrINS_10__function6__baseIFviEEENS_22__allocator_destructorINS_9allocatorINS1_6__funcIZ23iterate_words_of_weightiiNS_8functionIFvNS_6vectorIbNS6_IbEEEEEEEE3$_2NS6_ISE_EES3_EEEEEEE3getB8ue170006Ev', symObjAddr: 0x18370, symBinAddr: 0x10001C3BC, symSize: 0x28 }
  - { offsetInCU: 0x3851D, offset: 0x3851D, size: 0x8, addend: 0x0, symName: '__ZNSt3__110__function6__funcIZ23iterate_words_of_weightiiNS_8functionIFvNS_6vectorIbNS_9allocatorIbEEEEEEEE3$_2NS4_IS9_EEFviEEC1B8ue170006EOS9_OSA_', symObjAddr: 0x18398, symBinAddr: 0x10001C3E4, symSize: 0x3C }
  - { offsetInCU: 0x38565, offset: 0x38565, size: 0x8, addend: 0x0, symName: '__ZNSt3__110unique_ptrINS_10__function6__baseIFviEEENS_22__allocator_destructorINS_9allocatorINS1_6__funcIZ23iterate_words_of_weightiiNS_8functionIFvNS_6vectorIbNS6_IbEEEEEEEE3$_2NS6_ISE_EES3_EEEEEEE7releaseB8ue170006Ev', symObjAddr: 0x183D4, symBinAddr: 0x10001C420, symSize: 0x44 }
  - { offsetInCU: 0x3859A, offset: 0x3859A, size: 0x8, addend: 0x0, symName: '__ZNSt3__110unique_ptrINS_10__function6__baseIFviEEENS_22__allocator_destructorINS_9allocatorINS1_6__funcIZ23iterate_words_of_weightiiNS_8functionIFvNS_6vectorIbNS6_IbEEEEEEEE3$_2NS6_ISE_EES3_EEEEEEED1B8ue170006Ev', symObjAddr: 0x18418, symBinAddr: 0x10001C464, symSize: 0x2C }
  - { offsetInCU: 0x385C4, offset: 0x385C4, size: 0x8, addend: 0x0, symName: '__ZNSt3__19allocatorINS_10__function6__funcIZ23iterate_words_of_weightiiNS_8functionIFvNS_6vectorIbNS0_IbEEEEEEEE3$_2NS0_IS9_EEFviEEEEC2B8ue170006IS9_EERKNS0_IT_EE', symObjAddr: 0x18444, symBinAddr: 0x10001C490, symSize: 0x30 }
  - { offsetInCU: 0x38601, offset: 0x38601, size: 0x8, addend: 0x0, symName: '__ZNSt3__116__non_trivial_ifILb1ENS_9allocatorINS_10__function6__funcIZ23iterate_words_of_weightiiNS_8functionIFvNS_6vectorIbNS1_IbEEEEEEEE3$_2NS1_ISA_EEFviEEEEEEC2B8ue170006Ev', symObjAddr: 0x18474, symBinAddr: 0x10001C4C0, symSize: 0x14 }
  - { offsetInCU: 0x38636, offset: 0x38636, size: 0x8, addend: 0x0, symName: '__ZNSt3__116allocator_traitsINS_9allocatorINS_10__function6__funcIZ23iterate_words_of_weightiiNS_8functionIFvNS_6vectorIbNS1_IbEEEEEEEE3$_2NS1_ISA_EEFviEEEEEE8max_sizeB8ue170006ISE_vEEmRKSE_', symObjAddr: 0x18488, symBinAddr: 0x10001C4D4, symSize: 0x24 }
  - { offsetInCU: 0x38664, offset: 0x38664, size: 0x8, addend: 0x0, symName: '__ZNKSt3__19allocatorINS_10__function6__funcIZ23iterate_words_of_weightiiNS_8functionIFvNS_6vectorIbNS0_IbEEEEEEEE3$_2NS0_IS9_EEFviEEEE8max_sizeB8ue170006Ev', symObjAddr: 0x184AC, symBinAddr: 0x10001C4F8, symSize: 0x18 }
  - { offsetInCU: 0x3868A, offset: 0x3868A, size: 0x8, addend: 0x0, symName: '__ZNSt3__122__allocator_destructorINS_9allocatorINS_10__function6__funcIZ23iterate_words_of_weightiiNS_8functionIFvNS_6vectorIbNS1_IbEEEEEEEE3$_2NS1_ISA_EEFviEEEEEEC2B8ue170006ERSE_m', symObjAddr: 0x184C4, symBinAddr: 0x10001C510, symSize: 0x2C }
  - { offsetInCU: 0x386D0, offset: 0x386D0, size: 0x8, addend: 0x0, symName: '__ZNSt3__110unique_ptrINS_10__function6__baseIFviEEENS_22__allocator_destructorINS_9allocatorINS1_6__funcIZ23iterate_words_of_weightiiNS_8functionIFvNS_6vectorIbNS6_IbEEEEEEEE3$_2NS6_ISE_EES3_EEEEEEEC2B8ue170006ILb1EvEEPSG_NS_16__dependent_typeINS_27__unique_ptr_deleter_sfinaeISI_EEXT_EE20__good_rval_ref_typeE', symObjAddr: 0x184F0, symBinAddr: 0x10001C53C, symSize: 0x48 }
  - { offsetInCU: 0x38721, offset: 0x38721, size: 0x8, addend: 0x0, symName: '__ZNSt3__117__compressed_pairIPNS_10__function6__funcIZ23iterate_words_of_weightiiNS_8functionIFvNS_6vectorIbNS_9allocatorIbEEEEEEEE3$_2NS5_ISA_EEFviEEENS_22__allocator_destructorINS5_ISD_EEEEEC1B8ue170006IRSE_SH_EEOT_OT0_', symObjAddr: 0x18538, symBinAddr: 0x10001C584, symSize: 0x3C }
  - { offsetInCU: 0x38779, offset: 0x38779, size: 0x8, addend: 0x0, symName: '__ZNSt3__117__compressed_pairIPNS_10__function6__funcIZ23iterate_words_of_weightiiNS_8functionIFvNS_6vectorIbNS_9allocatorIbEEEEEEEE3$_2NS5_ISA_EEFviEEENS_22__allocator_destructorINS5_ISD_EEEEEC2B8ue170006IRSE_SH_EEOT_OT0_', symObjAddr: 0x18574, symBinAddr: 0x10001C5C0, symSize: 0x48 }
  - { offsetInCU: 0x387D1, offset: 0x387D1, size: 0x8, addend: 0x0, symName: '__ZNSt3__122__compressed_pair_elemIPNS_10__function6__funcIZ23iterate_words_of_weightiiNS_8functionIFvNS_6vectorIbNS_9allocatorIbEEEEEEEE3$_2NS5_ISA_EEFviEEELi0ELb0EEC2B8ue170006IRSE_vEEOT_', symObjAddr: 0x185BC, symBinAddr: 0x10001C608, symSize: 0x24 }
  - { offsetInCU: 0x38813, offset: 0x38813, size: 0x8, addend: 0x0, symName: '__ZNSt3__122__compressed_pair_elemINS_22__allocator_destructorINS_9allocatorINS_10__function6__funcIZ23iterate_words_of_weightiiNS_8functionIFvNS_6vectorIbNS2_IbEEEEEEEE3$_2NS2_ISB_EEFviEEEEEEELi1ELb0EEC2B8ue170006ISG_vEEOT_', symObjAddr: 0x185E0, symBinAddr: 0x10001C62C, symSize: 0x24 }
  - { offsetInCU: 0x38855, offset: 0x38855, size: 0x8, addend: 0x0, symName: '__ZNKSt3__117__compressed_pairIPNS_10__function6__funcIZ23iterate_words_of_weightiiNS_8functionIFvNS_6vectorIbNS_9allocatorIbEEEEEEEE3$_2NS5_ISA_EEFviEEENS_22__allocator_destructorINS5_ISD_EEEEE5firstB8ue170006Ev', symObjAddr: 0x18604, symBinAddr: 0x10001C650, symSize: 0x24 }
  - { offsetInCU: 0x3887B, offset: 0x3887B, size: 0x8, addend: 0x0, symName: '__ZNKSt3__122__compressed_pair_elemIPNS_10__function6__funcIZ23iterate_words_of_weightiiNS_8functionIFvNS_6vectorIbNS_9allocatorIbEEEEEEEE3$_2NS5_ISA_EEFviEEELi0ELb0EE5__getB8ue170006Ev', symObjAddr: 0x18628, symBinAddr: 0x10001C674, symSize: 0x14 }
  - { offsetInCU: 0x388A1, offset: 0x388A1, size: 0x8, addend: 0x0, symName: '__ZNSt3__110__function6__funcIZ23iterate_words_of_weightiiNS_8functionIFvNS_6vectorIbNS_9allocatorIbEEEEEEEE3$_2NS4_IS9_EEFviEEC2B8ue170006EOS9_OSA_', symObjAddr: 0x1863C, symBinAddr: 0x10001C688, symSize: 0x88 }
  - { offsetInCU: 0x388E9, offset: 0x388E9, size: 0x8, addend: 0x0, symName: '__ZNSt3__110__function12__alloc_funcIZ23iterate_words_of_weightiiNS_8functionIFvNS_6vectorIbNS_9allocatorIbEEEEEEEE3$_2NS4_IS9_EEFviEEC1B8ue170006EOS9_OSA_', symObjAddr: 0x186C4, symBinAddr: 0x10001C710, symSize: 0x3C }
  - { offsetInCU: 0x3892F, offset: 0x3892F, size: 0x8, addend: 0x0, symName: '__ZNSt3__110__function6__funcIZ23iterate_words_of_weightiiNS_8functionIFvNS_6vectorIbNS_9allocatorIbEEEEEEEE3$_2NS4_IS9_EEFviEED1Ev', symObjAddr: 0x18700, symBinAddr: 0x10001C74C, symSize: 0x2C }
  - { offsetInCU: 0x3895C, offset: 0x3895C, size: 0x8, addend: 0x0, symName: '__ZNSt3__110__function6__funcIZ23iterate_words_of_weightiiNS_8functionIFvNS_6vectorIbNS_9allocatorIbEEEEEEEE3$_2NS4_IS9_EEFviEED0Ev', symObjAddr: 0x1872C, symBinAddr: 0x10001C778, symSize: 0x30 }
  - { offsetInCU: 0x38989, offset: 0x38989, size: 0x8, addend: 0x0, symName: '__ZNKSt3__110__function6__funcIZ23iterate_words_of_weightiiNS_8functionIFvNS_6vectorIbNS_9allocatorIbEEEEEEEE3$_2NS4_IS9_EEFviEE7__cloneEv', symObjAddr: 0x1875C, symBinAddr: 0x10001C7A8, symSize: 0xFC }
  - { offsetInCU: 0x389DB, offset: 0x389DB, size: 0x8, addend: 0x0, symName: '__ZNKSt3__110__function6__funcIZ23iterate_words_of_weightiiNS_8functionIFvNS_6vectorIbNS_9allocatorIbEEEEEEEE3$_2NS4_IS9_EEFviEE7__cloneEPNS0_6__baseISB_EE', symObjAddr: 0x18858, symBinAddr: 0x10001C8A4, symSize: 0x58 }
  - { offsetInCU: 0x38A12, offset: 0x38A12, size: 0x8, addend: 0x0, symName: '__ZNSt3__110__function6__funcIZ23iterate_words_of_weightiiNS_8functionIFvNS_6vectorIbNS_9allocatorIbEEEEEEEE3$_2NS4_IS9_EEFviEE7destroyEv', symObjAddr: 0x188B0, symBinAddr: 0x10001C8FC, symSize: 0x28 }
  - { offsetInCU: 0x38A3A, offset: 0x38A3A, size: 0x8, addend: 0x0, symName: '__ZNSt3__110__function6__funcIZ23iterate_words_of_weightiiNS_8functionIFvNS_6vectorIbNS_9allocatorIbEEEEEEEE3$_2NS4_IS9_EEFviEE18destroy_deallocateEv', symObjAddr: 0x188D8, symBinAddr: 0x10001C924, symSize: 0x58 }
  - { offsetInCU: 0x38A7D, offset: 0x38A7D, size: 0x8, addend: 0x0, symName: '__ZNSt3__110__function6__funcIZ23iterate_words_of_weightiiNS_8functionIFvNS_6vectorIbNS_9allocatorIbEEEEEEEE3$_2NS4_IS9_EEFviEEclEOi', symObjAddr: 0x18930, symBinAddr: 0x10001C97C, symSize: 0x30 }
  - { offsetInCU: 0x38AB4, offset: 0x38AB4, size: 0x8, addend: 0x0, symName: '__ZNKSt3__110__function6__funcIZ23iterate_words_of_weightiiNS_8functionIFvNS_6vectorIbNS_9allocatorIbEEEEEEEE3$_2NS4_IS9_EEFviEE6targetERKSt9type_info', symObjAddr: 0x18960, symBinAddr: 0x10001C9AC, symSize: 0x60 }
  - { offsetInCU: 0x38AEB, offset: 0x38AEB, size: 0x8, addend: 0x0, symName: '__ZNKSt3__110__function6__funcIZ23iterate_words_of_weightiiNS_8functionIFvNS_6vectorIbNS_9allocatorIbEEEEEEEE3$_2NS4_IS9_EEFviEE11target_typeEv', symObjAddr: 0x189C0, symBinAddr: 0x10001CA0C, symSize: 0x18 }
  - { offsetInCU: 0x38B13, offset: 0x38B13, size: 0x8, addend: 0x0, symName: '__ZNSt3__110__function12__alloc_funcIZ23iterate_words_of_weightiiNS_8functionIFvNS_6vectorIbNS_9allocatorIbEEEEEEEE3$_2NS4_IS9_EEFviEEC2B8ue170006EOS9_OSA_', symObjAddr: 0x189D8, symBinAddr: 0x10001CA24, symSize: 0x5C }
  - { offsetInCU: 0x38B59, offset: 0x38B59, size: 0x8, addend: 0x0, symName: '__ZNSt3__117__compressed_pairIZ23iterate_words_of_weightiiNS_8functionIFvNS_6vectorIbNS_9allocatorIbEEEEEEEE3$_2NS3_IS8_EEEC1B8ue170006IJOS8_EJOS9_EEENS_21piecewise_construct_tENS_5tupleIJDpT_EEENSF_IJDpT0_EEE', symObjAddr: 0x18A8C, symBinAddr: 0x10001CAD8, symSize: 0x3C }
  - { offsetInCU: 0x38BC3, offset: 0x38BC3, size: 0x8, addend: 0x0, symName: '__ZNSt3__15tupleIJOZ23iterate_words_of_weightiiNS_8functionIFvNS_6vectorIbNS_9allocatorIbEEEEEEEE3$_2EEC1B8ue170006IJS8_ELi0EEEDpOT_', symObjAddr: 0x18AC8, symBinAddr: 0x10001CB14, symSize: 0x34 }
  - { offsetInCU: 0x38C0D, offset: 0x38C0D, size: 0x8, addend: 0x0, symName: '__ZNSt3__15tupleIJOZ23iterate_words_of_weightiiNS_8functionIFvNS_6vectorIbNS_9allocatorIbEEEEEEEE3$_2EEC2B8ue170006IJS8_ELi0EEEDpOT_', symObjAddr: 0x18AFC, symBinAddr: 0x10001CB48, symSize: 0x34 }
  - { offsetInCU: 0x38C57, offset: 0x38C57, size: 0x8, addend: 0x0, symName: '__ZNSt3__112__tuple_implINS_15__tuple_indicesIJLm0EEEEJOZ23iterate_words_of_weightiiNS_8functionIFvNS_6vectorIbNS_9allocatorIbEEEEEEEE3$_2EEC1B8ue170006IJLm0EEJSB_EJEJEJSA_EEENS1_IJXspT_EEEENS_13__tuple_typesIJDpT0_EEENS1_IJXspT1_EEEENSF_IJDpT2_EEEDpOT3_', symObjAddr: 0x18B30, symBinAddr: 0x10001CB7C, symSize: 0x34 }
  - { offsetInCU: 0x38CEC, offset: 0x38CEC, size: 0x8, addend: 0x0, symName: '__ZNSt3__112__tuple_implINS_15__tuple_indicesIJLm0EEEEJOZ23iterate_words_of_weightiiNS_8functionIFvNS_6vectorIbNS_9allocatorIbEEEEEEEE3$_2EEC2B8ue170006IJLm0EEJSB_EJEJEJSA_EEENS1_IJXspT_EEEENS_13__tuple_typesIJDpT0_EEENS1_IJXspT1_EEEENSF_IJDpT2_EEEDpOT3_', symObjAddr: 0x18B64, symBinAddr: 0x10001CBB0, symSize: 0x34 }
  - { offsetInCU: 0x38D81, offset: 0x38D81, size: 0x8, addend: 0x0, symName: '__ZNSt3__112__tuple_leafILm0EOZ23iterate_words_of_weightiiNS_8functionIFvNS_6vectorIbNS_9allocatorIbEEEEEEEE3$_2Lb0EEC2B8ue170006IS8_vEEOT_', symObjAddr: 0x18B98, symBinAddr: 0x10001CBE4, symSize: 0x20 }
  - { offsetInCU: 0x38DC4, offset: 0x38DC4, size: 0x8, addend: 0x0, symName: '__ZNSt3__15tupleIJONS_9allocatorIZ23iterate_words_of_weightiiNS_8functionIFvNS_6vectorIbNS1_IbEEEEEEEE3$_2EEEEC1B8ue170006IJS9_ELi0EEEDpOT_', symObjAddr: 0x18BB8, symBinAddr: 0x10001CC04, symSize: 0x34 }
  - { offsetInCU: 0x38E0E, offset: 0x38E0E, size: 0x8, addend: 0x0, symName: '__ZNSt3__15tupleIJONS_9allocatorIZ23iterate_words_of_weightiiNS_8functionIFvNS_6vectorIbNS1_IbEEEEEEEE3$_2EEEEC2B8ue170006IJS9_ELi0EEEDpOT_', symObjAddr: 0x18BEC, symBinAddr: 0x10001CC38, symSize: 0x34 }
  - { offsetInCU: 0x38E58, offset: 0x38E58, size: 0x8, addend: 0x0, symName: '__ZNSt3__112__tuple_implINS_15__tuple_indicesIJLm0EEEEJONS_9allocatorIZ23iterate_words_of_weightiiNS_8functionIFvNS_6vectorIbNS3_IbEEEEEEEE3$_2EEEEC1B8ue170006IJLm0EEJSC_EJEJEJSB_EEENS1_IJXspT_EEEENS_13__tuple_typesIJDpT0_EEENS1_IJXspT1_EEEENSG_IJDpT2_EEEDpOT3_', symObjAddr: 0x18C20, symBinAddr: 0x10001CC6C, symSize: 0x34 }
  - { offsetInCU: 0x38EED, offset: 0x38EED, size: 0x8, addend: 0x0, symName: '__ZNSt3__112__tuple_implINS_15__tuple_indicesIJLm0EEEEJONS_9allocatorIZ23iterate_words_of_weightiiNS_8functionIFvNS_6vectorIbNS3_IbEEEEEEEE3$_2EEEEC2B8ue170006IJLm0EEJSC_EJEJEJSB_EEENS1_IJXspT_EEEENS_13__tuple_typesIJDpT0_EEENS1_IJXspT1_EEEENSG_IJDpT2_EEEDpOT3_', symObjAddr: 0x18C54, symBinAddr: 0x10001CCA0, symSize: 0x34 }
  - { offsetInCU: 0x38F82, offset: 0x38F82, size: 0x8, addend: 0x0, symName: '__ZNSt3__112__tuple_leafILm0EONS_9allocatorIZ23iterate_words_of_weightiiNS_8functionIFvNS_6vectorIbNS1_IbEEEEEEEE3$_2EELb0EEC2B8ue170006IS9_vEEOT_', symObjAddr: 0x18C88, symBinAddr: 0x10001CCD4, symSize: 0x20 }
  - { offsetInCU: 0x38FC5, offset: 0x38FC5, size: 0x8, addend: 0x0, symName: '__ZNSt3__117__compressed_pairIZ23iterate_words_of_weightiiNS_8functionIFvNS_6vectorIbNS_9allocatorIbEEEEEEEE3$_2NS3_IS8_EEEC2B8ue170006IJOS8_EJOS9_EEENS_21piecewise_construct_tENS_5tupleIJDpT_EEENSF_IJDpT0_EEE', symObjAddr: 0x18CA8, symBinAddr: 0x10001CCF4, symSize: 0x54 }
  - { offsetInCU: 0x3902F, offset: 0x3902F, size: 0x8, addend: 0x0, symName: '__ZNSt3__122__compressed_pair_elemIZ23iterate_words_of_weightiiNS_8functionIFvNS_6vectorIbNS_9allocatorIbEEEEEEEE3$_2Li0ELb0EEC2B8ue170006IJOS8_EJLm0EEEENS_21piecewise_construct_tENS_5tupleIJDpT_EEENS_15__tuple_indicesIJXspT0_EEEE', symObjAddr: 0x18CFC, symBinAddr: 0x10001CD48, symSize: 0x4C }
  - { offsetInCU: 0x39092, offset: 0x39092, size: 0x8, addend: 0x0, symName: '__ZNSt3__122__compressed_pair_elemINS_9allocatorIZ23iterate_words_of_weightiiNS_8functionIFvNS_6vectorIbNS1_IbEEEEEEEE3$_2EELi1ELb1EEC2B8ue170006IJOS9_EJLm0EEEENS_21piecewise_construct_tENS_5tupleIJDpT_EEENS_15__tuple_indicesIJXspT0_EEEE', symObjAddr: 0x18D48, symBinAddr: 0x10001CD94, symSize: 0x38 }
  - { offsetInCU: 0x390F5, offset: 0x390F5, size: 0x8, addend: 0x0, symName: '__ZNSt3__112__tuple_leafILm0EOZ23iterate_words_of_weightiiNS_8functionIFvNS_6vectorIbNS_9allocatorIbEEEEEEEE3$_2Lb0EE3getB8ue170006Ev', symObjAddr: 0x18DA4, symBinAddr: 0x10001CDF0, symSize: 0x18 }
  - { offsetInCU: 0x3911B, offset: 0x3911B, size: 0x8, addend: 0x0, symName: '__ZNSt3__112__tuple_leafILm0EONS_9allocatorIZ23iterate_words_of_weightiiNS_8functionIFvNS_6vectorIbNS1_IbEEEEEEEE3$_2EELb0EE3getB8ue170006Ev', symObjAddr: 0x18DE0, symBinAddr: 0x10001CE2C, symSize: 0x18 }
  - { offsetInCU: 0x39141, offset: 0x39141, size: 0x8, addend: 0x0, symName: '__ZNSt3__110__function6__funcIZ23iterate_words_of_weightiiNS_8functionIFvNS_6vectorIbNS_9allocatorIbEEEEEEEE3$_2NS4_IS9_EEFviEED2Ev', symObjAddr: 0x18DF8, symBinAddr: 0x10001CE44, symSize: 0x2C }
  - { offsetInCU: 0x3916E, offset: 0x3916E, size: 0x8, addend: 0x0, symName: '__ZNKSt3__110__function12__alloc_funcIZ23iterate_words_of_weightiiNS_8functionIFvNS_6vectorIbNS_9allocatorIbEEEEEEEE3$_2NS4_IS9_EEFviEE15__get_allocatorB8ue170006Ev', symObjAddr: 0x18E24, symBinAddr: 0x10001CE70, symSize: 0x24 }
  - { offsetInCU: 0x391C2, offset: 0x391C2, size: 0x8, addend: 0x0, symName: '__ZNSt3__110unique_ptrINS_10__function6__funcIZ23iterate_words_of_weightiiNS_8functionIFvNS_6vectorIbNS_9allocatorIbEEEEEEEE3$_2NS5_ISA_EEFviEEENS_22__allocator_destructorINS5_ISD_EEEEEC1B8ue170006ILb1EvEEPSD_NS_16__dependent_typeINS_27__unique_ptr_deleter_sfinaeISG_EEXT_EE20__good_rval_ref_typeE', symObjAddr: 0x18E48, symBinAddr: 0x10001CE94, symSize: 0x3C }
  - { offsetInCU: 0x39213, offset: 0x39213, size: 0x8, addend: 0x0, symName: '__ZNKSt3__110unique_ptrINS_10__function6__funcIZ23iterate_words_of_weightiiNS_8functionIFvNS_6vectorIbNS_9allocatorIbEEEEEEEE3$_2NS5_ISA_EEFviEEENS_22__allocator_destructorINS5_ISD_EEEEE3getB8ue170006Ev', symObjAddr: 0x18E84, symBinAddr: 0x10001CED0, symSize: 0x28 }
  - { offsetInCU: 0x39239, offset: 0x39239, size: 0x8, addend: 0x0, symName: '__ZNKSt3__110__function12__alloc_funcIZ23iterate_words_of_weightiiNS_8functionIFvNS_6vectorIbNS_9allocatorIbEEEEEEEE3$_2NS4_IS9_EEFviEE8__targetB8ue170006Ev', symObjAddr: 0x18EAC, symBinAddr: 0x10001CEF8, symSize: 0x24 }
  - { offsetInCU: 0x39265, offset: 0x39265, size: 0x8, addend: 0x0, symName: '__ZNSt3__19allocatorIZ23iterate_words_of_weightiiNS_8functionIFvNS_6vectorIbNS0_IbEEEEEEEE3$_2EC1B8ue170006INS_10__function6__funcIS7_S8_FviEEEEERKNS0_IT_EE', symObjAddr: 0x18ED0, symBinAddr: 0x10001CF1C, symSize: 0x34 }
  - { offsetInCU: 0x392A2, offset: 0x392A2, size: 0x8, addend: 0x0, symName: '__ZNSt3__110__function6__funcIZ23iterate_words_of_weightiiNS_8functionIFvNS_6vectorIbNS_9allocatorIbEEEEEEEE3$_2NS4_IS9_EEFviEEC1B8ue170006ERKS9_OSA_', symObjAddr: 0x18F04, symBinAddr: 0x10001CF50, symSize: 0x3C }
  - { offsetInCU: 0x392EA, offset: 0x392EA, size: 0x8, addend: 0x0, symName: '__ZNSt3__110unique_ptrINS_10__function6__funcIZ23iterate_words_of_weightiiNS_8functionIFvNS_6vectorIbNS_9allocatorIbEEEEEEEE3$_2NS5_ISA_EEFviEEENS_22__allocator_destructorINS5_ISD_EEEEE7releaseB8ue170006Ev', symObjAddr: 0x18F40, symBinAddr: 0x10001CF8C, symSize: 0x44 }
  - { offsetInCU: 0x3931F, offset: 0x3931F, size: 0x8, addend: 0x0, symName: '__ZNSt3__110unique_ptrINS_10__function6__funcIZ23iterate_words_of_weightiiNS_8functionIFvNS_6vectorIbNS_9allocatorIbEEEEEEEE3$_2NS5_ISA_EEFviEEENS_22__allocator_destructorINS5_ISD_EEEEED1B8ue170006Ev', symObjAddr: 0x18F84, symBinAddr: 0x10001CFD0, symSize: 0x2C }
  - { offsetInCU: 0x39349, offset: 0x39349, size: 0x8, addend: 0x0, symName: '__ZNKSt3__117__compressed_pairIZ23iterate_words_of_weightiiNS_8functionIFvNS_6vectorIbNS_9allocatorIbEEEEEEEE3$_2NS3_IS8_EEE6secondB8ue170006Ev', symObjAddr: 0x18FB0, symBinAddr: 0x10001CFFC, symSize: 0x24 }
  - { offsetInCU: 0x3936F, offset: 0x3936F, size: 0x8, addend: 0x0, symName: '__ZNKSt3__122__compressed_pair_elemINS_9allocatorIZ23iterate_words_of_weightiiNS_8functionIFvNS_6vectorIbNS1_IbEEEEEEEE3$_2EELi1ELb1EE5__getB8ue170006Ev', symObjAddr: 0x18FD4, symBinAddr: 0x10001D020, symSize: 0x14 }
  - { offsetInCU: 0x39395, offset: 0x39395, size: 0x8, addend: 0x0, symName: '__ZNSt3__110unique_ptrINS_10__function6__funcIZ23iterate_words_of_weightiiNS_8functionIFvNS_6vectorIbNS_9allocatorIbEEEEEEEE3$_2NS5_ISA_EEFviEEENS_22__allocator_destructorINS5_ISD_EEEEEC2B8ue170006ILb1EvEEPSD_NS_16__dependent_typeINS_27__unique_ptr_deleter_sfinaeISG_EEXT_EE20__good_rval_ref_typeE', symObjAddr: 0x18FE8, symBinAddr: 0x10001D034, symSize: 0x48 }
  - { offsetInCU: 0x393E6, offset: 0x393E6, size: 0x8, addend: 0x0, symName: '__ZNKSt3__117__compressed_pairIZ23iterate_words_of_weightiiNS_8functionIFvNS_6vectorIbNS_9allocatorIbEEEEEEEE3$_2NS3_IS8_EEE5firstB8ue170006Ev', symObjAddr: 0x19030, symBinAddr: 0x10001D07C, symSize: 0x24 }
  - { offsetInCU: 0x3940C, offset: 0x3940C, size: 0x8, addend: 0x0, symName: '__ZNKSt3__122__compressed_pair_elemIZ23iterate_words_of_weightiiNS_8functionIFvNS_6vectorIbNS_9allocatorIbEEEEEEEE3$_2Li0ELb0EE5__getB8ue170006Ev', symObjAddr: 0x19054, symBinAddr: 0x10001D0A0, symSize: 0x14 }
  - { offsetInCU: 0x39432, offset: 0x39432, size: 0x8, addend: 0x0, symName: '__ZNSt3__19allocatorIZ23iterate_words_of_weightiiNS_8functionIFvNS_6vectorIbNS0_IbEEEEEEEE3$_2EC2B8ue170006INS_10__function6__funcIS7_S8_FviEEEEERKNS0_IT_EE', symObjAddr: 0x19068, symBinAddr: 0x10001D0B4, symSize: 0x30 }
  - { offsetInCU: 0x3946F, offset: 0x3946F, size: 0x8, addend: 0x0, symName: '__ZNSt3__110__function6__funcIZ23iterate_words_of_weightiiNS_8functionIFvNS_6vectorIbNS_9allocatorIbEEEEEEEE3$_2NS4_IS9_EEFviEEC2B8ue170006ERKS9_OSA_', symObjAddr: 0x19098, symBinAddr: 0x10001D0E4, symSize: 0x88 }
  - { offsetInCU: 0x394B7, offset: 0x394B7, size: 0x8, addend: 0x0, symName: '__ZNSt3__110__function12__alloc_funcIZ23iterate_words_of_weightiiNS_8functionIFvNS_6vectorIbNS_9allocatorIbEEEEEEEE3$_2NS4_IS9_EEFviEEC1B8ue170006ERKS9_OSA_', symObjAddr: 0x19120, symBinAddr: 0x10001D16C, symSize: 0x3C }
  - { offsetInCU: 0x394FD, offset: 0x394FD, size: 0x8, addend: 0x0, symName: '__ZNSt3__110__function12__alloc_funcIZ23iterate_words_of_weightiiNS_8functionIFvNS_6vectorIbNS_9allocatorIbEEEEEEEE3$_2NS4_IS9_EEFviEEC2B8ue170006ERKS9_OSA_', symObjAddr: 0x1915C, symBinAddr: 0x10001D1A8, symSize: 0x5C }
  - { offsetInCU: 0x39543, offset: 0x39543, size: 0x8, addend: 0x0, symName: '__ZNSt3__117__compressed_pairIZ23iterate_words_of_weightiiNS_8functionIFvNS_6vectorIbNS_9allocatorIbEEEEEEEE3$_2NS3_IS8_EEEC1B8ue170006IJRKS8_EJOS9_EEENS_21piecewise_construct_tENS_5tupleIJDpT_EEENSG_IJDpT0_EEE', symObjAddr: 0x191E4, symBinAddr: 0x10001D230, symSize: 0x3C }
  - { offsetInCU: 0x395AD, offset: 0x395AD, size: 0x8, addend: 0x0, symName: '__ZNSt3__15tupleIJRKZ23iterate_words_of_weightiiNS_8functionIFvNS_6vectorIbNS_9allocatorIbEEEEEEEE3$_2EEC1B8ue170006INS_4_AndELi0EEESA_', symObjAddr: 0x19220, symBinAddr: 0x10001D26C, symSize: 0x34 }
  - { offsetInCU: 0x395F5, offset: 0x395F5, size: 0x8, addend: 0x0, symName: '__ZNSt3__15tupleIJRKZ23iterate_words_of_weightiiNS_8functionIFvNS_6vectorIbNS_9allocatorIbEEEEEEEE3$_2EEC2B8ue170006INS_4_AndELi0EEESA_', symObjAddr: 0x19254, symBinAddr: 0x10001D2A0, symSize: 0x34 }
  - { offsetInCU: 0x3963D, offset: 0x3963D, size: 0x8, addend: 0x0, symName: '__ZNSt3__112__tuple_implINS_15__tuple_indicesIJLm0EEEEJRKZ23iterate_words_of_weightiiNS_8functionIFvNS_6vectorIbNS_9allocatorIbEEEEEEEE3$_2EEC1B8ue170006IJLm0EEJSC_EJEJEJSC_EEENS1_IJXspT_EEEENS_13__tuple_typesIJDpT0_EEENS1_IJXspT1_EEEENSG_IJDpT2_EEEDpOT3_', symObjAddr: 0x19288, symBinAddr: 0x10001D2D4, symSize: 0x34 }
  - { offsetInCU: 0x396D2, offset: 0x396D2, size: 0x8, addend: 0x0, symName: '__ZNSt3__112__tuple_implINS_15__tuple_indicesIJLm0EEEEJRKZ23iterate_words_of_weightiiNS_8functionIFvNS_6vectorIbNS_9allocatorIbEEEEEEEE3$_2EEC2B8ue170006IJLm0EEJSC_EJEJEJSC_EEENS1_IJXspT_EEEENS_13__tuple_typesIJDpT0_EEENS1_IJXspT1_EEEENSG_IJDpT2_EEEDpOT3_', symObjAddr: 0x192BC, symBinAddr: 0x10001D308, symSize: 0x34 }
  - { offsetInCU: 0x39767, offset: 0x39767, size: 0x8, addend: 0x0, symName: '__ZNSt3__112__tuple_leafILm0ERKZ23iterate_words_of_weightiiNS_8functionIFvNS_6vectorIbNS_9allocatorIbEEEEEEEE3$_2Lb0EEC2B8ue170006ISA_vEEOT_', symObjAddr: 0x192F0, symBinAddr: 0x10001D33C, symSize: 0x20 }
  - { offsetInCU: 0x397AA, offset: 0x397AA, size: 0x8, addend: 0x0, symName: '__ZNSt3__117__compressed_pairIZ23iterate_words_of_weightiiNS_8functionIFvNS_6vectorIbNS_9allocatorIbEEEEEEEE3$_2NS3_IS8_EEEC2B8ue170006IJRKS8_EJOS9_EEENS_21piecewise_construct_tENS_5tupleIJDpT_EEENSG_IJDpT0_EEE', symObjAddr: 0x19310, symBinAddr: 0x10001D35C, symSize: 0x54 }
  - { offsetInCU: 0x39814, offset: 0x39814, size: 0x8, addend: 0x0, symName: '__ZNSt3__122__compressed_pair_elemIZ23iterate_words_of_weightiiNS_8functionIFvNS_6vectorIbNS_9allocatorIbEEEEEEEE3$_2Li0ELb0EEC2B8ue170006IJRKS8_EJLm0EEEENS_21piecewise_construct_tENS_5tupleIJDpT_EEENS_15__tuple_indicesIJXspT0_EEEE', symObjAddr: 0x19364, symBinAddr: 0x10001D3B0, symSize: 0x4C }
  - { offsetInCU: 0x39877, offset: 0x39877, size: 0x8, addend: 0x0, symName: '__ZNSt3__112__tuple_leafILm0ERKZ23iterate_words_of_weightiiNS_8functionIFvNS_6vectorIbNS_9allocatorIbEEEEEEEE3$_2Lb0EE3getB8ue170006Ev', symObjAddr: 0x193D4, symBinAddr: 0x10001D420, symSize: 0x18 }
  - { offsetInCU: 0x3989D, offset: 0x3989D, size: 0x8, addend: 0x0, symName: '__ZNSt3__117__compressed_pairIPNS_10__function6__funcIZ23iterate_words_of_weightiiNS_8functionIFvNS_6vectorIbNS_9allocatorIbEEEEEEEE3$_2NS5_ISA_EEFviEEENS_22__allocator_destructorINS5_ISD_EEEEE5firstB8ue170006Ev', symObjAddr: 0x193EC, symBinAddr: 0x10001D438, symSize: 0x24 }
  - { offsetInCU: 0x398C3, offset: 0x398C3, size: 0x8, addend: 0x0, symName: '__ZNSt3__122__compressed_pair_elemIPNS_10__function6__funcIZ23iterate_words_of_weightiiNS_8functionIFvNS_6vectorIbNS_9allocatorIbEEEEEEEE3$_2NS5_ISA_EEFviEEELi0ELb0EE5__getB8ue170006Ev', symObjAddr: 0x19410, symBinAddr: 0x10001D45C, symSize: 0x14 }
  - { offsetInCU: 0x398E9, offset: 0x398E9, size: 0x8, addend: 0x0, symName: '__ZNSt3__110unique_ptrINS_10__function6__funcIZ23iterate_words_of_weightiiNS_8functionIFvNS_6vectorIbNS_9allocatorIbEEEEEEEE3$_2NS5_ISA_EEFviEEENS_22__allocator_destructorINS5_ISD_EEEEED2B8ue170006Ev', symObjAddr: 0x19424, symBinAddr: 0x10001D470, symSize: 0x30 }
  - { offsetInCU: 0x39913, offset: 0x39913, size: 0x8, addend: 0x0, symName: '__ZNSt3__110unique_ptrINS_10__function6__funcIZ23iterate_words_of_weightiiNS_8functionIFvNS_6vectorIbNS_9allocatorIbEEEEEEEE3$_2NS5_ISA_EEFviEEENS_22__allocator_destructorINS5_ISD_EEEEE5resetB8ue170006EPSD_', symObjAddr: 0x19454, symBinAddr: 0x10001D4A0, symSize: 0x78 }
  - { offsetInCU: 0x39957, offset: 0x39957, size: 0x8, addend: 0x0, symName: '__ZNSt3__117__compressed_pairIPNS_10__function6__funcIZ23iterate_words_of_weightiiNS_8functionIFvNS_6vectorIbNS_9allocatorIbEEEEEEEE3$_2NS5_ISA_EEFviEEENS_22__allocator_destructorINS5_ISD_EEEEE6secondB8ue170006Ev', symObjAddr: 0x194CC, symBinAddr: 0x10001D518, symSize: 0x28 }
  - { offsetInCU: 0x3997D, offset: 0x3997D, size: 0x8, addend: 0x0, symName: '__ZNSt3__122__allocator_destructorINS_9allocatorINS_10__function6__funcIZ23iterate_words_of_weightiiNS_8functionIFvNS_6vectorIbNS1_IbEEEEEEEE3$_2NS1_ISA_EEFviEEEEEEclB8ue170006EPSD_', symObjAddr: 0x194F4, symBinAddr: 0x10001D540, symSize: 0x34 }
  - { offsetInCU: 0x399B1, offset: 0x399B1, size: 0x8, addend: 0x0, symName: '__ZNSt3__122__compressed_pair_elemINS_22__allocator_destructorINS_9allocatorINS_10__function6__funcIZ23iterate_words_of_weightiiNS_8functionIFvNS_6vectorIbNS2_IbEEEEEEEE3$_2NS2_ISB_EEFviEEEEEEELi1ELb0EE5__getB8ue170006Ev', symObjAddr: 0x19528, symBinAddr: 0x10001D574, symSize: 0x14 }
  - { offsetInCU: 0x399D7, offset: 0x399D7, size: 0x8, addend: 0x0, symName: '__ZNSt3__116allocator_traitsINS_9allocatorINS_10__function6__funcIZ23iterate_words_of_weightiiNS_8functionIFvNS_6vectorIbNS1_IbEEEEEEEE3$_2NS1_ISA_EEFviEEEEEE10deallocateB8ue170006ERSE_PSD_m', symObjAddr: 0x1953C, symBinAddr: 0x10001D588, symSize: 0x34 }
  - { offsetInCU: 0x39A19, offset: 0x39A19, size: 0x8, addend: 0x0, symName: '__ZNSt3__19allocatorINS_10__function6__funcIZ23iterate_words_of_weightiiNS_8functionIFvNS_6vectorIbNS0_IbEEEEEEEE3$_2NS0_IS9_EEFviEEEE10deallocateB8ue170006EPSC_m', symObjAddr: 0x19570, symBinAddr: 0x10001D5BC, symSize: 0x44 }
  - { offsetInCU: 0x39A5B, offset: 0x39A5B, size: 0x8, addend: 0x0, symName: '__ZNSt3__110__function6__funcIZ23iterate_words_of_weightiiNS_8functionIFvNS_6vectorIbNS_9allocatorIbEEEEEEEE3$_2NS4_IS9_EEFviEEC1B8ue170006ERKS9_RKSA_', symObjAddr: 0x195B4, symBinAddr: 0x10001D600, symSize: 0x3C }
  - { offsetInCU: 0x39AA3, offset: 0x39AA3, size: 0x8, addend: 0x0, symName: '__ZNSt3__110__function6__funcIZ23iterate_words_of_weightiiNS_8functionIFvNS_6vectorIbNS_9allocatorIbEEEEEEEE3$_2NS4_IS9_EEFviEEC2B8ue170006ERKS9_RKSA_', symObjAddr: 0x195F0, symBinAddr: 0x10001D63C, symSize: 0x88 }
  - { offsetInCU: 0x39AEB, offset: 0x39AEB, size: 0x8, addend: 0x0, symName: '__ZNSt3__110__function12__alloc_funcIZ23iterate_words_of_weightiiNS_8functionIFvNS_6vectorIbNS_9allocatorIbEEEEEEEE3$_2NS4_IS9_EEFviEEC1B8ue170006ERKS9_RKSA_', symObjAddr: 0x19678, symBinAddr: 0x10001D6C4, symSize: 0x3C }
  - { offsetInCU: 0x39B31, offset: 0x39B31, size: 0x8, addend: 0x0, symName: '__ZNSt3__110__function12__alloc_funcIZ23iterate_words_of_weightiiNS_8functionIFvNS_6vectorIbNS_9allocatorIbEEEEEEEE3$_2NS4_IS9_EEFviEEC2B8ue170006ERKS9_RKSA_', symObjAddr: 0x196B4, symBinAddr: 0x10001D700, symSize: 0x5C }
  - { offsetInCU: 0x39B77, offset: 0x39B77, size: 0x8, addend: 0x0, symName: '__ZNSt3__117__compressed_pairIZ23iterate_words_of_weightiiNS_8functionIFvNS_6vectorIbNS_9allocatorIbEEEEEEEE3$_2NS3_IS8_EEEC1B8ue170006IJRKS8_EJRKS9_EEENS_21piecewise_construct_tENS_5tupleIJDpT_EEENSH_IJDpT0_EEE', symObjAddr: 0x1973C, symBinAddr: 0x10001D788, symSize: 0x3C }
  - { offsetInCU: 0x39BE1, offset: 0x39BE1, size: 0x8, addend: 0x0, symName: '__ZNSt3__15tupleIJRKNS_9allocatorIZ23iterate_words_of_weightiiNS_8functionIFvNS_6vectorIbNS1_IbEEEEEEEE3$_2EEEEC1B8ue170006INS_4_AndELi0EEESB_', symObjAddr: 0x19778, symBinAddr: 0x10001D7C4, symSize: 0x34 }
  - { offsetInCU: 0x39C29, offset: 0x39C29, size: 0x8, addend: 0x0, symName: '__ZNSt3__15tupleIJRKNS_9allocatorIZ23iterate_words_of_weightiiNS_8functionIFvNS_6vectorIbNS1_IbEEEEEEEE3$_2EEEEC2B8ue170006INS_4_AndELi0EEESB_', symObjAddr: 0x197AC, symBinAddr: 0x10001D7F8, symSize: 0x34 }
  - { offsetInCU: 0x39C71, offset: 0x39C71, size: 0x8, addend: 0x0, symName: '__ZNSt3__112__tuple_implINS_15__tuple_indicesIJLm0EEEEJRKNS_9allocatorIZ23iterate_words_of_weightiiNS_8functionIFvNS_6vectorIbNS3_IbEEEEEEEE3$_2EEEEC1B8ue170006IJLm0EEJSD_EJEJEJSD_EEENS1_IJXspT_EEEENS_13__tuple_typesIJDpT0_EEENS1_IJXspT1_EEEENSH_IJDpT2_EEEDpOT3_', symObjAddr: 0x197E0, symBinAddr: 0x10001D82C, symSize: 0x34 }
  - { offsetInCU: 0x39D06, offset: 0x39D06, size: 0x8, addend: 0x0, symName: '__ZNSt3__112__tuple_implINS_15__tuple_indicesIJLm0EEEEJRKNS_9allocatorIZ23iterate_words_of_weightiiNS_8functionIFvNS_6vectorIbNS3_IbEEEEEEEE3$_2EEEEC2B8ue170006IJLm0EEJSD_EJEJEJSD_EEENS1_IJXspT_EEEENS_13__tuple_typesIJDpT0_EEENS1_IJXspT1_EEEENSH_IJDpT2_EEEDpOT3_', symObjAddr: 0x19814, symBinAddr: 0x10001D860, symSize: 0x34 }
  - { offsetInCU: 0x39D9B, offset: 0x39D9B, size: 0x8, addend: 0x0, symName: '__ZNSt3__112__tuple_leafILm0ERKNS_9allocatorIZ23iterate_words_of_weightiiNS_8functionIFvNS_6vectorIbNS1_IbEEEEEEEE3$_2EELb0EEC2B8ue170006ISB_vEEOT_', symObjAddr: 0x19848, symBinAddr: 0x10001D894, symSize: 0x20 }
  - { offsetInCU: 0x39DDE, offset: 0x39DDE, size: 0x8, addend: 0x0, symName: '__ZNSt3__117__compressed_pairIZ23iterate_words_of_weightiiNS_8functionIFvNS_6vectorIbNS_9allocatorIbEEEEEEEE3$_2NS3_IS8_EEEC2B8ue170006IJRKS8_EJRKS9_EEENS_21piecewise_construct_tENS_5tupleIJDpT_EEENSH_IJDpT0_EEE', symObjAddr: 0x19868, symBinAddr: 0x10001D8B4, symSize: 0x54 }
  - { offsetInCU: 0x39E48, offset: 0x39E48, size: 0x8, addend: 0x0, symName: '__ZNSt3__122__compressed_pair_elemINS_9allocatorIZ23iterate_words_of_weightiiNS_8functionIFvNS_6vectorIbNS1_IbEEEEEEEE3$_2EELi1ELb1EEC2B8ue170006IJRKS9_EJLm0EEEENS_21piecewise_construct_tENS_5tupleIJDpT_EEENS_15__tuple_indicesIJXspT0_EEEE', symObjAddr: 0x198BC, symBinAddr: 0x10001D908, symSize: 0x38 }
  - { offsetInCU: 0x39EAB, offset: 0x39EAB, size: 0x8, addend: 0x0, symName: '__ZNSt3__112__tuple_leafILm0ERKNS_9allocatorIZ23iterate_words_of_weightiiNS_8functionIFvNS_6vectorIbNS1_IbEEEEEEEE3$_2EELb0EE3getB8ue170006Ev', symObjAddr: 0x19918, symBinAddr: 0x10001D964, symSize: 0x18 }
  - { offsetInCU: 0x39ED1, offset: 0x39ED1, size: 0x8, addend: 0x0, symName: '__ZNSt3__110__function12__alloc_funcIZ23iterate_words_of_weightiiNS_8functionIFvNS_6vectorIbNS_9allocatorIbEEEEEEEE3$_2NS4_IS9_EEFviEE7destroyB8ue170006Ev', symObjAddr: 0x19930, symBinAddr: 0x10001D97C, symSize: 0x10 }
  - { offsetInCU: 0x39EF7, offset: 0x39EF7, size: 0x8, addend: 0x0, symName: '__ZNSt3__110__function12__alloc_funcIZ23iterate_words_of_weightiiNS_8functionIFvNS_6vectorIbNS_9allocatorIbEEEEEEEE3$_2NS4_IS9_EEFviEEclB8ue170006EOi', symObjAddr: 0x19940, symBinAddr: 0x10001D98C, symSize: 0x30 }
  - { offsetInCU: 0x39F2B, offset: 0x39F2B, size: 0x8, addend: 0x0, symName: '__ZNSt3__128__invoke_void_return_wrapperIvLb1EE6__callB8ue170006IJRZ23iterate_words_of_weightiiNS_8functionIFvNS_6vectorIbNS_9allocatorIbEEEEEEEE3$_2iEEEvDpOT_', symObjAddr: 0x19970, symBinAddr: 0x10001D9BC, symSize: 0x2C }
  - { offsetInCU: 0x39F6E, offset: 0x39F6E, size: 0x8, addend: 0x0, symName: '__ZNSt3__117__compressed_pairIZ23iterate_words_of_weightiiNS_8functionIFvNS_6vectorIbNS_9allocatorIbEEEEEEEE3$_2NS3_IS8_EEE5firstB8ue170006Ev', symObjAddr: 0x1999C, symBinAddr: 0x10001D9E8, symSize: 0x24 }
  - { offsetInCU: 0x39F9A, offset: 0x39F9A, size: 0x8, addend: 0x0, symName: '__ZZ23iterate_words_of_weightiiNSt3__18functionIFvNS_6vectorIbNS_9allocatorIbEEEEEEEENK3$_2clEi', symObjAddr: 0x199F0, symBinAddr: 0x10001DA3C, symSize: 0x274 }
  - { offsetInCU: 0x39FD3, offset: 0x39FD3, size: 0x8, addend: 0x0, symName: '__ZNSt3__122__compressed_pair_elemIZ23iterate_words_of_weightiiNS_8functionIFvNS_6vectorIbNS_9allocatorIbEEEEEEEE3$_2Li0ELb0EE5__getB8ue170006Ev', symObjAddr: 0x19C64, symBinAddr: 0x10001DCB0, symSize: 0x14 }
  - { offsetInCU: 0x39FF9, offset: 0x39FF9, size: 0x8, addend: 0x0, symName: '__ZNSt3__110unique_ptrINS_10__function6__baseIFviEEENS_22__allocator_destructorINS_9allocatorINS1_6__funcIZ23iterate_words_of_weightiiNS_8functionIFvNS_6vectorIbNS6_IbEEEEEEEE3$_2NS6_ISE_EES3_EEEEEEED2B8ue170006Ev', symObjAddr: 0x19C78, symBinAddr: 0x10001DCC4, symSize: 0x30 }
  - { offsetInCU: 0x3A023, offset: 0x3A023, size: 0x8, addend: 0x0, symName: '__ZNSt3__110unique_ptrINS_10__function6__baseIFviEEENS_22__allocator_destructorINS_9allocatorINS1_6__funcIZ23iterate_words_of_weightiiNS_8functionIFvNS_6vectorIbNS6_IbEEEEEEEE3$_2NS6_ISE_EES3_EEEEEEE5resetB8ue170006EPSG_', symObjAddr: 0x19CA8, symBinAddr: 0x10001DCF4, symSize: 0x78 }
  - { offsetInCU: 0x3A067, offset: 0x3A067, size: 0x8, addend: 0x0, symName: '__ZNSt3__18functionIFvNS_6vectorIbNS_9allocatorIbEEEEEEC2IZ20bruteforce_distance07BMatrixE3$_3vEET_', symObjAddr: 0x19D20, symBinAddr: 0x10001DD6C, symSize: 0x34 }
  - { offsetInCU: 0x3A0AD, offset: 0x3A0AD, size: 0x8, addend: 0x0, symName: '__ZNSt3__110__function12__value_funcIFvNS_6vectorIbNS_9allocatorIbEEEEEEC1B8ue170006IZ20bruteforce_distance07BMatrixE3$_3vEEOT_', symObjAddr: 0x19D54, symBinAddr: 0x10001DDA0, symSize: 0x50 }
  - { offsetInCU: 0x3A0F0, offset: 0x3A0F0, size: 0x8, addend: 0x0, symName: '__ZNSt3__19allocatorIZ20bruteforce_distance07BMatrixE3$_3EC1B8ue170006Ev', symObjAddr: 0x19DA4, symBinAddr: 0x10001DDF0, symSize: 0x2C }
  - { offsetInCU: 0x3A11A, offset: 0x3A11A, size: 0x8, addend: 0x0, symName: '__ZNSt3__110__function12__value_funcIFvNS_6vectorIbNS_9allocatorIbEEEEEEC1B8ue170006IZ20bruteforce_distance07BMatrixE3$_3NS3_ISA_EEEEOT_RKT0_', symObjAddr: 0x19DD0, symBinAddr: 0x10001DE1C, symSize: 0x3C }
  - { offsetInCU: 0x3A174, offset: 0x3A174, size: 0x8, addend: 0x0, symName: '__ZNSt3__19allocatorIZ20bruteforce_distance07BMatrixE3$_3EC2B8ue170006Ev', symObjAddr: 0x19E0C, symBinAddr: 0x10001DE58, symSize: 0x2C }
  - { offsetInCU: 0x3A19E, offset: 0x3A19E, size: 0x8, addend: 0x0, symName: '__ZNSt3__116__non_trivial_ifILb1ENS_9allocatorIZ20bruteforce_distance07BMatrixE3$_3EEEC2B8ue170006Ev', symObjAddr: 0x19E38, symBinAddr: 0x10001DE84, symSize: 0x14 }
  - { offsetInCU: 0x3A1C8, offset: 0x3A1C8, size: 0x8, addend: 0x0, symName: '__ZNSt3__110__function12__value_funcIFvNS_6vectorIbNS_9allocatorIbEEEEEEC2B8ue170006IZ20bruteforce_distance07BMatrixE3$_3NS3_ISA_EEEEOT_RKT0_', symObjAddr: 0x19E4C, symBinAddr: 0x10001DE98, symSize: 0xF4 }
  - { offsetInCU: 0x3A281, offset: 0x3A281, size: 0x8, addend: 0x0, symName: '__ZNSt3__19allocatorINS_10__function6__funcIZ20bruteforce_distance07BMatrixE3$_3NS0_IS4_EEFvNS_6vectorIbNS0_IbEEEEEEEEC1B8ue170006IS4_EERKNS0_IT_EE', symObjAddr: 0x19F58, symBinAddr: 0x10001DFA4, symSize: 0x34 }
  - { offsetInCU: 0x3A2BE, offset: 0x3A2BE, size: 0x8, addend: 0x0, symName: '__ZNSt3__19allocatorINS_10__function6__funcIZ20bruteforce_distance07BMatrixE3$_3NS0_IS4_EEFvNS_6vectorIbNS0_IbEEEEEEEE8allocateB8ue170006Em', symObjAddr: 0x19F8C, symBinAddr: 0x10001DFD8, symSize: 0x58 }
  - { offsetInCU: 0x3A304, offset: 0x3A304, size: 0x8, addend: 0x0, symName: '__ZNSt3__122__allocator_destructorINS_9allocatorINS_10__function6__funcIZ20bruteforce_distance07BMatrixE3$_3NS1_IS5_EEFvNS_6vectorIbNS1_IbEEEEEEEEEEC1B8ue170006ERSC_m', symObjAddr: 0x19FE4, symBinAddr: 0x10001E030, symSize: 0x3C }
  - { offsetInCU: 0x3A3EB, offset: 0x3A3EB, size: 0x8, addend: 0x0, symName: '__ZNSt3__110unique_ptrINS_10__function6__baseIFvNS_6vectorIbNS_9allocatorIbEEEEEEENS_22__allocator_destructorINS4_INS1_6__funcIZ20bruteforce_distance07BMatrixE3$_3NS4_ISC_EES7_EEEEEEEC1B8ue170006ILb1EvEEPSE_NS_16__dependent_typeINS_27__unique_ptr_deleter_sfinaeISG_EEXT_EE20__good_rval_ref_typeE', symObjAddr: 0x1A020, symBinAddr: 0x10001E06C, symSize: 0x3C }
  - { offsetInCU: 0x3A43C, offset: 0x3A43C, size: 0x8, addend: 0x0, symName: '__ZNKSt3__110unique_ptrINS_10__function6__baseIFvNS_6vectorIbNS_9allocatorIbEEEEEEENS_22__allocator_destructorINS4_INS1_6__funcIZ20bruteforce_distance07BMatrixE3$_3NS4_ISC_EES7_EEEEEEE3getB8ue170006Ev', symObjAddr: 0x1A05C, symBinAddr: 0x10001E0A8, symSize: 0x28 }
  - { offsetInCU: 0x3A462, offset: 0x3A462, size: 0x8, addend: 0x0, symName: '__ZNSt3__110__function6__funcIZ20bruteforce_distance07BMatrixE3$_3NS_9allocatorIS3_EEFvNS_6vectorIbNS4_IbEEEEEEC1B8ue170006EOS3_OS5_', symObjAddr: 0x1A084, symBinAddr: 0x10001E0D0, symSize: 0x3C }
  - { offsetInCU: 0x3A4AA, offset: 0x3A4AA, size: 0x8, addend: 0x0, symName: '__ZNSt3__110unique_ptrINS_10__function6__baseIFvNS_6vectorIbNS_9allocatorIbEEEEEEENS_22__allocator_destructorINS4_INS1_6__funcIZ20bruteforce_distance07BMatrixE3$_3NS4_ISC_EES7_EEEEEEE7releaseB8ue170006Ev', symObjAddr: 0x1A0C0, symBinAddr: 0x10001E10C, symSize: 0x44 }
  - { offsetInCU: 0x3A4DF, offset: 0x3A4DF, size: 0x8, addend: 0x0, symName: '__ZNSt3__110unique_ptrINS_10__function6__baseIFvNS_6vectorIbNS_9allocatorIbEEEEEEENS_22__allocator_destructorINS4_INS1_6__funcIZ20bruteforce_distance07BMatrixE3$_3NS4_ISC_EES7_EEEEEEED1B8ue170006Ev', symObjAddr: 0x1A104, symBinAddr: 0x10001E150, symSize: 0x2C }
  - { offsetInCU: 0x3A509, offset: 0x3A509, size: 0x8, addend: 0x0, symName: '__ZNSt3__19allocatorINS_10__function6__funcIZ20bruteforce_distance07BMatrixE3$_3NS0_IS4_EEFvNS_6vectorIbNS0_IbEEEEEEEEC2B8ue170006IS4_EERKNS0_IT_EE', symObjAddr: 0x1A130, symBinAddr: 0x10001E17C, symSize: 0x30 }
  - { offsetInCU: 0x3A546, offset: 0x3A546, size: 0x8, addend: 0x0, symName: '__ZNSt3__116__non_trivial_ifILb1ENS_9allocatorINS_10__function6__funcIZ20bruteforce_distance07BMatrixE3$_3NS1_IS5_EEFvNS_6vectorIbNS1_IbEEEEEEEEEEC2B8ue170006Ev', symObjAddr: 0x1A160, symBinAddr: 0x10001E1AC, symSize: 0x14 }
  - { offsetInCU: 0x3A57B, offset: 0x3A57B, size: 0x8, addend: 0x0, symName: '__ZNSt3__116allocator_traitsINS_9allocatorINS_10__function6__funcIZ20bruteforce_distance07BMatrixE3$_3NS1_IS5_EEFvNS_6vectorIbNS1_IbEEEEEEEEEE8max_sizeB8ue170006ISC_vEEmRKSC_', symObjAddr: 0x1A174, symBinAddr: 0x10001E1C0, symSize: 0x24 }
  - { offsetInCU: 0x3A5A9, offset: 0x3A5A9, size: 0x8, addend: 0x0, symName: '__ZNKSt3__19allocatorINS_10__function6__funcIZ20bruteforce_distance07BMatrixE3$_3NS0_IS4_EEFvNS_6vectorIbNS0_IbEEEEEEEE8max_sizeB8ue170006Ev', symObjAddr: 0x1A198, symBinAddr: 0x10001E1E4, symSize: 0x14 }
  - { offsetInCU: 0x3A5CF, offset: 0x3A5CF, size: 0x8, addend: 0x0, symName: '__ZNSt3__122__allocator_destructorINS_9allocatorINS_10__function6__funcIZ20bruteforce_distance07BMatrixE3$_3NS1_IS5_EEFvNS_6vectorIbNS1_IbEEEEEEEEEEC2B8ue170006ERSC_m', symObjAddr: 0x1A1AC, symBinAddr: 0x10001E1F8, symSize: 0x2C }
  - { offsetInCU: 0x3A615, offset: 0x3A615, size: 0x8, addend: 0x0, symName: '__ZNSt3__110unique_ptrINS_10__function6__baseIFvNS_6vectorIbNS_9allocatorIbEEEEEEENS_22__allocator_destructorINS4_INS1_6__funcIZ20bruteforce_distance07BMatrixE3$_3NS4_ISC_EES7_EEEEEEEC2B8ue170006ILb1EvEEPSE_NS_16__dependent_typeINS_27__unique_ptr_deleter_sfinaeISG_EEXT_EE20__good_rval_ref_typeE', symObjAddr: 0x1A1D8, symBinAddr: 0x10001E224, symSize: 0x48 }
  - { offsetInCU: 0x3A666, offset: 0x3A666, size: 0x8, addend: 0x0, symName: '__ZNSt3__117__compressed_pairIPNS_10__function6__funcIZ20bruteforce_distance07BMatrixE3$_3NS_9allocatorIS4_EEFvNS_6vectorIbNS5_IbEEEEEEENS_22__allocator_destructorINS5_ISB_EEEEEC1B8ue170006IRSC_SF_EEOT_OT0_', symObjAddr: 0x1A220, symBinAddr: 0x10001E26C, symSize: 0x3C }
  - { offsetInCU: 0x3A6BE, offset: 0x3A6BE, size: 0x8, addend: 0x0, symName: '__ZNSt3__117__compressed_pairIPNS_10__function6__funcIZ20bruteforce_distance07BMatrixE3$_3NS_9allocatorIS4_EEFvNS_6vectorIbNS5_IbEEEEEEENS_22__allocator_destructorINS5_ISB_EEEEEC2B8ue170006IRSC_SF_EEOT_OT0_', symObjAddr: 0x1A25C, symBinAddr: 0x10001E2A8, symSize: 0x48 }
  - { offsetInCU: 0x3A716, offset: 0x3A716, size: 0x8, addend: 0x0, symName: '__ZNSt3__122__compressed_pair_elemIPNS_10__function6__funcIZ20bruteforce_distance07BMatrixE3$_3NS_9allocatorIS4_EEFvNS_6vectorIbNS5_IbEEEEEEELi0ELb0EEC2B8ue170006IRSC_vEEOT_', symObjAddr: 0x1A2A4, symBinAddr: 0x10001E2F0, symSize: 0x24 }
  - { offsetInCU: 0x3A758, offset: 0x3A758, size: 0x8, addend: 0x0, symName: '__ZNSt3__122__compressed_pair_elemINS_22__allocator_destructorINS_9allocatorINS_10__function6__funcIZ20bruteforce_distance07BMatrixE3$_3NS2_IS6_EEFvNS_6vectorIbNS2_IbEEEEEEEEEEELi1ELb0EEC2B8ue170006ISE_vEEOT_', symObjAddr: 0x1A2C8, symBinAddr: 0x10001E314, symSize: 0x24 }
  - { offsetInCU: 0x3A79A, offset: 0x3A79A, size: 0x8, addend: 0x0, symName: '__ZNKSt3__117__compressed_pairIPNS_10__function6__funcIZ20bruteforce_distance07BMatrixE3$_3NS_9allocatorIS4_EEFvNS_6vectorIbNS5_IbEEEEEEENS_22__allocator_destructorINS5_ISB_EEEEE5firstB8ue170006Ev', symObjAddr: 0x1A2EC, symBinAddr: 0x10001E338, symSize: 0x24 }
  - { offsetInCU: 0x3A7C0, offset: 0x3A7C0, size: 0x8, addend: 0x0, symName: '__ZNKSt3__122__compressed_pair_elemIPNS_10__function6__funcIZ20bruteforce_distance07BMatrixE3$_3NS_9allocatorIS4_EEFvNS_6vectorIbNS5_IbEEEEEEELi0ELb0EE5__getB8ue170006Ev', symObjAddr: 0x1A310, symBinAddr: 0x10001E35C, symSize: 0x14 }
  - { offsetInCU: 0x3A7E6, offset: 0x3A7E6, size: 0x8, addend: 0x0, symName: '__ZNSt3__110__function6__funcIZ20bruteforce_distance07BMatrixE3$_3NS_9allocatorIS3_EEFvNS_6vectorIbNS4_IbEEEEEEC2B8ue170006EOS3_OS5_', symObjAddr: 0x1A324, symBinAddr: 0x10001E370, symSize: 0x88 }
  - { offsetInCU: 0x3A82E, offset: 0x3A82E, size: 0x8, addend: 0x0, symName: __ZNSt3__110__function6__baseIFvNS_6vectorIbNS_9allocatorIbEEEEEEC2B8ue170006Ev, symObjAddr: 0x1A3AC, symBinAddr: 0x10001E3F8, symSize: 0x24 }
  - { offsetInCU: 0x3A858, offset: 0x3A858, size: 0x8, addend: 0x0, symName: '__ZNSt3__110__function12__alloc_funcIZ20bruteforce_distance07BMatrixE3$_3NS_9allocatorIS3_EEFvNS_6vectorIbNS4_IbEEEEEEC1B8ue170006EOS3_OS5_', symObjAddr: 0x1A3D0, symBinAddr: 0x10001E41C, symSize: 0x3C }
  - { offsetInCU: 0x3A89E, offset: 0x3A89E, size: 0x8, addend: 0x0, symName: __ZNSt3__110__function6__baseIFvNS_6vectorIbNS_9allocatorIbEEEEEED2Ev, symObjAddr: 0x1A40C, symBinAddr: 0x10001E458, symSize: 0x14 }
  - { offsetInCU: 0x3A8C8, offset: 0x3A8C8, size: 0x8, addend: 0x0, symName: '__ZNSt3__110__function6__funcIZ20bruteforce_distance07BMatrixE3$_3NS_9allocatorIS3_EEFvNS_6vectorIbNS4_IbEEEEEED1Ev', symObjAddr: 0x1A420, symBinAddr: 0x10001E46C, symSize: 0x2C }
  - { offsetInCU: 0x3A8F5, offset: 0x3A8F5, size: 0x8, addend: 0x0, symName: '__ZNSt3__110__function6__funcIZ20bruteforce_distance07BMatrixE3$_3NS_9allocatorIS3_EEFvNS_6vectorIbNS4_IbEEEEEED0Ev', symObjAddr: 0x1A44C, symBinAddr: 0x10001E498, symSize: 0x30 }
  - { offsetInCU: 0x3A922, offset: 0x3A922, size: 0x8, addend: 0x0, symName: '__ZNKSt3__110__function6__funcIZ20bruteforce_distance07BMatrixE3$_3NS_9allocatorIS3_EEFvNS_6vectorIbNS4_IbEEEEEE7__cloneEv', symObjAddr: 0x1A47C, symBinAddr: 0x10001E4C8, symSize: 0xFC }
  - { offsetInCU: 0x3A974, offset: 0x3A974, size: 0x8, addend: 0x0, symName: '__ZNKSt3__110__function6__funcIZ20bruteforce_distance07BMatrixE3$_3NS_9allocatorIS3_EEFvNS_6vectorIbNS4_IbEEEEEE7__cloneEPNS0_6__baseIS9_EE', symObjAddr: 0x1A578, symBinAddr: 0x10001E5C4, symSize: 0x58 }
  - { offsetInCU: 0x3A9AB, offset: 0x3A9AB, size: 0x8, addend: 0x0, symName: '__ZNSt3__110__function6__funcIZ20bruteforce_distance07BMatrixE3$_3NS_9allocatorIS3_EEFvNS_6vectorIbNS4_IbEEEEEE7destroyEv', symObjAddr: 0x1A5D0, symBinAddr: 0x10001E61C, symSize: 0x28 }
  - { offsetInCU: 0x3A9D3, offset: 0x3A9D3, size: 0x8, addend: 0x0, symName: '__ZNSt3__110__function6__funcIZ20bruteforce_distance07BMatrixE3$_3NS_9allocatorIS3_EEFvNS_6vectorIbNS4_IbEEEEEE18destroy_deallocateEv', symObjAddr: 0x1A5F8, symBinAddr: 0x10001E644, symSize: 0x58 }
  - { offsetInCU: 0x3AA16, offset: 0x3AA16, size: 0x8, addend: 0x0, symName: '__ZNSt3__110__function6__funcIZ20bruteforce_distance07BMatrixE3$_3NS_9allocatorIS3_EEFvNS_6vectorIbNS4_IbEEEEEEclEOS8_', symObjAddr: 0x1A650, symBinAddr: 0x10001E69C, symSize: 0x30 }
  - { offsetInCU: 0x3AA4D, offset: 0x3AA4D, size: 0x8, addend: 0x0, symName: '__ZNKSt3__110__function6__funcIZ20bruteforce_distance07BMatrixE3$_3NS_9allocatorIS3_EEFvNS_6vectorIbNS4_IbEEEEEE6targetERKSt9type_info', symObjAddr: 0x1A680, symBinAddr: 0x10001E6CC, symSize: 0x60 }
  - { offsetInCU: 0x3AA84, offset: 0x3AA84, size: 0x8, addend: 0x0, symName: '__ZNKSt3__110__function6__funcIZ20bruteforce_distance07BMatrixE3$_3NS_9allocatorIS3_EEFvNS_6vectorIbNS4_IbEEEEEE11target_typeEv', symObjAddr: 0x1A6E0, symBinAddr: 0x10001E72C, symSize: 0x18 }
  - { offsetInCU: 0x3AAAC, offset: 0x3AAAC, size: 0x8, addend: 0x0, symName: __ZNSt3__110__function6__baseIFvNS_6vectorIbNS_9allocatorIbEEEEEED1Ev, symObjAddr: 0x1A6F8, symBinAddr: 0x10001E744, symSize: 0x14 }
  - { offsetInCU: 0x3AAD6, offset: 0x3AAD6, size: 0x8, addend: 0x0, symName: __ZNSt3__110__function6__baseIFvNS_6vectorIbNS_9allocatorIbEEEEEED0Ev, symObjAddr: 0x1A70C, symBinAddr: 0x10001E758, symSize: 0xC }
  - { offsetInCU: 0x3AB00, offset: 0x3AB00, size: 0x8, addend: 0x0, symName: '__ZNSt3__110__function12__alloc_funcIZ20bruteforce_distance07BMatrixE3$_3NS_9allocatorIS3_EEFvNS_6vectorIbNS4_IbEEEEEEC2B8ue170006EOS3_OS5_', symObjAddr: 0x1A718, symBinAddr: 0x10001E764, symSize: 0x5C }
  - { offsetInCU: 0x3AB46, offset: 0x3AB46, size: 0x8, addend: 0x0, symName: '__ZNSt3__117__compressed_pairIZ20bruteforce_distance07BMatrixE3$_3NS_9allocatorIS2_EEEC1B8ue170006IJOS2_EJOS4_EEENS_21piecewise_construct_tENS_5tupleIJDpT_EEENSA_IJDpT0_EEE', symObjAddr: 0x1A7CC, symBinAddr: 0x10001E818, symSize: 0x3C }
  - { offsetInCU: 0x3ABB0, offset: 0x3ABB0, size: 0x8, addend: 0x0, symName: '__ZNSt3__15tupleIJOZ20bruteforce_distance07BMatrixE3$_3EEC1B8ue170006IJS2_ELi0EEEDpOT_', symObjAddr: 0x1A808, symBinAddr: 0x10001E854, symSize: 0x34 }
  - { offsetInCU: 0x3ABFA, offset: 0x3ABFA, size: 0x8, addend: 0x0, symName: '__ZNSt3__15tupleIJOZ20bruteforce_distance07BMatrixE3$_3EEC2B8ue170006IJS2_ELi0EEEDpOT_', symObjAddr: 0x1A83C, symBinAddr: 0x10001E888, symSize: 0x34 }
  - { offsetInCU: 0x3AC44, offset: 0x3AC44, size: 0x8, addend: 0x0, symName: '__ZNSt3__112__tuple_implINS_15__tuple_indicesIJLm0EEEEJOZ20bruteforce_distance07BMatrixE3$_3EEC1B8ue170006IJLm0EEJS5_EJEJEJS4_EEENS1_IJXspT_EEEENS_13__tuple_typesIJDpT0_EEENS1_IJXspT1_EEEENS9_IJDpT2_EEEDpOT3_', symObjAddr: 0x1A870, symBinAddr: 0x10001E8BC, symSize: 0x34 }
  - { offsetInCU: 0x3ACD9, offset: 0x3ACD9, size: 0x8, addend: 0x0, symName: '__ZNSt3__112__tuple_implINS_15__tuple_indicesIJLm0EEEEJOZ20bruteforce_distance07BMatrixE3$_3EEC2B8ue170006IJLm0EEJS5_EJEJEJS4_EEENS1_IJXspT_EEEENS_13__tuple_typesIJDpT0_EEENS1_IJXspT1_EEEENS9_IJDpT2_EEEDpOT3_', symObjAddr: 0x1A8A4, symBinAddr: 0x10001E8F0, symSize: 0x34 }
  - { offsetInCU: 0x3AD6E, offset: 0x3AD6E, size: 0x8, addend: 0x0, symName: '__ZNSt3__112__tuple_leafILm0EOZ20bruteforce_distance07BMatrixE3$_3Lb0EEC2B8ue170006IS2_vEEOT_', symObjAddr: 0x1A8D8, symBinAddr: 0x10001E924, symSize: 0x20 }
  - { offsetInCU: 0x3ADB1, offset: 0x3ADB1, size: 0x8, addend: 0x0, symName: '__ZNSt3__15tupleIJONS_9allocatorIZ20bruteforce_distance07BMatrixE3$_3EEEEC1B8ue170006IJS4_ELi0EEEDpOT_', symObjAddr: 0x1A8F8, symBinAddr: 0x10001E944, symSize: 0x34 }
  - { offsetInCU: 0x3ADFB, offset: 0x3ADFB, size: 0x8, addend: 0x0, symName: '__ZNSt3__15tupleIJONS_9allocatorIZ20bruteforce_distance07BMatrixE3$_3EEEEC2B8ue170006IJS4_ELi0EEEDpOT_', symObjAddr: 0x1A92C, symBinAddr: 0x10001E978, symSize: 0x34 }
  - { offsetInCU: 0x3AE45, offset: 0x3AE45, size: 0x8, addend: 0x0, symName: '__ZNSt3__112__tuple_implINS_15__tuple_indicesIJLm0EEEEJONS_9allocatorIZ20bruteforce_distance07BMatrixE3$_3EEEEC1B8ue170006IJLm0EEJS7_EJEJEJS6_EEENS1_IJXspT_EEEENS_13__tuple_typesIJDpT0_EEENS1_IJXspT1_EEEENSB_IJDpT2_EEEDpOT3_', symObjAddr: 0x1A960, symBinAddr: 0x10001E9AC, symSize: 0x34 }
  - { offsetInCU: 0x3AEDA, offset: 0x3AEDA, size: 0x8, addend: 0x0, symName: '__ZNSt3__112__tuple_implINS_15__tuple_indicesIJLm0EEEEJONS_9allocatorIZ20bruteforce_distance07BMatrixE3$_3EEEEC2B8ue170006IJLm0EEJS7_EJEJEJS6_EEENS1_IJXspT_EEEENS_13__tuple_typesIJDpT0_EEENS1_IJXspT1_EEEENSB_IJDpT2_EEEDpOT3_', symObjAddr: 0x1A994, symBinAddr: 0x10001E9E0, symSize: 0x34 }
  - { offsetInCU: 0x3AF6F, offset: 0x3AF6F, size: 0x8, addend: 0x0, symName: '__ZNSt3__112__tuple_leafILm0EONS_9allocatorIZ20bruteforce_distance07BMatrixE3$_3EELb0EEC2B8ue170006IS4_vEEOT_', symObjAddr: 0x1A9C8, symBinAddr: 0x10001EA14, symSize: 0x20 }
  - { offsetInCU: 0x3AFB2, offset: 0x3AFB2, size: 0x8, addend: 0x0, symName: '__ZNSt3__117__compressed_pairIZ20bruteforce_distance07BMatrixE3$_3NS_9allocatorIS2_EEEC2B8ue170006IJOS2_EJOS4_EEENS_21piecewise_construct_tENS_5tupleIJDpT_EEENSA_IJDpT0_EEE', symObjAddr: 0x1A9E8, symBinAddr: 0x10001EA34, symSize: 0x54 }
  - { offsetInCU: 0x3B01C, offset: 0x3B01C, size: 0x8, addend: 0x0, symName: '__ZNSt3__122__compressed_pair_elemIZ20bruteforce_distance07BMatrixE3$_3Li0ELb0EEC2B8ue170006IJOS2_EJLm0EEEENS_21piecewise_construct_tENS_5tupleIJDpT_EEENS_15__tuple_indicesIJXspT0_EEEE', symObjAddr: 0x1AA3C, symBinAddr: 0x10001EA88, symSize: 0x4C }
  - { offsetInCU: 0x3B07F, offset: 0x3B07F, size: 0x8, addend: 0x0, symName: '__ZNSt3__122__compressed_pair_elemINS_9allocatorIZ20bruteforce_distance07BMatrixE3$_3EELi1ELb1EEC2B8ue170006IJOS4_EJLm0EEEENS_21piecewise_construct_tENS_5tupleIJDpT_EEENS_15__tuple_indicesIJXspT0_EEEE', symObjAddr: 0x1AA88, symBinAddr: 0x10001EAD4, symSize: 0x38 }
  - { offsetInCU: 0x3B0E2, offset: 0x3B0E2, size: 0x8, addend: 0x0, symName: '__ZNSt3__112__tuple_leafILm0EOZ20bruteforce_distance07BMatrixE3$_3Lb0EE3getB8ue170006Ev', symObjAddr: 0x1AAE4, symBinAddr: 0x10001EB30, symSize: 0x18 }
  - { offsetInCU: 0x3B108, offset: 0x3B108, size: 0x8, addend: 0x0, symName: '__ZNSt3__112__tuple_leafILm0EONS_9allocatorIZ20bruteforce_distance07BMatrixE3$_3EELb0EE3getB8ue170006Ev', symObjAddr: 0x1AB20, symBinAddr: 0x10001EB6C, symSize: 0x18 }
  - { offsetInCU: 0x3B12E, offset: 0x3B12E, size: 0x8, addend: 0x0, symName: '__ZNSt3__110__function6__funcIZ20bruteforce_distance07BMatrixE3$_3NS_9allocatorIS3_EEFvNS_6vectorIbNS4_IbEEEEEED2Ev', symObjAddr: 0x1AB38, symBinAddr: 0x10001EB84, symSize: 0x2C }
  - { offsetInCU: 0x3B15B, offset: 0x3B15B, size: 0x8, addend: 0x0, symName: '__ZNKSt3__110__function12__alloc_funcIZ20bruteforce_distance07BMatrixE3$_3NS_9allocatorIS3_EEFvNS_6vectorIbNS4_IbEEEEEE15__get_allocatorB8ue170006Ev', symObjAddr: 0x1AB64, symBinAddr: 0x10001EBB0, symSize: 0x24 }
  - { offsetInCU: 0x3B1AF, offset: 0x3B1AF, size: 0x8, addend: 0x0, symName: '__ZNSt3__110unique_ptrINS_10__function6__funcIZ20bruteforce_distance07BMatrixE3$_3NS_9allocatorIS4_EEFvNS_6vectorIbNS5_IbEEEEEEENS_22__allocator_destructorINS5_ISB_EEEEEC1B8ue170006ILb1EvEEPSB_NS_16__dependent_typeINS_27__unique_ptr_deleter_sfinaeISE_EEXT_EE20__good_rval_ref_typeE', symObjAddr: 0x1AB88, symBinAddr: 0x10001EBD4, symSize: 0x3C }
  - { offsetInCU: 0x3B200, offset: 0x3B200, size: 0x8, addend: 0x0, symName: '__ZNKSt3__110unique_ptrINS_10__function6__funcIZ20bruteforce_distance07BMatrixE3$_3NS_9allocatorIS4_EEFvNS_6vectorIbNS5_IbEEEEEEENS_22__allocator_destructorINS5_ISB_EEEEE3getB8ue170006Ev', symObjAddr: 0x1ABC4, symBinAddr: 0x10001EC10, symSize: 0x28 }
  - { offsetInCU: 0x3B226, offset: 0x3B226, size: 0x8, addend: 0x0, symName: '__ZNKSt3__110__function12__alloc_funcIZ20bruteforce_distance07BMatrixE3$_3NS_9allocatorIS3_EEFvNS_6vectorIbNS4_IbEEEEEE8__targetB8ue170006Ev', symObjAddr: 0x1ABEC, symBinAddr: 0x10001EC38, symSize: 0x24 }
  - { offsetInCU: 0x3B252, offset: 0x3B252, size: 0x8, addend: 0x0, symName: '__ZNSt3__19allocatorIZ20bruteforce_distance07BMatrixE3$_3EC1B8ue170006INS_10__function6__funcIS2_S3_FvNS_6vectorIbNS0_IbEEEEEEEEERKNS0_IT_EE', symObjAddr: 0x1AC10, symBinAddr: 0x10001EC5C, symSize: 0x34 }
  - { offsetInCU: 0x3B28F, offset: 0x3B28F, size: 0x8, addend: 0x0, symName: '__ZNSt3__110__function6__funcIZ20bruteforce_distance07BMatrixE3$_3NS_9allocatorIS3_EEFvNS_6vectorIbNS4_IbEEEEEEC1B8ue170006ERKS3_OS5_', symObjAddr: 0x1AC44, symBinAddr: 0x10001EC90, symSize: 0x3C }
  - { offsetInCU: 0x3B2D7, offset: 0x3B2D7, size: 0x8, addend: 0x0, symName: '__ZNSt3__110unique_ptrINS_10__function6__funcIZ20bruteforce_distance07BMatrixE3$_3NS_9allocatorIS4_EEFvNS_6vectorIbNS5_IbEEEEEEENS_22__allocator_destructorINS5_ISB_EEEEE7releaseB8ue170006Ev', symObjAddr: 0x1AC80, symBinAddr: 0x10001ECCC, symSize: 0x44 }
  - { offsetInCU: 0x3B30C, offset: 0x3B30C, size: 0x8, addend: 0x0, symName: '__ZNSt3__110unique_ptrINS_10__function6__funcIZ20bruteforce_distance07BMatrixE3$_3NS_9allocatorIS4_EEFvNS_6vectorIbNS5_IbEEEEEEENS_22__allocator_destructorINS5_ISB_EEEEED1B8ue170006Ev', symObjAddr: 0x1ACC4, symBinAddr: 0x10001ED10, symSize: 0x2C }
  - { offsetInCU: 0x3B336, offset: 0x3B336, size: 0x8, addend: 0x0, symName: '__ZNKSt3__117__compressed_pairIZ20bruteforce_distance07BMatrixE3$_3NS_9allocatorIS2_EEE6secondB8ue170006Ev', symObjAddr: 0x1ACF0, symBinAddr: 0x10001ED3C, symSize: 0x24 }
  - { offsetInCU: 0x3B35C, offset: 0x3B35C, size: 0x8, addend: 0x0, symName: '__ZNKSt3__122__compressed_pair_elemINS_9allocatorIZ20bruteforce_distance07BMatrixE3$_3EELi1ELb1EE5__getB8ue170006Ev', symObjAddr: 0x1AD14, symBinAddr: 0x10001ED60, symSize: 0x14 }
  - { offsetInCU: 0x3B382, offset: 0x3B382, size: 0x8, addend: 0x0, symName: '__ZNSt3__110unique_ptrINS_10__function6__funcIZ20bruteforce_distance07BMatrixE3$_3NS_9allocatorIS4_EEFvNS_6vectorIbNS5_IbEEEEEEENS_22__allocator_destructorINS5_ISB_EEEEEC2B8ue170006ILb1EvEEPSB_NS_16__dependent_typeINS_27__unique_ptr_deleter_sfinaeISE_EEXT_EE20__good_rval_ref_typeE', symObjAddr: 0x1AD28, symBinAddr: 0x10001ED74, symSize: 0x48 }
  - { offsetInCU: 0x3B3D3, offset: 0x3B3D3, size: 0x8, addend: 0x0, symName: '__ZNKSt3__117__compressed_pairIZ20bruteforce_distance07BMatrixE3$_3NS_9allocatorIS2_EEE5firstB8ue170006Ev', symObjAddr: 0x1AD70, symBinAddr: 0x10001EDBC, symSize: 0x24 }
  - { offsetInCU: 0x3B3F9, offset: 0x3B3F9, size: 0x8, addend: 0x0, symName: '__ZNKSt3__122__compressed_pair_elemIZ20bruteforce_distance07BMatrixE3$_3Li0ELb0EE5__getB8ue170006Ev', symObjAddr: 0x1AD94, symBinAddr: 0x10001EDE0, symSize: 0x14 }
  - { offsetInCU: 0x3B41F, offset: 0x3B41F, size: 0x8, addend: 0x0, symName: '__ZNSt3__19allocatorIZ20bruteforce_distance07BMatrixE3$_3EC2B8ue170006INS_10__function6__funcIS2_S3_FvNS_6vectorIbNS0_IbEEEEEEEEERKNS0_IT_EE', symObjAddr: 0x1ADA8, symBinAddr: 0x10001EDF4, symSize: 0x30 }
  - { offsetInCU: 0x3B45C, offset: 0x3B45C, size: 0x8, addend: 0x0, symName: '__ZNSt3__110__function6__funcIZ20bruteforce_distance07BMatrixE3$_3NS_9allocatorIS3_EEFvNS_6vectorIbNS4_IbEEEEEEC2B8ue170006ERKS3_OS5_', symObjAddr: 0x1ADD8, symBinAddr: 0x10001EE24, symSize: 0x88 }
  - { offsetInCU: 0x3B4A4, offset: 0x3B4A4, size: 0x8, addend: 0x0, symName: '__ZNSt3__110__function12__alloc_funcIZ20bruteforce_distance07BMatrixE3$_3NS_9allocatorIS3_EEFvNS_6vectorIbNS4_IbEEEEEEC1B8ue170006ERKS3_OS5_', symObjAddr: 0x1AE60, symBinAddr: 0x10001EEAC, symSize: 0x3C }
  - { offsetInCU: 0x3B4EA, offset: 0x3B4EA, size: 0x8, addend: 0x0, symName: '__ZNSt3__110__function12__alloc_funcIZ20bruteforce_distance07BMatrixE3$_3NS_9allocatorIS3_EEFvNS_6vectorIbNS4_IbEEEEEEC2B8ue170006ERKS3_OS5_', symObjAddr: 0x1AE9C, symBinAddr: 0x10001EEE8, symSize: 0x5C }
  - { offsetInCU: 0x3B530, offset: 0x3B530, size: 0x8, addend: 0x0, symName: '__ZNSt3__117__compressed_pairIZ20bruteforce_distance07BMatrixE3$_3NS_9allocatorIS2_EEEC1B8ue170006IJRKS2_EJOS4_EEENS_21piecewise_construct_tENS_5tupleIJDpT_EEENSB_IJDpT0_EEE', symObjAddr: 0x1AF24, symBinAddr: 0x10001EF70, symSize: 0x3C }
  - { offsetInCU: 0x3B59A, offset: 0x3B59A, size: 0x8, addend: 0x0, symName: '__ZNSt3__15tupleIJRKZ20bruteforce_distance07BMatrixE3$_3EEC1B8ue170006INS_4_AndELi0EEES4_', symObjAddr: 0x1AF60, symBinAddr: 0x10001EFAC, symSize: 0x34 }
  - { offsetInCU: 0x3B5E2, offset: 0x3B5E2, size: 0x8, addend: 0x0, symName: '__ZNSt3__15tupleIJRKZ20bruteforce_distance07BMatrixE3$_3EEC2B8ue170006INS_4_AndELi0EEES4_', symObjAddr: 0x1AF94, symBinAddr: 0x10001EFE0, symSize: 0x34 }
  - { offsetInCU: 0x3B62A, offset: 0x3B62A, size: 0x8, addend: 0x0, symName: '__ZNSt3__112__tuple_implINS_15__tuple_indicesIJLm0EEEEJRKZ20bruteforce_distance07BMatrixE3$_3EEC1B8ue170006IJLm0EEJS6_EJEJEJS6_EEENS1_IJXspT_EEEENS_13__tuple_typesIJDpT0_EEENS1_IJXspT1_EEEENSA_IJDpT2_EEEDpOT3_', symObjAddr: 0x1AFC8, symBinAddr: 0x10001F014, symSize: 0x34 }
  - { offsetInCU: 0x3B6BF, offset: 0x3B6BF, size: 0x8, addend: 0x0, symName: '__ZNSt3__112__tuple_implINS_15__tuple_indicesIJLm0EEEEJRKZ20bruteforce_distance07BMatrixE3$_3EEC2B8ue170006IJLm0EEJS6_EJEJEJS6_EEENS1_IJXspT_EEEENS_13__tuple_typesIJDpT0_EEENS1_IJXspT1_EEEENSA_IJDpT2_EEEDpOT3_', symObjAddr: 0x1AFFC, symBinAddr: 0x10001F048, symSize: 0x34 }
  - { offsetInCU: 0x3B754, offset: 0x3B754, size: 0x8, addend: 0x0, symName: '__ZNSt3__112__tuple_leafILm0ERKZ20bruteforce_distance07BMatrixE3$_3Lb0EEC2B8ue170006IS4_vEEOT_', symObjAddr: 0x1B030, symBinAddr: 0x10001F07C, symSize: 0x20 }
  - { offsetInCU: 0x3B797, offset: 0x3B797, size: 0x8, addend: 0x0, symName: '__ZNSt3__117__compressed_pairIZ20bruteforce_distance07BMatrixE3$_3NS_9allocatorIS2_EEEC2B8ue170006IJRKS2_EJOS4_EEENS_21piecewise_construct_tENS_5tupleIJDpT_EEENSB_IJDpT0_EEE', symObjAddr: 0x1B050, symBinAddr: 0x10001F09C, symSize: 0x54 }
  - { offsetInCU: 0x3B801, offset: 0x3B801, size: 0x8, addend: 0x0, symName: '__ZNSt3__122__compressed_pair_elemIZ20bruteforce_distance07BMatrixE3$_3Li0ELb0EEC2B8ue170006IJRKS2_EJLm0EEEENS_21piecewise_construct_tENS_5tupleIJDpT_EEENS_15__tuple_indicesIJXspT0_EEEE', symObjAddr: 0x1B0A4, symBinAddr: 0x10001F0F0, symSize: 0x4C }
  - { offsetInCU: 0x3B864, offset: 0x3B864, size: 0x8, addend: 0x0, symName: '__ZNSt3__112__tuple_leafILm0ERKZ20bruteforce_distance07BMatrixE3$_3Lb0EE3getB8ue170006Ev', symObjAddr: 0x1B114, symBinAddr: 0x10001F160, symSize: 0x18 }
  - { offsetInCU: 0x3B88A, offset: 0x3B88A, size: 0x8, addend: 0x0, symName: '__ZNSt3__117__compressed_pairIPNS_10__function6__funcIZ20bruteforce_distance07BMatrixE3$_3NS_9allocatorIS4_EEFvNS_6vectorIbNS5_IbEEEEEEENS_22__allocator_destructorINS5_ISB_EEEEE5firstB8ue170006Ev', symObjAddr: 0x1B12C, symBinAddr: 0x10001F178, symSize: 0x24 }
  - { offsetInCU: 0x3B8B0, offset: 0x3B8B0, size: 0x8, addend: 0x0, symName: '__ZNSt3__122__compressed_pair_elemIPNS_10__function6__funcIZ20bruteforce_distance07BMatrixE3$_3NS_9allocatorIS4_EEFvNS_6vectorIbNS5_IbEEEEEEELi0ELb0EE5__getB8ue170006Ev', symObjAddr: 0x1B150, symBinAddr: 0x10001F19C, symSize: 0x14 }
  - { offsetInCU: 0x3B8D6, offset: 0x3B8D6, size: 0x8, addend: 0x0, symName: '__ZNSt3__110unique_ptrINS_10__function6__funcIZ20bruteforce_distance07BMatrixE3$_3NS_9allocatorIS4_EEFvNS_6vectorIbNS5_IbEEEEEEENS_22__allocator_destructorINS5_ISB_EEEEED2B8ue170006Ev', symObjAddr: 0x1B164, symBinAddr: 0x10001F1B0, symSize: 0x30 }
  - { offsetInCU: 0x3B900, offset: 0x3B900, size: 0x8, addend: 0x0, symName: '__ZNSt3__110unique_ptrINS_10__function6__funcIZ20bruteforce_distance07BMatrixE3$_3NS_9allocatorIS4_EEFvNS_6vectorIbNS5_IbEEEEEEENS_22__allocator_destructorINS5_ISB_EEEEE5resetB8ue170006EPSB_', symObjAddr: 0x1B194, symBinAddr: 0x10001F1E0, symSize: 0x78 }
  - { offsetInCU: 0x3B944, offset: 0x3B944, size: 0x8, addend: 0x0, symName: '__ZNSt3__117__compressed_pairIPNS_10__function6__funcIZ20bruteforce_distance07BMatrixE3$_3NS_9allocatorIS4_EEFvNS_6vectorIbNS5_IbEEEEEEENS_22__allocator_destructorINS5_ISB_EEEEE6secondB8ue170006Ev', symObjAddr: 0x1B20C, symBinAddr: 0x10001F258, symSize: 0x28 }
  - { offsetInCU: 0x3B96A, offset: 0x3B96A, size: 0x8, addend: 0x0, symName: '__ZNSt3__122__allocator_destructorINS_9allocatorINS_10__function6__funcIZ20bruteforce_distance07BMatrixE3$_3NS1_IS5_EEFvNS_6vectorIbNS1_IbEEEEEEEEEEclB8ue170006EPSB_', symObjAddr: 0x1B234, symBinAddr: 0x10001F280, symSize: 0x34 }
  - { offsetInCU: 0x3B99E, offset: 0x3B99E, size: 0x8, addend: 0x0, symName: '__ZNSt3__122__compressed_pair_elemINS_22__allocator_destructorINS_9allocatorINS_10__function6__funcIZ20bruteforce_distance07BMatrixE3$_3NS2_IS6_EEFvNS_6vectorIbNS2_IbEEEEEEEEEEELi1ELb0EE5__getB8ue170006Ev', symObjAddr: 0x1B268, symBinAddr: 0x10001F2B4, symSize: 0x14 }
  - { offsetInCU: 0x3B9C4, offset: 0x3B9C4, size: 0x8, addend: 0x0, symName: '__ZNSt3__116allocator_traitsINS_9allocatorINS_10__function6__funcIZ20bruteforce_distance07BMatrixE3$_3NS1_IS5_EEFvNS_6vectorIbNS1_IbEEEEEEEEEE10deallocateB8ue170006ERSC_PSB_m', symObjAddr: 0x1B27C, symBinAddr: 0x10001F2C8, symSize: 0x34 }
  - { offsetInCU: 0x3BA06, offset: 0x3BA06, size: 0x8, addend: 0x0, symName: '__ZNSt3__19allocatorINS_10__function6__funcIZ20bruteforce_distance07BMatrixE3$_3NS0_IS4_EEFvNS_6vectorIbNS0_IbEEEEEEEE10deallocateB8ue170006EPSA_m', symObjAddr: 0x1B2B0, symBinAddr: 0x10001F2FC, symSize: 0x40 }
  - { offsetInCU: 0x3BA48, offset: 0x3BA48, size: 0x8, addend: 0x0, symName: '__ZNSt3__110__function6__funcIZ20bruteforce_distance07BMatrixE3$_3NS_9allocatorIS3_EEFvNS_6vectorIbNS4_IbEEEEEEC1B8ue170006ERKS3_RKS5_', symObjAddr: 0x1B2F0, symBinAddr: 0x10001F33C, symSize: 0x3C }
  - { offsetInCU: 0x3BA90, offset: 0x3BA90, size: 0x8, addend: 0x0, symName: '__ZNSt3__110__function6__funcIZ20bruteforce_distance07BMatrixE3$_3NS_9allocatorIS3_EEFvNS_6vectorIbNS4_IbEEEEEEC2B8ue170006ERKS3_RKS5_', symObjAddr: 0x1B32C, symBinAddr: 0x10001F378, symSize: 0x88 }
  - { offsetInCU: 0x3BAD8, offset: 0x3BAD8, size: 0x8, addend: 0x0, symName: '__ZNSt3__110__function12__alloc_funcIZ20bruteforce_distance07BMatrixE3$_3NS_9allocatorIS3_EEFvNS_6vectorIbNS4_IbEEEEEEC1B8ue170006ERKS3_RKS5_', symObjAddr: 0x1B3B4, symBinAddr: 0x10001F400, symSize: 0x3C }
  - { offsetInCU: 0x3BB1E, offset: 0x3BB1E, size: 0x8, addend: 0x0, symName: '__ZNSt3__110__function12__alloc_funcIZ20bruteforce_distance07BMatrixE3$_3NS_9allocatorIS3_EEFvNS_6vectorIbNS4_IbEEEEEEC2B8ue170006ERKS3_RKS5_', symObjAddr: 0x1B3F0, symBinAddr: 0x10001F43C, symSize: 0x5C }
  - { offsetInCU: 0x3BB64, offset: 0x3BB64, size: 0x8, addend: 0x0, symName: '__ZNSt3__117__compressed_pairIZ20bruteforce_distance07BMatrixE3$_3NS_9allocatorIS2_EEEC1B8ue170006IJRKS2_EJRKS4_EEENS_21piecewise_construct_tENS_5tupleIJDpT_EEENSC_IJDpT0_EEE', symObjAddr: 0x1B478, symBinAddr: 0x10001F4C4, symSize: 0x3C }
  - { offsetInCU: 0x3BBCE, offset: 0x3BBCE, size: 0x8, addend: 0x0, symName: '__ZNSt3__15tupleIJRKNS_9allocatorIZ20bruteforce_distance07BMatrixE3$_3EEEEC1B8ue170006INS_4_AndELi0EEES6_', symObjAddr: 0x1B4B4, symBinAddr: 0x10001F500, symSize: 0x34 }
  - { offsetInCU: 0x3BC16, offset: 0x3BC16, size: 0x8, addend: 0x0, symName: '__ZNSt3__15tupleIJRKNS_9allocatorIZ20bruteforce_distance07BMatrixE3$_3EEEEC2B8ue170006INS_4_AndELi0EEES6_', symObjAddr: 0x1B4E8, symBinAddr: 0x10001F534, symSize: 0x34 }
  - { offsetInCU: 0x3BC5E, offset: 0x3BC5E, size: 0x8, addend: 0x0, symName: '__ZNSt3__112__tuple_implINS_15__tuple_indicesIJLm0EEEEJRKNS_9allocatorIZ20bruteforce_distance07BMatrixE3$_3EEEEC1B8ue170006IJLm0EEJS8_EJEJEJS8_EEENS1_IJXspT_EEEENS_13__tuple_typesIJDpT0_EEENS1_IJXspT1_EEEENSC_IJDpT2_EEEDpOT3_', symObjAddr: 0x1B51C, symBinAddr: 0x10001F568, symSize: 0x34 }
  - { offsetInCU: 0x3BCF3, offset: 0x3BCF3, size: 0x8, addend: 0x0, symName: '__ZNSt3__112__tuple_implINS_15__tuple_indicesIJLm0EEEEJRKNS_9allocatorIZ20bruteforce_distance07BMatrixE3$_3EEEEC2B8ue170006IJLm0EEJS8_EJEJEJS8_EEENS1_IJXspT_EEEENS_13__tuple_typesIJDpT0_EEENS1_IJXspT1_EEEENSC_IJDpT2_EEEDpOT3_', symObjAddr: 0x1B550, symBinAddr: 0x10001F59C, symSize: 0x34 }
  - { offsetInCU: 0x3BD88, offset: 0x3BD88, size: 0x8, addend: 0x0, symName: '__ZNSt3__112__tuple_leafILm0ERKNS_9allocatorIZ20bruteforce_distance07BMatrixE3$_3EELb0EEC2B8ue170006IS6_vEEOT_', symObjAddr: 0x1B584, symBinAddr: 0x10001F5D0, symSize: 0x20 }
  - { offsetInCU: 0x3BDCB, offset: 0x3BDCB, size: 0x8, addend: 0x0, symName: '__ZNSt3__117__compressed_pairIZ20bruteforce_distance07BMatrixE3$_3NS_9allocatorIS2_EEEC2B8ue170006IJRKS2_EJRKS4_EEENS_21piecewise_construct_tENS_5tupleIJDpT_EEENSC_IJDpT0_EEE', symObjAddr: 0x1B5A4, symBinAddr: 0x10001F5F0, symSize: 0x54 }
  - { offsetInCU: 0x3BE35, offset: 0x3BE35, size: 0x8, addend: 0x0, symName: '__ZNSt3__122__compressed_pair_elemINS_9allocatorIZ20bruteforce_distance07BMatrixE3$_3EELi1ELb1EEC2B8ue170006IJRKS4_EJLm0EEEENS_21piecewise_construct_tENS_5tupleIJDpT_EEENS_15__tuple_indicesIJXspT0_EEEE', symObjAddr: 0x1B5F8, symBinAddr: 0x10001F644, symSize: 0x38 }
  - { offsetInCU: 0x3BE98, offset: 0x3BE98, size: 0x8, addend: 0x0, symName: '__ZNSt3__112__tuple_leafILm0ERKNS_9allocatorIZ20bruteforce_distance07BMatrixE3$_3EELb0EE3getB8ue170006Ev', symObjAddr: 0x1B654, symBinAddr: 0x10001F6A0, symSize: 0x18 }
  - { offsetInCU: 0x3BEBE, offset: 0x3BEBE, size: 0x8, addend: 0x0, symName: '__ZNSt3__110__function12__alloc_funcIZ20bruteforce_distance07BMatrixE3$_3NS_9allocatorIS3_EEFvNS_6vectorIbNS4_IbEEEEEE7destroyB8ue170006Ev', symObjAddr: 0x1B66C, symBinAddr: 0x10001F6B8, symSize: 0x10 }
  - { offsetInCU: 0x3BEE4, offset: 0x3BEE4, size: 0x8, addend: 0x0, symName: '__ZNSt3__110__function12__alloc_funcIZ20bruteforce_distance07BMatrixE3$_3NS_9allocatorIS3_EEFvNS_6vectorIbNS4_IbEEEEEEclB8ue170006EOS8_', symObjAddr: 0x1B67C, symBinAddr: 0x10001F6C8, symSize: 0x30 }
  - { offsetInCU: 0x3BF18, offset: 0x3BF18, size: 0x8, addend: 0x0, symName: '__ZNSt3__128__invoke_void_return_wrapperIvLb1EE6__callB8ue170006IJRZ20bruteforce_distance07BMatrixE3$_3NS_6vectorIbNS_9allocatorIbEEEEEEEvDpOT_', symObjAddr: 0x1B6AC, symBinAddr: 0x10001F6F8, symSize: 0x2C }
  - { offsetInCU: 0x3BF5B, offset: 0x3BF5B, size: 0x8, addend: 0x0, symName: '__ZNSt3__117__compressed_pairIZ20bruteforce_distance07BMatrixE3$_3NS_9allocatorIS2_EEE5firstB8ue170006Ev', symObjAddr: 0x1B6D8, symBinAddr: 0x10001F724, symSize: 0x24 }
  - { offsetInCU: 0x3BF87, offset: 0x3BF87, size: 0x8, addend: 0x0, symName: '__ZZ20bruteforce_distance07BMatrixENK3$_3clENSt3__16vectorIbNS1_9allocatorIbEEEE', symObjAddr: 0x1B76C, symBinAddr: 0x10001F7B8, symSize: 0x108 }
  - { offsetInCU: 0x3BFD0, offset: 0x3BFD0, size: 0x8, addend: 0x0, symName: __ZNSt3__16vectorIbNS_9allocatorIbEEEC1B8ue170006EOS3_, symObjAddr: 0x1B874, symBinAddr: 0x10001F8C0, symSize: 0x34 }
  - { offsetInCU: 0x3C00B, offset: 0x3C00B, size: 0x8, addend: 0x0, symName: __ZNSt3__16vectorIbNS_9allocatorIbEEEC2B8ue170006EOS3_, symObjAddr: 0x1B8A8, symBinAddr: 0x10001F8F4, symSize: 0x70 }
  - { offsetInCU: 0x3C046, offset: 0x3C046, size: 0x8, addend: 0x0, symName: '__ZNSt3__122__compressed_pair_elemIZ20bruteforce_distance07BMatrixE3$_3Li0ELb0EE5__getB8ue170006Ev', symObjAddr: 0x1B918, symBinAddr: 0x10001F964, symSize: 0x14 }
  - { offsetInCU: 0x3C06C, offset: 0x3C06C, size: 0x8, addend: 0x0, symName: '__ZNSt3__110unique_ptrINS_10__function6__baseIFvNS_6vectorIbNS_9allocatorIbEEEEEEENS_22__allocator_destructorINS4_INS1_6__funcIZ20bruteforce_distance07BMatrixE3$_3NS4_ISC_EES7_EEEEEEED2B8ue170006Ev', symObjAddr: 0x1B92C, symBinAddr: 0x10001F978, symSize: 0x30 }
  - { offsetInCU: 0x3C096, offset: 0x3C096, size: 0x8, addend: 0x0, symName: '__ZNSt3__110unique_ptrINS_10__function6__baseIFvNS_6vectorIbNS_9allocatorIbEEEEEEENS_22__allocator_destructorINS4_INS1_6__funcIZ20bruteforce_distance07BMatrixE3$_3NS4_ISC_EES7_EEEEEEE5resetB8ue170006EPSE_', symObjAddr: 0x1B95C, symBinAddr: 0x10001F9A8, symSize: 0x78 }
  - { offsetInCU: 0x3C0DA, offset: 0x3C0DA, size: 0x8, addend: 0x0, symName: __ZNSt3__18functionIFvNS_6vectorIbNS_9allocatorIbEEEEEED2Ev, symObjAddr: 0x1B9D4, symBinAddr: 0x10001FA20, symSize: 0x2C }
  - { offsetInCU: 0x3C106, offset: 0x3C106, size: 0x8, addend: 0x0, symName: __ZNSt3__110__function12__value_funcIFvNS_6vectorIbNS_9allocatorIbEEEEEED1B8ue170006Ev, symObjAddr: 0x1BA00, symBinAddr: 0x10001FA4C, symSize: 0x2C }
  - { offsetInCU: 0x3C130, offset: 0x3C130, size: 0x8, addend: 0x0, symName: __ZNSt3__110__function12__value_funcIFvNS_6vectorIbNS_9allocatorIbEEEEEED2B8ue170006Ev, symObjAddr: 0x1BA2C, symBinAddr: 0x10001FA78, symSize: 0x90 }
  - { offsetInCU: 0x3C15A, offset: 0x3C15A, size: 0x8, addend: 0x0, symName: __ZNSt3__16vectorIiNS_9allocatorIiEEE11__make_iterB8ue170006EPi, symObjAddr: 0x1BABC, symBinAddr: 0x10001FB08, symSize: 0x30 }
  - { offsetInCU: 0x3C18F, offset: 0x3C18F, size: 0x8, addend: 0x0, symName: __ZNSt3__111__wrap_iterIPiEC1B8ue170006ES1_, symObjAddr: 0x1BAEC, symBinAddr: 0x10001FB38, symSize: 0x34 }
  - { offsetInCU: 0x3C1C7, offset: 0x3C1C7, size: 0x8, addend: 0x0, symName: __ZNSt3__111__wrap_iterIPiEC2B8ue170006ES1_, symObjAddr: 0x1BB20, symBinAddr: 0x10001FB6C, symSize: 0x20 }
  - { offsetInCU: 0x3C1FF, offset: 0x3C1FF, size: 0x8, addend: 0x0, symName: __ZNSt3__16vectorINS_4pairI7BMatrixiEENS_9allocatorIS3_EEEC2B8ue170006Ev, symObjAddr: 0x1BB40, symBinAddr: 0x10001FB8C, symSize: 0x4C }
  - { offsetInCU: 0x3C229, offset: 0x3C229, size: 0x8, addend: 0x0, symName: __ZNSt3__117__compressed_pairIPNS_4pairI7BMatrixiEENS_9allocatorIS3_EEEC1B8ue170006IDnNS_18__default_init_tagEEEOT_OT0_, symObjAddr: 0x1BB8C, symBinAddr: 0x10001FBD8, symSize: 0x3C }
  - { offsetInCU: 0x3C281, offset: 0x3C281, size: 0x8, addend: 0x0, symName: __ZNSt3__117__compressed_pairIPNS_4pairI7BMatrixiEENS_9allocatorIS3_EEEC2B8ue170006IDnNS_18__default_init_tagEEEOT_OT0_, symObjAddr: 0x1BBC8, symBinAddr: 0x10001FC14, symSize: 0x40 }
  - { offsetInCU: 0x3C2D9, offset: 0x3C2D9, size: 0x8, addend: 0x0, symName: __ZNSt3__122__compressed_pair_elemIPNS_4pairI7BMatrixiEELi0ELb0EEC2B8ue170006IDnvEEOT_, symObjAddr: 0x1BC08, symBinAddr: 0x10001FC54, symSize: 0x1C }
  - { offsetInCU: 0x3C31B, offset: 0x3C31B, size: 0x8, addend: 0x0, symName: __ZNSt3__122__compressed_pair_elemINS_9allocatorINS_4pairI7BMatrixiEEEELi1ELb1EEC2B8ue170006ENS_18__default_init_tagE, symObjAddr: 0x1BC24, symBinAddr: 0x10001FC70, symSize: 0x2C }
  - { offsetInCU: 0x3C34F, offset: 0x3C34F, size: 0x8, addend: 0x0, symName: __ZNSt3__19allocatorINS_4pairI7BMatrixiEEEC2B8ue170006Ev, symObjAddr: 0x1BC50, symBinAddr: 0x10001FC9C, symSize: 0x2C }
  - { offsetInCU: 0x3C379, offset: 0x3C379, size: 0x8, addend: 0x0, symName: __ZNSt3__116__non_trivial_ifILb1ENS_9allocatorINS_4pairI7BMatrixiEEEEEC2B8ue170006Ev, symObjAddr: 0x1BC7C, symBinAddr: 0x10001FCC8, symSize: 0x14 }
  - { offsetInCU: 0x3C3A3, offset: 0x3C3A3, size: 0x8, addend: 0x0, symName: __ZNSt3__16vectorINS_4pairI7BMatrixiEENS_9allocatorIS3_EEED2B8ue170006Ev, symObjAddr: 0x1BC90, symBinAddr: 0x10001FCDC, symSize: 0x44 }
  - { offsetInCU: 0x3C3CD, offset: 0x3C3CD, size: 0x8, addend: 0x0, symName: __ZNSt3__16vectorINS_4pairI7BMatrixiEENS_9allocatorIS3_EEE16__destroy_vectorC1B8ue170006ERS6_, symObjAddr: 0x1BCD4, symBinAddr: 0x10001FD20, symSize: 0x34 }
  - { offsetInCU: 0x3C406, offset: 0x3C406, size: 0x8, addend: 0x0, symName: __ZNSt3__16vectorINS_4pairI7BMatrixiEENS_9allocatorIS3_EEE16__destroy_vectorclB8ue170006Ev, symObjAddr: 0x1BD08, symBinAddr: 0x10001FD54, symSize: 0x90 }
  - { offsetInCU: 0x3C42C, offset: 0x3C42C, size: 0x8, addend: 0x0, symName: __ZNSt3__16vectorINS_4pairI7BMatrixiEENS_9allocatorIS3_EEE16__destroy_vectorC2B8ue170006ERS6_, symObjAddr: 0x1BD98, symBinAddr: 0x10001FDE4, symSize: 0x20 }
  - { offsetInCU: 0x3C465, offset: 0x3C465, size: 0x8, addend: 0x0, symName: __ZNSt3__16vectorINS_4pairI7BMatrixiEENS_9allocatorIS3_EEE7__clearB8ue170006Ev, symObjAddr: 0x1BDB8, symBinAddr: 0x10001FE04, symSize: 0x28 }
  - { offsetInCU: 0x3C48B, offset: 0x3C48B, size: 0x8, addend: 0x0, symName: __ZNKSt3__16vectorINS_4pairI7BMatrixiEENS_9allocatorIS3_EEE17__annotate_deleteB8ue170006Ev, symObjAddr: 0x1BDE0, symBinAddr: 0x10001FE2C, symSize: 0xD4 }
  - { offsetInCU: 0x3C4B1, offset: 0x3C4B1, size: 0x8, addend: 0x0, symName: __ZNSt3__116allocator_traitsINS_9allocatorINS_4pairI7BMatrixiEEEEE10deallocateB8ue170006ERS5_PS4_m, symObjAddr: 0x1BEB4, symBinAddr: 0x10001FF00, symSize: 0x34 }
  - { offsetInCU: 0x3C4F3, offset: 0x3C4F3, size: 0x8, addend: 0x0, symName: __ZNSt3__16vectorINS_4pairI7BMatrixiEENS_9allocatorIS3_EEE7__allocB8ue170006Ev, symObjAddr: 0x1BEE8, symBinAddr: 0x10001FF34, symSize: 0x28 }
  - { offsetInCU: 0x3C519, offset: 0x3C519, size: 0x8, addend: 0x0, symName: __ZNKSt3__16vectorINS_4pairI7BMatrixiEENS_9allocatorIS3_EEE8capacityB8ue170006Ev, symObjAddr: 0x1BF10, symBinAddr: 0x10001FF5C, symSize: 0x40 }
  - { offsetInCU: 0x3C53F, offset: 0x3C53F, size: 0x8, addend: 0x0, symName: __ZNSt3__16vectorINS_4pairI7BMatrixiEENS_9allocatorIS3_EEE22__base_destruct_at_endB8ue170006EPS3_, symObjAddr: 0x1BF50, symBinAddr: 0x10001FF9C, symSize: 0x8C }
  - { offsetInCU: 0x3C583, offset: 0x3C583, size: 0x8, addend: 0x0, symName: __ZNSt3__116allocator_traitsINS_9allocatorINS_4pairI7BMatrixiEEEEE7destroyB8ue170006IS4_vEEvRS5_PT_, symObjAddr: 0x1BFDC, symBinAddr: 0x100020028, symSize: 0x2C }
  - { offsetInCU: 0x3C5C0, offset: 0x3C5C0, size: 0x8, addend: 0x0, symName: __ZNSt3__19allocatorINS_4pairI7BMatrixiEEE7destroyB8ue170006EPS3_, symObjAddr: 0x1C01C, symBinAddr: 0x100020068, symSize: 0x28 }
  - { offsetInCU: 0x3C5F4, offset: 0x3C5F4, size: 0x8, addend: 0x0, symName: __ZNKSt3__16vectorINS_4pairI7BMatrixiEENS_9allocatorIS3_EEE31__annotate_contiguous_containerB8ue170006EPKvS8_S8_S8_, symObjAddr: 0x1C044, symBinAddr: 0x100020090, symSize: 0x20 }
  - { offsetInCU: 0x3C64A, offset: 0x3C64A, size: 0x8, addend: 0x0, symName: __ZNKSt3__16vectorINS_4pairI7BMatrixiEENS_9allocatorIS3_EEE4dataB8ue170006Ev, symObjAddr: 0x1C064, symBinAddr: 0x1000200B0, symSize: 0x28 }
  - { offsetInCU: 0x3C670, offset: 0x3C670, size: 0x8, addend: 0x0, symName: __ZNKSt3__16vectorINS_4pairI7BMatrixiEENS_9allocatorIS3_EEE4sizeB8ue170006Ev, symObjAddr: 0x1C08C, symBinAddr: 0x1000200D8, symSize: 0x28 }
  - { offsetInCU: 0x3C696, offset: 0x3C696, size: 0x8, addend: 0x0, symName: __ZNSt3__19allocatorINS_4pairI7BMatrixiEEE10deallocateB8ue170006EPS3_m, symObjAddr: 0x1C0B4, symBinAddr: 0x100020100, symSize: 0x44 }
  - { offsetInCU: 0x3C6D8, offset: 0x3C6D8, size: 0x8, addend: 0x0, symName: __ZNSt3__117__compressed_pairIPNS_4pairI7BMatrixiEENS_9allocatorIS3_EEE6secondB8ue170006Ev, symObjAddr: 0x1C0F8, symBinAddr: 0x100020144, symSize: 0x24 }
  - { offsetInCU: 0x3C6FE, offset: 0x3C6FE, size: 0x8, addend: 0x0, symName: __ZNSt3__122__compressed_pair_elemINS_9allocatorINS_4pairI7BMatrixiEEEELi1ELb1EE5__getB8ue170006Ev, symObjAddr: 0x1C11C, symBinAddr: 0x100020168, symSize: 0x14 }
  - { offsetInCU: 0x3C724, offset: 0x3C724, size: 0x8, addend: 0x0, symName: __ZNKSt3__16vectorINS_4pairI7BMatrixiEENS_9allocatorIS3_EEE9__end_capB8ue170006Ev, symObjAddr: 0x1C130, symBinAddr: 0x10002017C, symSize: 0x28 }
  - { offsetInCU: 0x3C74A, offset: 0x3C74A, size: 0x8, addend: 0x0, symName: __ZNKSt3__117__compressed_pairIPNS_4pairI7BMatrixiEENS_9allocatorIS3_EEE5firstB8ue170006Ev, symObjAddr: 0x1C158, symBinAddr: 0x1000201A4, symSize: 0x24 }
  - { offsetInCU: 0x3C770, offset: 0x3C770, size: 0x8, addend: 0x0, symName: __ZNKSt3__122__compressed_pair_elemIPNS_4pairI7BMatrixiEELi0ELb0EE5__getB8ue170006Ev, symObjAddr: 0x1C17C, symBinAddr: 0x1000201C8, symSize: 0x14 }
  - { offsetInCU: 0x3C796, offset: 0x3C796, size: 0x8, addend: 0x0, symName: __ZNSt3__16vectorIiNS_9allocatorIiEEE8__appendEm, symObjAddr: 0x1C190, symBinAddr: 0x1000201DC, symSize: 0x108 }
  - { offsetInCU: 0x3C7F1, offset: 0x3C7F1, size: 0x8, addend: 0x0, symName: __ZNSt3__16vectorIiNS_9allocatorIiEEE17__destruct_at_endB8ue170006EPi, symObjAddr: 0x1C298, symBinAddr: 0x1000202E4, symSize: 0x4C }
  - { offsetInCU: 0x3C835, offset: 0x3C835, size: 0x8, addend: 0x0, symName: __ZNSt3__16vectorIiNS_9allocatorIiEEE18__construct_at_endEm, symObjAddr: 0x1C2E4, symBinAddr: 0x100020330, symSize: 0xC8 }
  - { offsetInCU: 0x3C8A7, offset: 0x3C8A7, size: 0x8, addend: 0x0, symName: __ZNSt3__114__split_bufferIiRNS_9allocatorIiEEE18__construct_at_endEm, symObjAddr: 0x1C3AC, symBinAddr: 0x1000203F8, symSize: 0xB4 }
  - { offsetInCU: 0x3C8EC, offset: 0x3C8EC, size: 0x8, addend: 0x0, symName: __ZNSt3__116allocator_traitsINS_9allocatorIiEEE9constructB8ue170006IiJEvEEvRS2_PT_DpOT0_, symObjAddr: 0x1C460, symBinAddr: 0x1000204AC, symSize: 0x2C }
  - { offsetInCU: 0x3C92E, offset: 0x3C92E, size: 0x8, addend: 0x0, symName: __ZNSt3__19allocatorIiE9constructB8ue170006IiJEEEvPT_DpOT0_, symObjAddr: 0x1C48C, symBinAddr: 0x1000204D8, symSize: 0x1C }
  - { offsetInCU: 0x3C97C, offset: 0x3C97C, size: 0x8, addend: 0x0, symName: __ZNSt3__114__split_bufferIiRNS_9allocatorIiEEE21_ConstructTransactionC1B8ue170006EPPim, symObjAddr: 0x1C4A8, symBinAddr: 0x1000204F4, symSize: 0x3C }
  - { offsetInCU: 0x3C9C2, offset: 0x3C9C2, size: 0x8, addend: 0x0, symName: __ZNSt3__114__split_bufferIiRNS_9allocatorIiEEE21_ConstructTransactionD1B8ue170006Ev, symObjAddr: 0x1C4E4, symBinAddr: 0x100020530, symSize: 0x2C }
  - { offsetInCU: 0x3C9EC, offset: 0x3C9EC, size: 0x8, addend: 0x0, symName: __ZNSt3__114__split_bufferIiRNS_9allocatorIiEEE21_ConstructTransactionC2B8ue170006EPPim, symObjAddr: 0x1C510, symBinAddr: 0x10002055C, symSize: 0x44 }
  - { offsetInCU: 0x3CA32, offset: 0x3CA32, size: 0x8, addend: 0x0, symName: __ZNSt3__114__split_bufferIiRNS_9allocatorIiEEE21_ConstructTransactionD2B8ue170006Ev, symObjAddr: 0x1C554, symBinAddr: 0x1000205A0, symSize: 0x20 }
  - { offsetInCU: 0x3CA5C, offset: 0x3CA5C, size: 0x8, addend: 0x0, symName: __ZNKSt3__16vectorIiNS_9allocatorIiEEE17__annotate_shrinkB8ue170006Em, symObjAddr: 0x1C574, symBinAddr: 0x1000205C0, symSize: 0xB4 }
  - { offsetInCU: 0x3CA91, offset: 0x3CA91, size: 0x8, addend: 0x0, symName: __ZNSt3__16vectorIiNS_9allocatorIiEEEC2ERKS3_, symObjAddr: 0x1C628, symBinAddr: 0x100020674, symSize: 0x94 }
  - { offsetInCU: 0x3CACC, offset: 0x3CACC, size: 0x8, addend: 0x0, symName: __ZNSt3__116allocator_traitsINS_9allocatorIiEEE37select_on_container_copy_constructionB8ue170006IS2_vvEES2_RKS2_, symObjAddr: 0x1C6BC, symBinAddr: 0x100020708, symSize: 0x10 }
  - { offsetInCU: 0x3CB01, offset: 0x3CB01, size: 0x8, addend: 0x0, symName: __ZNSt3__117__compressed_pairIPiNS_9allocatorIiEEEC1B8ue170006IDnS3_EEOT_OT0_, symObjAddr: 0x1C6CC, symBinAddr: 0x100020718, symSize: 0x3C }
  - { offsetInCU: 0x3CB59, offset: 0x3CB59, size: 0x8, addend: 0x0, symName: __ZNSt3__16vectorIiNS_9allocatorIiEEE16__init_with_sizeB8ue170006IPiS5_EEvT_T0_m, symObjAddr: 0x1C708, symBinAddr: 0x100020754, symSize: 0xB8 }
  - { offsetInCU: 0x3CBCD, offset: 0x3CBCD, size: 0x8, addend: 0x0, symName: __ZNSt3__117__compressed_pairIPiNS_9allocatorIiEEEC2B8ue170006IDnS3_EEOT_OT0_, symObjAddr: 0x1C7C0, symBinAddr: 0x10002080C, symSize: 0x44 }
  - { offsetInCU: 0x3CC25, offset: 0x3CC25, size: 0x8, addend: 0x0, symName: __ZNSt3__122__compressed_pair_elemINS_9allocatorIiEELi1ELb1EEC2B8ue170006IS2_vEEOT_, symObjAddr: 0x1C804, symBinAddr: 0x100020850, symSize: 0x18 }
  - { offsetInCU: 0x3CC67, offset: 0x3CC67, size: 0x8, addend: 0x0, symName: __ZNSt3__16vectorIiNS_9allocatorIiEEE11__vallocateB8ue170006Em, symObjAddr: 0x1C85C, symBinAddr: 0x1000208A8, symSize: 0xAC }
  - { offsetInCU: 0x3CCAB, offset: 0x3CCAB, size: 0x8, addend: 0x0, symName: __ZNSt3__16vectorIiNS_9allocatorIiEEE18__construct_at_endIPiS5_EEvT_T0_m, symObjAddr: 0x1C908, symBinAddr: 0x100020954, symSize: 0x8C }
  - { offsetInCU: 0x3CD21, offset: 0x3CD21, size: 0x8, addend: 0x0, symName: __ZNSt3__128__exception_guard_exceptionsINS_6vectorIiNS_9allocatorIiEEE16__destroy_vectorEE10__completeB8ue170006Ev, symObjAddr: 0x1C994, symBinAddr: 0x1000209E0, symSize: 0x1C }
  - { offsetInCU: 0x3CD47, offset: 0x3CD47, size: 0x8, addend: 0x0, symName: __ZNSt3__128__exception_guard_exceptionsINS_6vectorIiNS_9allocatorIiEEE16__destroy_vectorEED1B8ue170006Ev, symObjAddr: 0x1C9B0, symBinAddr: 0x1000209FC, symSize: 0x2C }
  - { offsetInCU: 0x3CD71, offset: 0x3CD71, size: 0x8, addend: 0x0, symName: __ZNSt3__128__exception_guard_exceptionsINS_6vectorIiNS_9allocatorIiEEE16__destroy_vectorEEC1B8ue170006ES5_, symObjAddr: 0x1C9DC, symBinAddr: 0x100020A28, symSize: 0x34 }
  - { offsetInCU: 0x3CDA9, offset: 0x3CDA9, size: 0x8, addend: 0x0, symName: __ZNSt3__128__exception_guard_exceptionsINS_6vectorIiNS_9allocatorIiEEE16__destroy_vectorEEC2B8ue170006ES5_, symObjAddr: 0x1CA10, symBinAddr: 0x100020A5C, symSize: 0x24 }
  - { offsetInCU: 0x3CE04, offset: 0x3CE04, size: 0x8, addend: 0x0, symName: __ZNSt3__14pairIPiS1_EC1B8ue170006IS1_S1_LPv0EEEOT_OT0_, symObjAddr: 0x1CBE4, symBinAddr: 0x100020C30, symSize: 0x3C }
  - { offsetInCU: 0x3CE62, offset: 0x3CE62, size: 0x8, addend: 0x0, symName: __ZNSt3__14pairIPiS1_EC2B8ue170006IS1_S1_LPv0EEEOT_OT0_, symObjAddr: 0x1CC20, symBinAddr: 0x100020C6C, symSize: 0x34 }
  - { offsetInCU: 0x3CEC0, offset: 0x3CEC0, size: 0x8, addend: 0x0, symName: __ZNKSt3__114__copy_trivialclB8ue170006IiiLi0EEENS_4pairIPT_PT0_EES4_S4_S6_, symObjAddr: 0x1CDD0, symBinAddr: 0x100020E1C, symSize: 0x48 }
  - { offsetInCU: 0x3CF28, offset: 0x3CF28, size: 0x8, addend: 0x0, symName: __ZNSt3__14pairIPiS1_EC1B8ue170006IRS1_S1_LPv0EEEOT_OT0_, symObjAddr: 0x1CF60, symBinAddr: 0x100020FAC, symSize: 0x3C }
  - { offsetInCU: 0x3CF86, offset: 0x3CF86, size: 0x8, addend: 0x0, symName: __ZNSt3__14pairIPiS1_EC2B8ue170006IRS1_S1_LPv0EEEOT_OT0_, symObjAddr: 0x1CF9C, symBinAddr: 0x100020FE8, symSize: 0x34 }
  - { offsetInCU: 0x3CFE4, offset: 0x3CFE4, size: 0x8, addend: 0x0, symName: __ZNSt3__118__unwrap_iter_implIPiLb1EE8__unwrapB8ue170006ES1_, symObjAddr: 0x1CFD0, symBinAddr: 0x10002101C, symSize: 0x24 }
  - { offsetInCU: 0x3D007, offset: 0x3D007, size: 0x8, addend: 0x0, symName: __ZNSt3__118__unwrap_iter_implIPiLb1EE8__rewrapB8ue170006ES1_S1_, symObjAddr: 0x1CFF4, symBinAddr: 0x100021040, symSize: 0x50 }
  - { offsetInCU: 0x3D038, offset: 0x3D038, size: 0x8, addend: 0x0, symName: __ZNSt3__128__exception_guard_exceptionsINS_6vectorIiNS_9allocatorIiEEE16__destroy_vectorEED2B8ue170006Ev, symObjAddr: 0x1D044, symBinAddr: 0x100021090, symSize: 0x48 }
  - { offsetInCU: 0x3D062, offset: 0x3D062, size: 0x8, addend: 0x0, symName: __ZNSt3__16vectorINS_4pairI7BMatrixiEENS_9allocatorIS3_EEE9__end_capB8ue170006Ev, symObjAddr: 0x1D08C, symBinAddr: 0x1000210D8, symSize: 0x28 }
  - { offsetInCU: 0x3D088, offset: 0x3D088, size: 0x8, addend: 0x0, symName: __ZNSt3__16vectorINS_4pairI7BMatrixiEENS_9allocatorIS3_EEE22__construct_one_at_endB8ue170006IJRS2_mEEEvDpOT_, symObjAddr: 0x1D0B4, symBinAddr: 0x100021100, symSize: 0x98 }
  - { offsetInCU: 0x3D0EB, offset: 0x3D0EB, size: 0x8, addend: 0x0, symName: __ZNSt3__16vectorINS_4pairI7BMatrixiEENS_9allocatorIS3_EEE24__emplace_back_slow_pathIJRS2_mEEEvDpOT_, symObjAddr: 0x1D14C, symBinAddr: 0x100021198, symSize: 0xE0 }
  - { offsetInCU: 0x3D15F, offset: 0x3D15F, size: 0x8, addend: 0x0, symName: __ZNSt3__117__compressed_pairIPNS_4pairI7BMatrixiEENS_9allocatorIS3_EEE5firstB8ue170006Ev, symObjAddr: 0x1D22C, symBinAddr: 0x100021278, symSize: 0x24 }
  - { offsetInCU: 0x3D185, offset: 0x3D185, size: 0x8, addend: 0x0, symName: __ZNSt3__122__compressed_pair_elemIPNS_4pairI7BMatrixiEELi0ELb0EE5__getB8ue170006Ev, symObjAddr: 0x1D250, symBinAddr: 0x10002129C, symSize: 0x14 }
  - { offsetInCU: 0x3D1C7, offset: 0x3D1C7, size: 0x8, addend: 0x0, symName: __ZNSt3__16vectorINS_4pairI7BMatrixiEENS_9allocatorIS3_EEE21_ConstructTransactionC1B8ue170006ERS6_m, symObjAddr: 0x1D264, symBinAddr: 0x1000212B0, symSize: 0x3C }
  - { offsetInCU: 0x3D20F, offset: 0x3D20F, size: 0x8, addend: 0x0, symName: __ZNSt3__116allocator_traitsINS_9allocatorINS_4pairI7BMatrixiEEEEE9constructB8ue170006IS4_JRS3_mEvEEvRS5_PT_DpOT0_, symObjAddr: 0x1D2A0, symBinAddr: 0x1000212EC, symSize: 0x3C }
  - { offsetInCU: 0x3D27A, offset: 0x3D27A, size: 0x8, addend: 0x0, symName: __ZNSt3__16vectorINS_4pairI7BMatrixiEENS_9allocatorIS3_EEE21_ConstructTransactionD1B8ue170006Ev, symObjAddr: 0x1D2DC, symBinAddr: 0x100021328, symSize: 0x2C }
  - { offsetInCU: 0x3D2A4, offset: 0x3D2A4, size: 0x8, addend: 0x0, symName: __ZNSt3__16vectorINS_4pairI7BMatrixiEENS_9allocatorIS3_EEE21_ConstructTransactionC2B8ue170006ERS6_m, symObjAddr: 0x1D308, symBinAddr: 0x100021354, symSize: 0x4C }
  - { offsetInCU: 0x3D2EC, offset: 0x3D2EC, size: 0x8, addend: 0x0, symName: __ZNSt3__19allocatorINS_4pairI7BMatrixiEEE9constructB8ue170006IS3_JRS2_mEEEvPT_DpOT0_, symObjAddr: 0x1D354, symBinAddr: 0x1000213A0, symSize: 0x38 }
  - { offsetInCU: 0x3D355, offset: 0x3D355, size: 0x8, addend: 0x0, symName: __ZNSt3__14pairI7BMatrixiEC1B8ue170006IRS1_mLPv0EEEOT_OT0_, symObjAddr: 0x1D38C, symBinAddr: 0x1000213D8, symSize: 0x3C }
  - { offsetInCU: 0x3D3B3, offset: 0x3D3B3, size: 0x8, addend: 0x0, symName: __ZNSt3__14pairI7BMatrixiEC2B8ue170006IRS1_mLPv0EEEOT_OT0_, symObjAddr: 0x1D3C8, symBinAddr: 0x100021414, symSize: 0x44 }
  - { offsetInCU: 0x3D411, offset: 0x3D411, size: 0x8, addend: 0x0, symName: __ZNSt3__16vectorINS_4pairI7BMatrixiEENS_9allocatorIS3_EEE21_ConstructTransactionD2B8ue170006Ev, symObjAddr: 0x1D40C, symBinAddr: 0x100021458, symSize: 0x20 }
  - { offsetInCU: 0x3D43B, offset: 0x3D43B, size: 0x8, addend: 0x0, symName: __ZNKSt3__16vectorINS_4pairI7BMatrixiEENS_9allocatorIS3_EEE11__recommendB8ue170006Em, symObjAddr: 0x1D42C, symBinAddr: 0x100021478, symSize: 0xB4 }
  - { offsetInCU: 0x3D490, offset: 0x3D490, size: 0x8, addend: 0x0, symName: __ZNSt3__114__split_bufferINS_4pairI7BMatrixiEERNS_9allocatorIS3_EEEC1EmmS6_, symObjAddr: 0x1D4E0, symBinAddr: 0x10002152C, symSize: 0x44 }
  - { offsetInCU: 0x3D4E6, offset: 0x3D4E6, size: 0x8, addend: 0x0, symName: __ZNSt3__114__split_bufferINS_4pairI7BMatrixiEERNS_9allocatorIS3_EEED1Ev, symObjAddr: 0x1D634, symBinAddr: 0x100021680, symSize: 0x2C }
  - { offsetInCU: 0x3D512, offset: 0x3D512, size: 0x8, addend: 0x0, symName: __ZNKSt3__16vectorINS_4pairI7BMatrixiEENS_9allocatorIS3_EEE8max_sizeEv, symObjAddr: 0x1D660, symBinAddr: 0x1000216AC, symSize: 0x60 }
  - { offsetInCU: 0x3D53A, offset: 0x3D53A, size: 0x8, addend: 0x0, symName: __ZNKSt3__16vectorINS_4pairI7BMatrixiEENS_9allocatorIS3_EEE20__throw_length_errorB8ue170006Ev, symObjAddr: 0x1D6C0, symBinAddr: 0x10002170C, symSize: 0x1C }
  - { offsetInCU: 0x3D56B, offset: 0x3D56B, size: 0x8, addend: 0x0, symName: __ZNSt3__116allocator_traitsINS_9allocatorINS_4pairI7BMatrixiEEEEE8max_sizeB8ue170006IS5_vEEmRKS5_, symObjAddr: 0x1D6DC, symBinAddr: 0x100021728, symSize: 0x24 }
  - { offsetInCU: 0x3D599, offset: 0x3D599, size: 0x8, addend: 0x0, symName: __ZNKSt3__16vectorINS_4pairI7BMatrixiEENS_9allocatorIS3_EEE7__allocB8ue170006Ev, symObjAddr: 0x1D700, symBinAddr: 0x10002174C, symSize: 0x28 }
  - { offsetInCU: 0x3D5BF, offset: 0x3D5BF, size: 0x8, addend: 0x0, symName: __ZNKSt3__19allocatorINS_4pairI7BMatrixiEEE8max_sizeB8ue170006Ev, symObjAddr: 0x1D728, symBinAddr: 0x100021774, symSize: 0x18 }
  - { offsetInCU: 0x3D5E5, offset: 0x3D5E5, size: 0x8, addend: 0x0, symName: __ZNKSt3__117__compressed_pairIPNS_4pairI7BMatrixiEENS_9allocatorIS3_EEE6secondB8ue170006Ev, symObjAddr: 0x1D740, symBinAddr: 0x10002178C, symSize: 0x24 }
  - { offsetInCU: 0x3D60B, offset: 0x3D60B, size: 0x8, addend: 0x0, symName: __ZNKSt3__122__compressed_pair_elemINS_9allocatorINS_4pairI7BMatrixiEEEELi1ELb1EE5__getB8ue170006Ev, symObjAddr: 0x1D764, symBinAddr: 0x1000217B0, symSize: 0x14 }
  - { offsetInCU: 0x3D631, offset: 0x3D631, size: 0x8, addend: 0x0, symName: __ZNSt3__114__split_bufferINS_4pairI7BMatrixiEERNS_9allocatorIS3_EEEC2EmmS6_, symObjAddr: 0x1D778, symBinAddr: 0x1000217C4, symSize: 0xE0 }
  - { offsetInCU: 0x3D6A4, offset: 0x3D6A4, size: 0x8, addend: 0x0, symName: __ZNSt3__117__compressed_pairIPNS_4pairI7BMatrixiEERNS_9allocatorIS3_EEEC1B8ue170006IDnS7_EEOT_OT0_, symObjAddr: 0x1D858, symBinAddr: 0x1000218A4, symSize: 0x3C }
  - { offsetInCU: 0x3D6FC, offset: 0x3D6FC, size: 0x8, addend: 0x0, symName: __ZNSt3__114__split_bufferINS_4pairI7BMatrixiEERNS_9allocatorIS3_EEE7__allocB8ue170006Ev, symObjAddr: 0x1D8D4, symBinAddr: 0x100021920, symSize: 0x28 }
  - { offsetInCU: 0x3D722, offset: 0x3D722, size: 0x8, addend: 0x0, symName: __ZNSt3__114__split_bufferINS_4pairI7BMatrixiEERNS_9allocatorIS3_EEE9__end_capB8ue170006Ev, symObjAddr: 0x1D8FC, symBinAddr: 0x100021948, symSize: 0x28 }
  - { offsetInCU: 0x3D748, offset: 0x3D748, size: 0x8, addend: 0x0, symName: __ZNSt3__117__compressed_pairIPNS_4pairI7BMatrixiEERNS_9allocatorIS3_EEEC2B8ue170006IDnS7_EEOT_OT0_, symObjAddr: 0x1D924, symBinAddr: 0x100021970, symSize: 0x48 }
  - { offsetInCU: 0x3D7A0, offset: 0x3D7A0, size: 0x8, addend: 0x0, symName: __ZNSt3__122__compressed_pair_elemIRNS_9allocatorINS_4pairI7BMatrixiEEEELi1ELb0EEC2B8ue170006IS6_vEEOT_, symObjAddr: 0x1D96C, symBinAddr: 0x1000219B8, symSize: 0x20 }
  - { offsetInCU: 0x3D7E2, offset: 0x3D7E2, size: 0x8, addend: 0x0, symName: __ZNSt3__19allocatorINS_4pairI7BMatrixiEEE8allocateB8ue170006Em, symObjAddr: 0x1D98C, symBinAddr: 0x1000219D8, symSize: 0x5C }
  - { offsetInCU: 0x3D816, offset: 0x3D816, size: 0x8, addend: 0x0, symName: __ZNSt3__117__compressed_pairIPNS_4pairI7BMatrixiEERNS_9allocatorIS3_EEE6secondB8ue170006Ev, symObjAddr: 0x1D9E8, symBinAddr: 0x100021A34, symSize: 0x28 }
  - { offsetInCU: 0x3D83C, offset: 0x3D83C, size: 0x8, addend: 0x0, symName: __ZNSt3__122__compressed_pair_elemIRNS_9allocatorINS_4pairI7BMatrixiEEEELi1ELb0EE5__getB8ue170006Ev, symObjAddr: 0x1DA10, symBinAddr: 0x100021A5C, symSize: 0x18 }
  - { offsetInCU: 0x3D862, offset: 0x3D862, size: 0x8, addend: 0x0, symName: __ZNSt3__117__compressed_pairIPNS_4pairI7BMatrixiEERNS_9allocatorIS3_EEE5firstB8ue170006Ev, symObjAddr: 0x1DA28, symBinAddr: 0x100021A74, symSize: 0x24 }
  - { offsetInCU: 0x3D888, offset: 0x3D888, size: 0x8, addend: 0x0, symName: __ZNSt3__116reverse_iteratorIPNS_4pairI7BMatrixiEEEC1B8ue170006ES4_, symObjAddr: 0x1DB78, symBinAddr: 0x100021BC4, symSize: 0x34 }
  - { offsetInCU: 0x3D8C0, offset: 0x3D8C0, size: 0x8, addend: 0x0, symName: __ZNKSt3__116reverse_iteratorIPNS_4pairI7BMatrixiEEE4baseB8ue170006Ev, symObjAddr: 0x1DBAC, symBinAddr: 0x100021BF8, symSize: 0x18 }
  - { offsetInCU: 0x3D8E6, offset: 0x3D8E6, size: 0x8, addend: 0x0, symName: __ZNKSt3__16vectorINS_4pairI7BMatrixiEENS_9allocatorIS3_EEE14__annotate_newB8ue170006Em, symObjAddr: 0x1DC00, symBinAddr: 0x100021C4C, symSize: 0xC8 }
  - { offsetInCU: 0x3D91B, offset: 0x3D91B, size: 0x8, addend: 0x0, symName: __ZNSt3__129_AllocatorDestroyRangeReverseINS_9allocatorINS_4pairI7BMatrixiEEEENS_16reverse_iteratorIPS4_EEEC1B8ue170006ERS5_RS8_SB_, symObjAddr: 0x1DD14, symBinAddr: 0x100021D60, symSize: 0x44 }
  - { offsetInCU: 0x3D972, offset: 0x3D972, size: 0x8, addend: 0x0, symName: __ZNSt3__116allocator_traitsINS_9allocatorINS_4pairI7BMatrixiEEEEE9constructB8ue170006IS4_JS4_EvEEvRS5_PT_DpOT0_, symObjAddr: 0x1DDA0, symBinAddr: 0x100021DEC, symSize: 0x34 }
  - { offsetInCU: 0x3D9C9, offset: 0x3D9C9, size: 0x8, addend: 0x0, symName: __ZNKSt3__116reverse_iteratorIPNS_4pairI7BMatrixiEEEdeB8ue170006Ev, symObjAddr: 0x1DDF8, symBinAddr: 0x100021E44, symSize: 0x28 }
  - { offsetInCU: 0x3D9FD, offset: 0x3D9FD, size: 0x8, addend: 0x0, symName: __ZNSt3__116reverse_iteratorIPNS_4pairI7BMatrixiEEEppB8ue170006Ev, symObjAddr: 0x1DE20, symBinAddr: 0x100021E6C, symSize: 0x20 }
  - { offsetInCU: 0x3DA23, offset: 0x3DA23, size: 0x8, addend: 0x0, symName: __ZNSt3__128__exception_guard_exceptionsINS_29_AllocatorDestroyRangeReverseINS_9allocatorINS_4pairI7BMatrixiEEEENS_16reverse_iteratorIPS5_EEEEE10__completeB8ue170006Ev, symObjAddr: 0x1DE40, symBinAddr: 0x100021E8C, symSize: 0x1C }
  - { offsetInCU: 0x3DA49, offset: 0x3DA49, size: 0x8, addend: 0x0, symName: __ZNSt3__128__exception_guard_exceptionsINS_29_AllocatorDestroyRangeReverseINS_9allocatorINS_4pairI7BMatrixiEEEENS_16reverse_iteratorIPS5_EEEEED1B8ue170006Ev, symObjAddr: 0x1DE5C, symBinAddr: 0x100021EA8, symSize: 0x2C }
  - { offsetInCU: 0x3DA73, offset: 0x3DA73, size: 0x8, addend: 0x0, symName: __ZNSt3__128__exception_guard_exceptionsINS_29_AllocatorDestroyRangeReverseINS_9allocatorINS_4pairI7BMatrixiEEEENS_16reverse_iteratorIPS5_EEEEEC1B8ue170006ESA_, symObjAddr: 0x1DE88, symBinAddr: 0x100021ED4, symSize: 0x34 }
  - { offsetInCU: 0x3DAAC, offset: 0x3DAAC, size: 0x8, addend: 0x0, symName: __ZNSt3__128__exception_guard_exceptionsINS_29_AllocatorDestroyRangeReverseINS_9allocatorINS_4pairI7BMatrixiEEEENS_16reverse_iteratorIPS5_EEEEEC2B8ue170006ESA_, symObjAddr: 0x1DEBC, symBinAddr: 0x100021F08, symSize: 0x30 }
  - { offsetInCU: 0x3DAE5, offset: 0x3DAE5, size: 0x8, addend: 0x0, symName: __ZNSt3__129_AllocatorDestroyRangeReverseINS_9allocatorINS_4pairI7BMatrixiEEEENS_16reverse_iteratorIPS4_EEEC2B8ue170006ERS5_RS8_SB_, symObjAddr: 0x1DEEC, symBinAddr: 0x100021F38, symSize: 0x38 }
  - { offsetInCU: 0x3DB3C, offset: 0x3DB3C, size: 0x8, addend: 0x0, symName: __ZNSt3__19allocatorINS_4pairI7BMatrixiEEE9constructB8ue170006IS3_JS3_EEEvPT_DpOT0_, symObjAddr: 0x1DF24, symBinAddr: 0x100021F70, symSize: 0x30 }
  - { offsetInCU: 0x3DB92, offset: 0x3DB92, size: 0x8, addend: 0x0, symName: __ZNSt3__14pairI7BMatrixiEC1B8ue170006EOS2_, symObjAddr: 0x1DF54, symBinAddr: 0x100021FA0, symSize: 0x34 }
  - { offsetInCU: 0x3DBC6, offset: 0x3DBC6, size: 0x8, addend: 0x0, symName: __ZNSt3__14pairI7BMatrixiEC2B8ue170006EOS2_, symObjAddr: 0x1DF88, symBinAddr: 0x100021FD4, symSize: 0x40 }
  - { offsetInCU: 0x3DC00, offset: 0x3DC00, size: 0x8, addend: 0x0, symName: __ZNSt3__119__to_address_helperINS_16reverse_iteratorIPNS_4pairI7BMatrixiEEEEvE6__callB8ue170006ERKS6_, symObjAddr: 0x1DFC8, symBinAddr: 0x100022014, symSize: 0x38 }
  - { offsetInCU: 0x3DC23, offset: 0x3DC23, size: 0x8, addend: 0x0, symName: __ZNKSt3__116reverse_iteratorIPNS_4pairI7BMatrixiEEEptB8ue170006Ev, symObjAddr: 0x1E000, symBinAddr: 0x10002204C, symSize: 0x24 }
  - { offsetInCU: 0x3DC49, offset: 0x3DC49, size: 0x8, addend: 0x0, symName: __ZNSt3__128__exception_guard_exceptionsINS_29_AllocatorDestroyRangeReverseINS_9allocatorINS_4pairI7BMatrixiEEEENS_16reverse_iteratorIPS5_EEEEED2B8ue170006Ev, symObjAddr: 0x1E024, symBinAddr: 0x100022070, symSize: 0x50 }
  - { offsetInCU: 0x3DC73, offset: 0x3DC73, size: 0x8, addend: 0x0, symName: __ZNKSt3__129_AllocatorDestroyRangeReverseINS_9allocatorINS_4pairI7BMatrixiEEEENS_16reverse_iteratorIPS4_EEEclB8ue170006Ev, symObjAddr: 0x1E074, symBinAddr: 0x1000220C0, symSize: 0xB4 }
  - { offsetInCU: 0x3DC9A, offset: 0x3DC9A, size: 0x8, addend: 0x0, symName: __ZNSt3__116reverse_iteratorINS0_IPNS_4pairI7BMatrixiEEEEEC1B8ue170006ES5_, symObjAddr: 0x1E198, symBinAddr: 0x1000221E4, symSize: 0x3C }
  - { offsetInCU: 0x3DCD2, offset: 0x3DCD2, size: 0x8, addend: 0x0, symName: __ZNSt3__116reverse_iteratorINS0_IPNS_4pairI7BMatrixiEEEEEppB8ue170006Ev, symObjAddr: 0x1E258, symBinAddr: 0x1000222A4, symSize: 0x30 }
  - { offsetInCU: 0x3DCF8, offset: 0x3DCF8, size: 0x8, addend: 0x0, symName: __ZNKSt3__116reverse_iteratorINS0_IPNS_4pairI7BMatrixiEEEEE4baseB8ue170006Ev, symObjAddr: 0x1E288, symBinAddr: 0x1000222D4, symSize: 0x24 }
  - { offsetInCU: 0x3DD24, offset: 0x3DD24, size: 0x8, addend: 0x0, symName: __ZNSt3__119__to_address_helperINS_16reverse_iteratorINS1_IPNS_4pairI7BMatrixiEEEEEEvE6__callB8ue170006ERKS7_, symObjAddr: 0x1E2AC, symBinAddr: 0x1000222F8, symSize: 0x38 }
  - { offsetInCU: 0x3DD47, offset: 0x3DD47, size: 0x8, addend: 0x0, symName: __ZNKSt3__116reverse_iteratorINS0_IPNS_4pairI7BMatrixiEEEEEptB8ue170006Ev, symObjAddr: 0x1E2E4, symBinAddr: 0x100022330, symSize: 0x24 }
  - { offsetInCU: 0x3DD6D, offset: 0x3DD6D, size: 0x8, addend: 0x0, symName: __ZNKSt3__116reverse_iteratorINS0_IPNS_4pairI7BMatrixiEEEEEdeB8ue170006Ev, symObjAddr: 0x1E308, symBinAddr: 0x100022354, symSize: 0x34 }
  - { offsetInCU: 0x3DDA1, offset: 0x3DDA1, size: 0x8, addend: 0x0, symName: __ZNSt3__116reverse_iteratorIPNS_4pairI7BMatrixiEEEmmB8ue170006Ev, symObjAddr: 0x1E33C, symBinAddr: 0x100022388, symSize: 0x20 }
  - { offsetInCU: 0x3DDC7, offset: 0x3DDC7, size: 0x8, addend: 0x0, symName: __ZNSt3__116reverse_iteratorINS0_IPNS_4pairI7BMatrixiEEEEEC2B8ue170006ES5_, symObjAddr: 0x1E35C, symBinAddr: 0x1000223A8, symSize: 0x2C }
  - { offsetInCU: 0x3DDFF, offset: 0x3DDFF, size: 0x8, addend: 0x0, symName: __ZNSt3__116reverse_iteratorIPNS_4pairI7BMatrixiEEEC2B8ue170006ES4_, symObjAddr: 0x1E388, symBinAddr: 0x1000223D4, symSize: 0x28 }
  - { offsetInCU: 0x3DE37, offset: 0x3DE37, size: 0x8, addend: 0x0, symName: __ZNSt3__114__split_bufferINS_4pairI7BMatrixiEERNS_9allocatorIS3_EEED2Ev, symObjAddr: 0x1E3B0, symBinAddr: 0x1000223FC, symSize: 0x8C }
  - { offsetInCU: 0x3DE63, offset: 0x3DE63, size: 0x8, addend: 0x0, symName: __ZNSt3__114__split_bufferINS_4pairI7BMatrixiEERNS_9allocatorIS3_EEE5clearB8ue170006Ev, symObjAddr: 0x1E43C, symBinAddr: 0x100022488, symSize: 0x28 }
  - { offsetInCU: 0x3DE89, offset: 0x3DE89, size: 0x8, addend: 0x0, symName: __ZNKSt3__114__split_bufferINS_4pairI7BMatrixiEERNS_9allocatorIS3_EEE8capacityB8ue170006Ev, symObjAddr: 0x1E464, symBinAddr: 0x1000224B0, symSize: 0x40 }
  - { offsetInCU: 0x3DEAF, offset: 0x3DEAF, size: 0x8, addend: 0x0, symName: __ZNSt3__114__split_bufferINS_4pairI7BMatrixiEERNS_9allocatorIS3_EEE17__destruct_at_endB8ue170006EPS3_, symObjAddr: 0x1E4A4, symBinAddr: 0x1000224F0, symSize: 0x2C }
  - { offsetInCU: 0x3DEE3, offset: 0x3DEE3, size: 0x8, addend: 0x0, symName: __ZNSt3__114__split_bufferINS_4pairI7BMatrixiEERNS_9allocatorIS3_EEE17__destruct_at_endB8ue170006EPS3_NS_17integral_constantIbLb0EEE, symObjAddr: 0x1E4D0, symBinAddr: 0x10002251C, symSize: 0x80 }
  - { offsetInCU: 0x3DF23, offset: 0x3DF23, size: 0x8, addend: 0x0, symName: __ZNKSt3__114__split_bufferINS_4pairI7BMatrixiEERNS_9allocatorIS3_EEE9__end_capB8ue170006Ev, symObjAddr: 0x1E550, symBinAddr: 0x10002259C, symSize: 0x28 }
  - { offsetInCU: 0x3DF49, offset: 0x3DF49, size: 0x8, addend: 0x0, symName: __ZNKSt3__117__compressed_pairIPNS_4pairI7BMatrixiEERNS_9allocatorIS3_EEE5firstB8ue170006Ev, symObjAddr: 0x1E578, symBinAddr: 0x1000225C4, symSize: 0x24 }
  - { offsetInCU: 0x3DF6F, offset: 0x3DF6F, size: 0x8, addend: 0x0, symName: __ZNSt3__16vectorIiNS_9allocatorIiEEE13__move_assignERS3_NS_17integral_constantIbLb1EEE, symObjAddr: 0x1E59C, symBinAddr: 0x1000225E8, symSize: 0x94 }
  - { offsetInCU: 0x3DFB2, offset: 0x3DFB2, size: 0x8, addend: 0x0, symName: __ZNSt3__16vectorIiNS_9allocatorIiEEE13__vdeallocateEv, symObjAddr: 0x1E630, symBinAddr: 0x10002267C, symSize: 0x94 }
  - { offsetInCU: 0x3DFDA, offset: 0x3DFDA, size: 0x8, addend: 0x0, symName: __ZNSt3__16vectorIiNS_9allocatorIiEEE19__move_assign_allocB8ue170006ERS3_, symObjAddr: 0x1E6C4, symBinAddr: 0x100022710, symSize: 0x2C }
  - { offsetInCU: 0x3E00F, offset: 0x3E00F, size: 0x8, addend: 0x0, symName: __ZNSt3__16vectorIiNS_9allocatorIiEEE5clearB8ue170006Ev, symObjAddr: 0x1E6F0, symBinAddr: 0x10002273C, symSize: 0x44 }
  - { offsetInCU: 0x3E044, offset: 0x3E044, size: 0x8, addend: 0x0, symName: __ZNSt3__16vectorIiNS_9allocatorIiEEE19__move_assign_allocB8ue170006ERS3_NS_17integral_constantIbLb1EEE, symObjAddr: 0x1E734, symBinAddr: 0x100022780, symSize: 0x38 }
  - { offsetInCU: 0x3E085, offset: 0x3E085, size: 0x8, addend: 0x0, symName: __ZNSt3__16vectorINS_4pairI7BMatrixiEENS_9allocatorIS3_EEE11__make_iterB8ue170006EPS3_, symObjAddr: 0x1E76C, symBinAddr: 0x1000227B8, symSize: 0x30 }
  - { offsetInCU: 0x3E0BA, offset: 0x3E0BA, size: 0x8, addend: 0x0, symName: __ZNSt3__111__wrap_iterIPNS_4pairI7BMatrixiEEEC1B8ue170006ES4_, symObjAddr: 0x1E79C, symBinAddr: 0x1000227E8, symSize: 0x34 }
  - { offsetInCU: 0x3E0F2, offset: 0x3E0F2, size: 0x8, addend: 0x0, symName: __ZNSt3__111__wrap_iterIPNS_4pairI7BMatrixiEEEC2B8ue170006ES4_, symObjAddr: 0x1E7D0, symBinAddr: 0x10002281C, symSize: 0x20 }
  - { offsetInCU: 0x3E12A, offset: 0x3E12A, size: 0x8, addend: 0x0, symName: '__ZNSt3__18functionIFvNS_6vectorIbNS_9allocatorIbEEEEEEC2IZ17brouwer_zimmerman7BMatrixS8_E3$_4vEET_', symObjAddr: 0x1E7F0, symBinAddr: 0x10002283C, symSize: 0x34 }
  - { offsetInCU: 0x3E170, offset: 0x3E170, size: 0x8, addend: 0x0, symName: '__ZNSt3__110__function12__value_funcIFvNS_6vectorIbNS_9allocatorIbEEEEEEC1B8ue170006IZ17brouwer_zimmerman7BMatrixS9_E3$_4vEEOT_', symObjAddr: 0x1E824, symBinAddr: 0x100022870, symSize: 0x50 }
  - { offsetInCU: 0x3E1B3, offset: 0x3E1B3, size: 0x8, addend: 0x0, symName: '__ZNSt3__19allocatorIZ17brouwer_zimmerman7BMatrixS1_E3$_4EC1B8ue170006Ev', symObjAddr: 0x1E874, symBinAddr: 0x1000228C0, symSize: 0x2C }
  - { offsetInCU: 0x3E1DD, offset: 0x3E1DD, size: 0x8, addend: 0x0, symName: '__ZNSt3__110__function12__value_funcIFvNS_6vectorIbNS_9allocatorIbEEEEEEC1B8ue170006IZ17brouwer_zimmerman7BMatrixS9_E3$_4NS3_ISA_EEEEOT_RKT0_', symObjAddr: 0x1E8A0, symBinAddr: 0x1000228EC, symSize: 0x3C }
  - { offsetInCU: 0x3E237, offset: 0x3E237, size: 0x8, addend: 0x0, symName: '__ZNSt3__19allocatorIZ17brouwer_zimmerman7BMatrixS1_E3$_4EC2B8ue170006Ev', symObjAddr: 0x1E8DC, symBinAddr: 0x100022928, symSize: 0x2C }
  - { offsetInCU: 0x3E261, offset: 0x3E261, size: 0x8, addend: 0x0, symName: '__ZNSt3__116__non_trivial_ifILb1ENS_9allocatorIZ17brouwer_zimmerman7BMatrixS2_E3$_4EEEC2B8ue170006Ev', symObjAddr: 0x1E908, symBinAddr: 0x100022954, symSize: 0x14 }
  - { offsetInCU: 0x3E28B, offset: 0x3E28B, size: 0x8, addend: 0x0, symName: '__ZNSt3__110__function12__value_funcIFvNS_6vectorIbNS_9allocatorIbEEEEEEC2B8ue170006IZ17brouwer_zimmerman7BMatrixS9_E3$_4NS3_ISA_EEEEOT_RKT0_', symObjAddr: 0x1E91C, symBinAddr: 0x100022968, symSize: 0xF4 }
  - { offsetInCU: 0x3E344, offset: 0x3E344, size: 0x8, addend: 0x0, symName: '__ZNSt3__19allocatorINS_10__function6__funcIZ17brouwer_zimmerman7BMatrixS3_E3$_4NS0_IS4_EEFvNS_6vectorIbNS0_IbEEEEEEEEC1B8ue170006IS4_EERKNS0_IT_EE', symObjAddr: 0x1EA28, symBinAddr: 0x100022A74, symSize: 0x34 }
  - { offsetInCU: 0x3E381, offset: 0x3E381, size: 0x8, addend: 0x0, symName: '__ZNSt3__19allocatorINS_10__function6__funcIZ17brouwer_zimmerman7BMatrixS3_E3$_4NS0_IS4_EEFvNS_6vectorIbNS0_IbEEEEEEEE8allocateB8ue170006Em', symObjAddr: 0x1EA5C, symBinAddr: 0x100022AA8, symSize: 0x58 }
  - { offsetInCU: 0x3E3C7, offset: 0x3E3C7, size: 0x8, addend: 0x0, symName: '__ZNSt3__122__allocator_destructorINS_9allocatorINS_10__function6__funcIZ17brouwer_zimmerman7BMatrixS4_E3$_4NS1_IS5_EEFvNS_6vectorIbNS1_IbEEEEEEEEEEC1B8ue170006ERSC_m', symObjAddr: 0x1EAB4, symBinAddr: 0x100022B00, symSize: 0x3C }
  - { offsetInCU: 0x3E4AE, offset: 0x3E4AE, size: 0x8, addend: 0x0, symName: '__ZNSt3__110unique_ptrINS_10__function6__baseIFvNS_6vectorIbNS_9allocatorIbEEEEEEENS_22__allocator_destructorINS4_INS1_6__funcIZ17brouwer_zimmerman7BMatrixSB_E3$_4NS4_ISC_EES7_EEEEEEEC1B8ue170006ILb1EvEEPSE_NS_16__dependent_typeINS_27__unique_ptr_deleter_sfinaeISG_EEXT_EE20__good_rval_ref_typeE', symObjAddr: 0x1EAF0, symBinAddr: 0x100022B3C, symSize: 0x3C }
  - { offsetInCU: 0x3E4FF, offset: 0x3E4FF, size: 0x8, addend: 0x0, symName: '__ZNKSt3__110unique_ptrINS_10__function6__baseIFvNS_6vectorIbNS_9allocatorIbEEEEEEENS_22__allocator_destructorINS4_INS1_6__funcIZ17brouwer_zimmerman7BMatrixSB_E3$_4NS4_ISC_EES7_EEEEEEE3getB8ue170006Ev', symObjAddr: 0x1EB2C, symBinAddr: 0x100022B78, symSize: 0x28 }
  - { offsetInCU: 0x3E525, offset: 0x3E525, size: 0x8, addend: 0x0, symName: '__ZNSt3__110__function6__funcIZ17brouwer_zimmerman7BMatrixS2_E3$_4NS_9allocatorIS3_EEFvNS_6vectorIbNS4_IbEEEEEEC1B8ue170006EOS3_OS5_', symObjAddr: 0x1EB54, symBinAddr: 0x100022BA0, symSize: 0x3C }
  - { offsetInCU: 0x3E56D, offset: 0x3E56D, size: 0x8, addend: 0x0, symName: '__ZNSt3__110unique_ptrINS_10__function6__baseIFvNS_6vectorIbNS_9allocatorIbEEEEEEENS_22__allocator_destructorINS4_INS1_6__funcIZ17brouwer_zimmerman7BMatrixSB_E3$_4NS4_ISC_EES7_EEEEEEE7releaseB8ue170006Ev', symObjAddr: 0x1EB90, symBinAddr: 0x100022BDC, symSize: 0x44 }
  - { offsetInCU: 0x3E5A2, offset: 0x3E5A2, size: 0x8, addend: 0x0, symName: '__ZNSt3__110unique_ptrINS_10__function6__baseIFvNS_6vectorIbNS_9allocatorIbEEEEEEENS_22__allocator_destructorINS4_INS1_6__funcIZ17brouwer_zimmerman7BMatrixSB_E3$_4NS4_ISC_EES7_EEEEEEED1B8ue170006Ev', symObjAddr: 0x1EBD4, symBinAddr: 0x100022C20, symSize: 0x2C }
  - { offsetInCU: 0x3E5CC, offset: 0x3E5CC, size: 0x8, addend: 0x0, symName: '__ZNSt3__19allocatorINS_10__function6__funcIZ17brouwer_zimmerman7BMatrixS3_E3$_4NS0_IS4_EEFvNS_6vectorIbNS0_IbEEEEEEEEC2B8ue170006IS4_EERKNS0_IT_EE', symObjAddr: 0x1EC00, symBinAddr: 0x100022C4C, symSize: 0x30 }
  - { offsetInCU: 0x3E609, offset: 0x3E609, size: 0x8, addend: 0x0, symName: '__ZNSt3__116__non_trivial_ifILb1ENS_9allocatorINS_10__function6__funcIZ17brouwer_zimmerman7BMatrixS4_E3$_4NS1_IS5_EEFvNS_6vectorIbNS1_IbEEEEEEEEEEC2B8ue170006Ev', symObjAddr: 0x1EC30, symBinAddr: 0x100022C7C, symSize: 0x14 }
  - { offsetInCU: 0x3E63E, offset: 0x3E63E, size: 0x8, addend: 0x0, symName: '__ZNSt3__116allocator_traitsINS_9allocatorINS_10__function6__funcIZ17brouwer_zimmerman7BMatrixS4_E3$_4NS1_IS5_EEFvNS_6vectorIbNS1_IbEEEEEEEEEE8max_sizeB8ue170006ISC_vEEmRKSC_', symObjAddr: 0x1EC44, symBinAddr: 0x100022C90, symSize: 0x24 }
  - { offsetInCU: 0x3E66C, offset: 0x3E66C, size: 0x8, addend: 0x0, symName: '__ZNKSt3__19allocatorINS_10__function6__funcIZ17brouwer_zimmerman7BMatrixS3_E3$_4NS0_IS4_EEFvNS_6vectorIbNS0_IbEEEEEEEE8max_sizeB8ue170006Ev', symObjAddr: 0x1EC68, symBinAddr: 0x100022CB4, symSize: 0x14 }
  - { offsetInCU: 0x3E692, offset: 0x3E692, size: 0x8, addend: 0x0, symName: '__ZNSt3__122__allocator_destructorINS_9allocatorINS_10__function6__funcIZ17brouwer_zimmerman7BMatrixS4_E3$_4NS1_IS5_EEFvNS_6vectorIbNS1_IbEEEEEEEEEEC2B8ue170006ERSC_m', symObjAddr: 0x1EC7C, symBinAddr: 0x100022CC8, symSize: 0x2C }
  - { offsetInCU: 0x3E6D8, offset: 0x3E6D8, size: 0x8, addend: 0x0, symName: '__ZNSt3__110unique_ptrINS_10__function6__baseIFvNS_6vectorIbNS_9allocatorIbEEEEEEENS_22__allocator_destructorINS4_INS1_6__funcIZ17brouwer_zimmerman7BMatrixSB_E3$_4NS4_ISC_EES7_EEEEEEEC2B8ue170006ILb1EvEEPSE_NS_16__dependent_typeINS_27__unique_ptr_deleter_sfinaeISG_EEXT_EE20__good_rval_ref_typeE', symObjAddr: 0x1ECA8, symBinAddr: 0x100022CF4, symSize: 0x48 }
  - { offsetInCU: 0x3E729, offset: 0x3E729, size: 0x8, addend: 0x0, symName: '__ZNSt3__117__compressed_pairIPNS_10__function6__funcIZ17brouwer_zimmerman7BMatrixS3_E3$_4NS_9allocatorIS4_EEFvNS_6vectorIbNS5_IbEEEEEEENS_22__allocator_destructorINS5_ISB_EEEEEC1B8ue170006IRSC_SF_EEOT_OT0_', symObjAddr: 0x1ECF0, symBinAddr: 0x100022D3C, symSize: 0x3C }
  - { offsetInCU: 0x3E781, offset: 0x3E781, size: 0x8, addend: 0x0, symName: '__ZNSt3__117__compressed_pairIPNS_10__function6__funcIZ17brouwer_zimmerman7BMatrixS3_E3$_4NS_9allocatorIS4_EEFvNS_6vectorIbNS5_IbEEEEEEENS_22__allocator_destructorINS5_ISB_EEEEEC2B8ue170006IRSC_SF_EEOT_OT0_', symObjAddr: 0x1ED2C, symBinAddr: 0x100022D78, symSize: 0x48 }
  - { offsetInCU: 0x3E7D9, offset: 0x3E7D9, size: 0x8, addend: 0x0, symName: '__ZNSt3__122__compressed_pair_elemIPNS_10__function6__funcIZ17brouwer_zimmerman7BMatrixS3_E3$_4NS_9allocatorIS4_EEFvNS_6vectorIbNS5_IbEEEEEEELi0ELb0EEC2B8ue170006IRSC_vEEOT_', symObjAddr: 0x1ED74, symBinAddr: 0x100022DC0, symSize: 0x24 }
  - { offsetInCU: 0x3E81B, offset: 0x3E81B, size: 0x8, addend: 0x0, symName: '__ZNSt3__122__compressed_pair_elemINS_22__allocator_destructorINS_9allocatorINS_10__function6__funcIZ17brouwer_zimmerman7BMatrixS5_E3$_4NS2_IS6_EEFvNS_6vectorIbNS2_IbEEEEEEEEEEELi1ELb0EEC2B8ue170006ISE_vEEOT_', symObjAddr: 0x1ED98, symBinAddr: 0x100022DE4, symSize: 0x24 }
  - { offsetInCU: 0x3E85D, offset: 0x3E85D, size: 0x8, addend: 0x0, symName: '__ZNKSt3__117__compressed_pairIPNS_10__function6__funcIZ17brouwer_zimmerman7BMatrixS3_E3$_4NS_9allocatorIS4_EEFvNS_6vectorIbNS5_IbEEEEEEENS_22__allocator_destructorINS5_ISB_EEEEE5firstB8ue170006Ev', symObjAddr: 0x1EDBC, symBinAddr: 0x100022E08, symSize: 0x24 }
  - { offsetInCU: 0x3E883, offset: 0x3E883, size: 0x8, addend: 0x0, symName: '__ZNKSt3__122__compressed_pair_elemIPNS_10__function6__funcIZ17brouwer_zimmerman7BMatrixS3_E3$_4NS_9allocatorIS4_EEFvNS_6vectorIbNS5_IbEEEEEEELi0ELb0EE5__getB8ue170006Ev', symObjAddr: 0x1EDE0, symBinAddr: 0x100022E2C, symSize: 0x14 }
  - { offsetInCU: 0x3E8A9, offset: 0x3E8A9, size: 0x8, addend: 0x0, symName: '__ZNSt3__110__function6__funcIZ17brouwer_zimmerman7BMatrixS2_E3$_4NS_9allocatorIS3_EEFvNS_6vectorIbNS4_IbEEEEEEC2B8ue170006EOS3_OS5_', symObjAddr: 0x1EDF4, symBinAddr: 0x100022E40, symSize: 0x88 }
  - { offsetInCU: 0x3E8F1, offset: 0x3E8F1, size: 0x8, addend: 0x0, symName: '__ZNSt3__110__function12__alloc_funcIZ17brouwer_zimmerman7BMatrixS2_E3$_4NS_9allocatorIS3_EEFvNS_6vectorIbNS4_IbEEEEEEC1B8ue170006EOS3_OS5_', symObjAddr: 0x1EE7C, symBinAddr: 0x100022EC8, symSize: 0x3C }
  - { offsetInCU: 0x3E937, offset: 0x3E937, size: 0x8, addend: 0x0, symName: '__ZNSt3__110__function6__funcIZ17brouwer_zimmerman7BMatrixS2_E3$_4NS_9allocatorIS3_EEFvNS_6vectorIbNS4_IbEEEEEED1Ev', symObjAddr: 0x1EEB8, symBinAddr: 0x100022F04, symSize: 0x2C }
  - { offsetInCU: 0x3E964, offset: 0x3E964, size: 0x8, addend: 0x0, symName: '__ZNSt3__110__function6__funcIZ17brouwer_zimmerman7BMatrixS2_E3$_4NS_9allocatorIS3_EEFvNS_6vectorIbNS4_IbEEEEEED0Ev', symObjAddr: 0x1EEE4, symBinAddr: 0x100022F30, symSize: 0x30 }
  - { offsetInCU: 0x3E991, offset: 0x3E991, size: 0x8, addend: 0x0, symName: '__ZNKSt3__110__function6__funcIZ17brouwer_zimmerman7BMatrixS2_E3$_4NS_9allocatorIS3_EEFvNS_6vectorIbNS4_IbEEEEEE7__cloneEv', symObjAddr: 0x1EF14, symBinAddr: 0x100022F60, symSize: 0xFC }
  - { offsetInCU: 0x3E9E3, offset: 0x3E9E3, size: 0x8, addend: 0x0, symName: '__ZNKSt3__110__function6__funcIZ17brouwer_zimmerman7BMatrixS2_E3$_4NS_9allocatorIS3_EEFvNS_6vectorIbNS4_IbEEEEEE7__cloneEPNS0_6__baseIS9_EE', symObjAddr: 0x1F010, symBinAddr: 0x10002305C, symSize: 0x58 }
  - { offsetInCU: 0x3EA1A, offset: 0x3EA1A, size: 0x8, addend: 0x0, symName: '__ZNSt3__110__function6__funcIZ17brouwer_zimmerman7BMatrixS2_E3$_4NS_9allocatorIS3_EEFvNS_6vectorIbNS4_IbEEEEEE7destroyEv', symObjAddr: 0x1F068, symBinAddr: 0x1000230B4, symSize: 0x28 }
  - { offsetInCU: 0x3EA42, offset: 0x3EA42, size: 0x8, addend: 0x0, symName: '__ZNSt3__110__function6__funcIZ17brouwer_zimmerman7BMatrixS2_E3$_4NS_9allocatorIS3_EEFvNS_6vectorIbNS4_IbEEEEEE18destroy_deallocateEv', symObjAddr: 0x1F090, symBinAddr: 0x1000230DC, symSize: 0x58 }
  - { offsetInCU: 0x3EA85, offset: 0x3EA85, size: 0x8, addend: 0x0, symName: '__ZNSt3__110__function6__funcIZ17brouwer_zimmerman7BMatrixS2_E3$_4NS_9allocatorIS3_EEFvNS_6vectorIbNS4_IbEEEEEEclEOS8_', symObjAddr: 0x1F0E8, symBinAddr: 0x100023134, symSize: 0x30 }
  - { offsetInCU: 0x3EABC, offset: 0x3EABC, size: 0x8, addend: 0x0, symName: '__ZNKSt3__110__function6__funcIZ17brouwer_zimmerman7BMatrixS2_E3$_4NS_9allocatorIS3_EEFvNS_6vectorIbNS4_IbEEEEEE6targetERKSt9type_info', symObjAddr: 0x1F118, symBinAddr: 0x100023164, symSize: 0x60 }
  - { offsetInCU: 0x3EAF3, offset: 0x3EAF3, size: 0x8, addend: 0x0, symName: '__ZNKSt3__110__function6__funcIZ17brouwer_zimmerman7BMatrixS2_E3$_4NS_9allocatorIS3_EEFvNS_6vectorIbNS4_IbEEEEEE11target_typeEv', symObjAddr: 0x1F178, symBinAddr: 0x1000231C4, symSize: 0x18 }
  - { offsetInCU: 0x3EB1B, offset: 0x3EB1B, size: 0x8, addend: 0x0, symName: '__ZNSt3__110__function12__alloc_funcIZ17brouwer_zimmerman7BMatrixS2_E3$_4NS_9allocatorIS3_EEFvNS_6vectorIbNS4_IbEEEEEEC2B8ue170006EOS3_OS5_', symObjAddr: 0x1F190, symBinAddr: 0x1000231DC, symSize: 0x5C }
  - { offsetInCU: 0x3EB61, offset: 0x3EB61, size: 0x8, addend: 0x0, symName: '__ZNSt3__117__compressed_pairIZ17brouwer_zimmerman7BMatrixS1_E3$_4NS_9allocatorIS2_EEEC1B8ue170006IJOS2_EJOS4_EEENS_21piecewise_construct_tENS_5tupleIJDpT_EEENSA_IJDpT0_EEE', symObjAddr: 0x1F244, symBinAddr: 0x100023290, symSize: 0x3C }
  - { offsetInCU: 0x3EBCB, offset: 0x3EBCB, size: 0x8, addend: 0x0, symName: '__ZNSt3__15tupleIJOZ17brouwer_zimmerman7BMatrixS1_E3$_4EEC1B8ue170006IJS2_ELi0EEEDpOT_', symObjAddr: 0x1F280, symBinAddr: 0x1000232CC, symSize: 0x34 }
  - { offsetInCU: 0x3EC15, offset: 0x3EC15, size: 0x8, addend: 0x0, symName: '__ZNSt3__15tupleIJOZ17brouwer_zimmerman7BMatrixS1_E3$_4EEC2B8ue170006IJS2_ELi0EEEDpOT_', symObjAddr: 0x1F2B4, symBinAddr: 0x100023300, symSize: 0x34 }
  - { offsetInCU: 0x3EC5F, offset: 0x3EC5F, size: 0x8, addend: 0x0, symName: '__ZNSt3__112__tuple_implINS_15__tuple_indicesIJLm0EEEEJOZ17brouwer_zimmerman7BMatrixS3_E3$_4EEC1B8ue170006IJLm0EEJS5_EJEJEJS4_EEENS1_IJXspT_EEEENS_13__tuple_typesIJDpT0_EEENS1_IJXspT1_EEEENS9_IJDpT2_EEEDpOT3_', symObjAddr: 0x1F2E8, symBinAddr: 0x100023334, symSize: 0x34 }
  - { offsetInCU: 0x3ECF4, offset: 0x3ECF4, size: 0x8, addend: 0x0, symName: '__ZNSt3__112__tuple_implINS_15__tuple_indicesIJLm0EEEEJOZ17brouwer_zimmerman7BMatrixS3_E3$_4EEC2B8ue170006IJLm0EEJS5_EJEJEJS4_EEENS1_IJXspT_EEEENS_13__tuple_typesIJDpT0_EEENS1_IJXspT1_EEEENS9_IJDpT2_EEEDpOT3_', symObjAddr: 0x1F31C, symBinAddr: 0x100023368, symSize: 0x34 }
  - { offsetInCU: 0x3ED89, offset: 0x3ED89, size: 0x8, addend: 0x0, symName: '__ZNSt3__112__tuple_leafILm0EOZ17brouwer_zimmerman7BMatrixS1_E3$_4Lb0EEC2B8ue170006IS2_vEEOT_', symObjAddr: 0x1F350, symBinAddr: 0x10002339C, symSize: 0x20 }
  - { offsetInCU: 0x3EDCC, offset: 0x3EDCC, size: 0x8, addend: 0x0, symName: '__ZNSt3__15tupleIJONS_9allocatorIZ17brouwer_zimmerman7BMatrixS2_E3$_4EEEEC1B8ue170006IJS4_ELi0EEEDpOT_', symObjAddr: 0x1F370, symBinAddr: 0x1000233BC, symSize: 0x34 }
  - { offsetInCU: 0x3EE16, offset: 0x3EE16, size: 0x8, addend: 0x0, symName: '__ZNSt3__15tupleIJONS_9allocatorIZ17brouwer_zimmerman7BMatrixS2_E3$_4EEEEC2B8ue170006IJS4_ELi0EEEDpOT_', symObjAddr: 0x1F3A4, symBinAddr: 0x1000233F0, symSize: 0x34 }
  - { offsetInCU: 0x3EE60, offset: 0x3EE60, size: 0x8, addend: 0x0, symName: '__ZNSt3__112__tuple_implINS_15__tuple_indicesIJLm0EEEEJONS_9allocatorIZ17brouwer_zimmerman7BMatrixS4_E3$_4EEEEC1B8ue170006IJLm0EEJS7_EJEJEJS6_EEENS1_IJXspT_EEEENS_13__tuple_typesIJDpT0_EEENS1_IJXspT1_EEEENSB_IJDpT2_EEEDpOT3_', symObjAddr: 0x1F3D8, symBinAddr: 0x100023424, symSize: 0x34 }
  - { offsetInCU: 0x3EEF5, offset: 0x3EEF5, size: 0x8, addend: 0x0, symName: '__ZNSt3__112__tuple_implINS_15__tuple_indicesIJLm0EEEEJONS_9allocatorIZ17brouwer_zimmerman7BMatrixS4_E3$_4EEEEC2B8ue170006IJLm0EEJS7_EJEJEJS6_EEENS1_IJXspT_EEEENS_13__tuple_typesIJDpT0_EEENS1_IJXspT1_EEEENSB_IJDpT2_EEEDpOT3_', symObjAddr: 0x1F40C, symBinAddr: 0x100023458, symSize: 0x34 }
  - { offsetInCU: 0x3EF8A, offset: 0x3EF8A, size: 0x8, addend: 0x0, symName: '__ZNSt3__112__tuple_leafILm0EONS_9allocatorIZ17brouwer_zimmerman7BMatrixS2_E3$_4EELb0EEC2B8ue170006IS4_vEEOT_', symObjAddr: 0x1F440, symBinAddr: 0x10002348C, symSize: 0x20 }
  - { offsetInCU: 0x3EFCD, offset: 0x3EFCD, size: 0x8, addend: 0x0, symName: '__ZNSt3__117__compressed_pairIZ17brouwer_zimmerman7BMatrixS1_E3$_4NS_9allocatorIS2_EEEC2B8ue170006IJOS2_EJOS4_EEENS_21piecewise_construct_tENS_5tupleIJDpT_EEENSA_IJDpT0_EEE', symObjAddr: 0x1F460, symBinAddr: 0x1000234AC, symSize: 0x54 }
  - { offsetInCU: 0x3F037, offset: 0x3F037, size: 0x8, addend: 0x0, symName: '__ZNSt3__122__compressed_pair_elemIZ17brouwer_zimmerman7BMatrixS1_E3$_4Li0ELb0EEC2B8ue170006IJOS2_EJLm0EEEENS_21piecewise_construct_tENS_5tupleIJDpT_EEENS_15__tuple_indicesIJXspT0_EEEE', symObjAddr: 0x1F4B4, symBinAddr: 0x100023500, symSize: 0x4C }
  - { offsetInCU: 0x3F09A, offset: 0x3F09A, size: 0x8, addend: 0x0, symName: '__ZNSt3__122__compressed_pair_elemINS_9allocatorIZ17brouwer_zimmerman7BMatrixS2_E3$_4EELi1ELb1EEC2B8ue170006IJOS4_EJLm0EEEENS_21piecewise_construct_tENS_5tupleIJDpT_EEENS_15__tuple_indicesIJXspT0_EEEE', symObjAddr: 0x1F500, symBinAddr: 0x10002354C, symSize: 0x38 }
  - { offsetInCU: 0x3F0FD, offset: 0x3F0FD, size: 0x8, addend: 0x0, symName: '__ZNSt3__112__tuple_leafILm0EOZ17brouwer_zimmerman7BMatrixS1_E3$_4Lb0EE3getB8ue170006Ev', symObjAddr: 0x1F55C, symBinAddr: 0x1000235A8, symSize: 0x18 }
  - { offsetInCU: 0x3F123, offset: 0x3F123, size: 0x8, addend: 0x0, symName: '__ZNSt3__112__tuple_leafILm0EONS_9allocatorIZ17brouwer_zimmerman7BMatrixS2_E3$_4EELb0EE3getB8ue170006Ev', symObjAddr: 0x1F598, symBinAddr: 0x1000235E4, symSize: 0x18 }
  - { offsetInCU: 0x3F149, offset: 0x3F149, size: 0x8, addend: 0x0, symName: '__ZNSt3__110__function6__funcIZ17brouwer_zimmerman7BMatrixS2_E3$_4NS_9allocatorIS3_EEFvNS_6vectorIbNS4_IbEEEEEED2Ev', symObjAddr: 0x1F5B0, symBinAddr: 0x1000235FC, symSize: 0x2C }
  - { offsetInCU: 0x3F176, offset: 0x3F176, size: 0x8, addend: 0x0, symName: '__ZNKSt3__110__function12__alloc_funcIZ17brouwer_zimmerman7BMatrixS2_E3$_4NS_9allocatorIS3_EEFvNS_6vectorIbNS4_IbEEEEEE15__get_allocatorB8ue170006Ev', symObjAddr: 0x1F5DC, symBinAddr: 0x100023628, symSize: 0x24 }
  - { offsetInCU: 0x3F1CA, offset: 0x3F1CA, size: 0x8, addend: 0x0, symName: '__ZNSt3__110unique_ptrINS_10__function6__funcIZ17brouwer_zimmerman7BMatrixS3_E3$_4NS_9allocatorIS4_EEFvNS_6vectorIbNS5_IbEEEEEEENS_22__allocator_destructorINS5_ISB_EEEEEC1B8ue170006ILb1EvEEPSB_NS_16__dependent_typeINS_27__unique_ptr_deleter_sfinaeISE_EEXT_EE20__good_rval_ref_typeE', symObjAddr: 0x1F600, symBinAddr: 0x10002364C, symSize: 0x3C }
  - { offsetInCU: 0x3F21B, offset: 0x3F21B, size: 0x8, addend: 0x0, symName: '__ZNKSt3__110unique_ptrINS_10__function6__funcIZ17brouwer_zimmerman7BMatrixS3_E3$_4NS_9allocatorIS4_EEFvNS_6vectorIbNS5_IbEEEEEEENS_22__allocator_destructorINS5_ISB_EEEEE3getB8ue170006Ev', symObjAddr: 0x1F63C, symBinAddr: 0x100023688, symSize: 0x28 }
  - { offsetInCU: 0x3F241, offset: 0x3F241, size: 0x8, addend: 0x0, symName: '__ZNKSt3__110__function12__alloc_funcIZ17brouwer_zimmerman7BMatrixS2_E3$_4NS_9allocatorIS3_EEFvNS_6vectorIbNS4_IbEEEEEE8__targetB8ue170006Ev', symObjAddr: 0x1F664, symBinAddr: 0x1000236B0, symSize: 0x24 }
  - { offsetInCU: 0x3F26D, offset: 0x3F26D, size: 0x8, addend: 0x0, symName: '__ZNSt3__19allocatorIZ17brouwer_zimmerman7BMatrixS1_E3$_4EC1B8ue170006INS_10__function6__funcIS2_S3_FvNS_6vectorIbNS0_IbEEEEEEEEERKNS0_IT_EE', symObjAddr: 0x1F688, symBinAddr: 0x1000236D4, symSize: 0x34 }
  - { offsetInCU: 0x3F2AA, offset: 0x3F2AA, size: 0x8, addend: 0x0, symName: '__ZNSt3__110__function6__funcIZ17brouwer_zimmerman7BMatrixS2_E3$_4NS_9allocatorIS3_EEFvNS_6vectorIbNS4_IbEEEEEEC1B8ue170006ERKS3_OS5_', symObjAddr: 0x1F6BC, symBinAddr: 0x100023708, symSize: 0x3C }
  - { offsetInCU: 0x3F2F2, offset: 0x3F2F2, size: 0x8, addend: 0x0, symName: '__ZNSt3__110unique_ptrINS_10__function6__funcIZ17brouwer_zimmerman7BMatrixS3_E3$_4NS_9allocatorIS4_EEFvNS_6vectorIbNS5_IbEEEEEEENS_22__allocator_destructorINS5_ISB_EEEEE7releaseB8ue170006Ev', symObjAddr: 0x1F6F8, symBinAddr: 0x100023744, symSize: 0x44 }
  - { offsetInCU: 0x3F327, offset: 0x3F327, size: 0x8, addend: 0x0, symName: '__ZNSt3__110unique_ptrINS_10__function6__funcIZ17brouwer_zimmerman7BMatrixS3_E3$_4NS_9allocatorIS4_EEFvNS_6vectorIbNS5_IbEEEEEEENS_22__allocator_destructorINS5_ISB_EEEEED1B8ue170006Ev', symObjAddr: 0x1F73C, symBinAddr: 0x100023788, symSize: 0x2C }
  - { offsetInCU: 0x3F351, offset: 0x3F351, size: 0x8, addend: 0x0, symName: '__ZNKSt3__117__compressed_pairIZ17brouwer_zimmerman7BMatrixS1_E3$_4NS_9allocatorIS2_EEE6secondB8ue170006Ev', symObjAddr: 0x1F768, symBinAddr: 0x1000237B4, symSize: 0x24 }
  - { offsetInCU: 0x3F377, offset: 0x3F377, size: 0x8, addend: 0x0, symName: '__ZNKSt3__122__compressed_pair_elemINS_9allocatorIZ17brouwer_zimmerman7BMatrixS2_E3$_4EELi1ELb1EE5__getB8ue170006Ev', symObjAddr: 0x1F78C, symBinAddr: 0x1000237D8, symSize: 0x14 }
  - { offsetInCU: 0x3F39D, offset: 0x3F39D, size: 0x8, addend: 0x0, symName: '__ZNSt3__110unique_ptrINS_10__function6__funcIZ17brouwer_zimmerman7BMatrixS3_E3$_4NS_9allocatorIS4_EEFvNS_6vectorIbNS5_IbEEEEEEENS_22__allocator_destructorINS5_ISB_EEEEEC2B8ue170006ILb1EvEEPSB_NS_16__dependent_typeINS_27__unique_ptr_deleter_sfinaeISE_EEXT_EE20__good_rval_ref_typeE', symObjAddr: 0x1F7A0, symBinAddr: 0x1000237EC, symSize: 0x48 }
  - { offsetInCU: 0x3F3EE, offset: 0x3F3EE, size: 0x8, addend: 0x0, symName: '__ZNKSt3__117__compressed_pairIZ17brouwer_zimmerman7BMatrixS1_E3$_4NS_9allocatorIS2_EEE5firstB8ue170006Ev', symObjAddr: 0x1F7E8, symBinAddr: 0x100023834, symSize: 0x24 }
  - { offsetInCU: 0x3F414, offset: 0x3F414, size: 0x8, addend: 0x0, symName: '__ZNKSt3__122__compressed_pair_elemIZ17brouwer_zimmerman7BMatrixS1_E3$_4Li0ELb0EE5__getB8ue170006Ev', symObjAddr: 0x1F80C, symBinAddr: 0x100023858, symSize: 0x14 }
  - { offsetInCU: 0x3F43A, offset: 0x3F43A, size: 0x8, addend: 0x0, symName: '__ZNSt3__19allocatorIZ17brouwer_zimmerman7BMatrixS1_E3$_4EC2B8ue170006INS_10__function6__funcIS2_S3_FvNS_6vectorIbNS0_IbEEEEEEEEERKNS0_IT_EE', symObjAddr: 0x1F820, symBinAddr: 0x10002386C, symSize: 0x30 }
  - { offsetInCU: 0x3F477, offset: 0x3F477, size: 0x8, addend: 0x0, symName: '__ZNSt3__110__function6__funcIZ17brouwer_zimmerman7BMatrixS2_E3$_4NS_9allocatorIS3_EEFvNS_6vectorIbNS4_IbEEEEEEC2B8ue170006ERKS3_OS5_', symObjAddr: 0x1F850, symBinAddr: 0x10002389C, symSize: 0x88 }
  - { offsetInCU: 0x3F4BF, offset: 0x3F4BF, size: 0x8, addend: 0x0, symName: '__ZNSt3__110__function12__alloc_funcIZ17brouwer_zimmerman7BMatrixS2_E3$_4NS_9allocatorIS3_EEFvNS_6vectorIbNS4_IbEEEEEEC1B8ue170006ERKS3_OS5_', symObjAddr: 0x1F8D8, symBinAddr: 0x100023924, symSize: 0x3C }
  - { offsetInCU: 0x3F505, offset: 0x3F505, size: 0x8, addend: 0x0, symName: '__ZNSt3__110__function12__alloc_funcIZ17brouwer_zimmerman7BMatrixS2_E3$_4NS_9allocatorIS3_EEFvNS_6vectorIbNS4_IbEEEEEEC2B8ue170006ERKS3_OS5_', symObjAddr: 0x1F914, symBinAddr: 0x100023960, symSize: 0x5C }
  - { offsetInCU: 0x3F54B, offset: 0x3F54B, size: 0x8, addend: 0x0, symName: '__ZNSt3__117__compressed_pairIZ17brouwer_zimmerman7BMatrixS1_E3$_4NS_9allocatorIS2_EEEC1B8ue170006IJRKS2_EJOS4_EEENS_21piecewise_construct_tENS_5tupleIJDpT_EEENSB_IJDpT0_EEE', symObjAddr: 0x1F99C, symBinAddr: 0x1000239E8, symSize: 0x3C }
  - { offsetInCU: 0x3F5B5, offset: 0x3F5B5, size: 0x8, addend: 0x0, symName: '__ZNSt3__15tupleIJRKZ17brouwer_zimmerman7BMatrixS1_E3$_4EEC1B8ue170006INS_4_AndELi0EEES4_', symObjAddr: 0x1F9D8, symBinAddr: 0x100023A24, symSize: 0x34 }
  - { offsetInCU: 0x3F5FD, offset: 0x3F5FD, size: 0x8, addend: 0x0, symName: '__ZNSt3__15tupleIJRKZ17brouwer_zimmerman7BMatrixS1_E3$_4EEC2B8ue170006INS_4_AndELi0EEES4_', symObjAddr: 0x1FA0C, symBinAddr: 0x100023A58, symSize: 0x34 }
  - { offsetInCU: 0x3F645, offset: 0x3F645, size: 0x8, addend: 0x0, symName: '__ZNSt3__112__tuple_implINS_15__tuple_indicesIJLm0EEEEJRKZ17brouwer_zimmerman7BMatrixS3_E3$_4EEC1B8ue170006IJLm0EEJS6_EJEJEJS6_EEENS1_IJXspT_EEEENS_13__tuple_typesIJDpT0_EEENS1_IJXspT1_EEEENSA_IJDpT2_EEEDpOT3_', symObjAddr: 0x1FA40, symBinAddr: 0x100023A8C, symSize: 0x34 }
  - { offsetInCU: 0x3F6DA, offset: 0x3F6DA, size: 0x8, addend: 0x0, symName: '__ZNSt3__112__tuple_implINS_15__tuple_indicesIJLm0EEEEJRKZ17brouwer_zimmerman7BMatrixS3_E3$_4EEC2B8ue170006IJLm0EEJS6_EJEJEJS6_EEENS1_IJXspT_EEEENS_13__tuple_typesIJDpT0_EEENS1_IJXspT1_EEEENSA_IJDpT2_EEEDpOT3_', symObjAddr: 0x1FA74, symBinAddr: 0x100023AC0, symSize: 0x34 }
  - { offsetInCU: 0x3F76F, offset: 0x3F76F, size: 0x8, addend: 0x0, symName: '__ZNSt3__112__tuple_leafILm0ERKZ17brouwer_zimmerman7BMatrixS1_E3$_4Lb0EEC2B8ue170006IS4_vEEOT_', symObjAddr: 0x1FAA8, symBinAddr: 0x100023AF4, symSize: 0x20 }
  - { offsetInCU: 0x3F7B2, offset: 0x3F7B2, size: 0x8, addend: 0x0, symName: '__ZNSt3__117__compressed_pairIZ17brouwer_zimmerman7BMatrixS1_E3$_4NS_9allocatorIS2_EEEC2B8ue170006IJRKS2_EJOS4_EEENS_21piecewise_construct_tENS_5tupleIJDpT_EEENSB_IJDpT0_EEE', symObjAddr: 0x1FAC8, symBinAddr: 0x100023B14, symSize: 0x54 }
  - { offsetInCU: 0x3F81C, offset: 0x3F81C, size: 0x8, addend: 0x0, symName: '__ZNSt3__122__compressed_pair_elemIZ17brouwer_zimmerman7BMatrixS1_E3$_4Li0ELb0EEC2B8ue170006IJRKS2_EJLm0EEEENS_21piecewise_construct_tENS_5tupleIJDpT_EEENS_15__tuple_indicesIJXspT0_EEEE', symObjAddr: 0x1FB1C, symBinAddr: 0x100023B68, symSize: 0x4C }
  - { offsetInCU: 0x3F87F, offset: 0x3F87F, size: 0x8, addend: 0x0, symName: '__ZNSt3__112__tuple_leafILm0ERKZ17brouwer_zimmerman7BMatrixS1_E3$_4Lb0EE3getB8ue170006Ev', symObjAddr: 0x1FB8C, symBinAddr: 0x100023BD8, symSize: 0x18 }
  - { offsetInCU: 0x3F8A5, offset: 0x3F8A5, size: 0x8, addend: 0x0, symName: '__ZNSt3__117__compressed_pairIPNS_10__function6__funcIZ17brouwer_zimmerman7BMatrixS3_E3$_4NS_9allocatorIS4_EEFvNS_6vectorIbNS5_IbEEEEEEENS_22__allocator_destructorINS5_ISB_EEEEE5firstB8ue170006Ev', symObjAddr: 0x1FBA4, symBinAddr: 0x100023BF0, symSize: 0x24 }
  - { offsetInCU: 0x3F8CB, offset: 0x3F8CB, size: 0x8, addend: 0x0, symName: '__ZNSt3__122__compressed_pair_elemIPNS_10__function6__funcIZ17brouwer_zimmerman7BMatrixS3_E3$_4NS_9allocatorIS4_EEFvNS_6vectorIbNS5_IbEEEEEEELi0ELb0EE5__getB8ue170006Ev', symObjAddr: 0x1FBC8, symBinAddr: 0x100023C14, symSize: 0x14 }
  - { offsetInCU: 0x3F8F1, offset: 0x3F8F1, size: 0x8, addend: 0x0, symName: '__ZNSt3__110unique_ptrINS_10__function6__funcIZ17brouwer_zimmerman7BMatrixS3_E3$_4NS_9allocatorIS4_EEFvNS_6vectorIbNS5_IbEEEEEEENS_22__allocator_destructorINS5_ISB_EEEEED2B8ue170006Ev', symObjAddr: 0x1FBDC, symBinAddr: 0x100023C28, symSize: 0x30 }
  - { offsetInCU: 0x3F91B, offset: 0x3F91B, size: 0x8, addend: 0x0, symName: '__ZNSt3__110unique_ptrINS_10__function6__funcIZ17brouwer_zimmerman7BMatrixS3_E3$_4NS_9allocatorIS4_EEFvNS_6vectorIbNS5_IbEEEEEEENS_22__allocator_destructorINS5_ISB_EEEEE5resetB8ue170006EPSB_', symObjAddr: 0x1FC0C, symBinAddr: 0x100023C58, symSize: 0x78 }
  - { offsetInCU: 0x3F95F, offset: 0x3F95F, size: 0x8, addend: 0x0, symName: '__ZNSt3__117__compressed_pairIPNS_10__function6__funcIZ17brouwer_zimmerman7BMatrixS3_E3$_4NS_9allocatorIS4_EEFvNS_6vectorIbNS5_IbEEEEEEENS_22__allocator_destructorINS5_ISB_EEEEE6secondB8ue170006Ev', symObjAddr: 0x1FC84, symBinAddr: 0x100023CD0, symSize: 0x28 }
  - { offsetInCU: 0x3F985, offset: 0x3F985, size: 0x8, addend: 0x0, symName: '__ZNSt3__122__allocator_destructorINS_9allocatorINS_10__function6__funcIZ17brouwer_zimmerman7BMatrixS4_E3$_4NS1_IS5_EEFvNS_6vectorIbNS1_IbEEEEEEEEEEclB8ue170006EPSB_', symObjAddr: 0x1FCAC, symBinAddr: 0x100023CF8, symSize: 0x34 }
  - { offsetInCU: 0x3F9B9, offset: 0x3F9B9, size: 0x8, addend: 0x0, symName: '__ZNSt3__122__compressed_pair_elemINS_22__allocator_destructorINS_9allocatorINS_10__function6__funcIZ17brouwer_zimmerman7BMatrixS5_E3$_4NS2_IS6_EEFvNS_6vectorIbNS2_IbEEEEEEEEEEELi1ELb0EE5__getB8ue170006Ev', symObjAddr: 0x1FCE0, symBinAddr: 0x100023D2C, symSize: 0x14 }
  - { offsetInCU: 0x3F9DF, offset: 0x3F9DF, size: 0x8, addend: 0x0, symName: '__ZNSt3__116allocator_traitsINS_9allocatorINS_10__function6__funcIZ17brouwer_zimmerman7BMatrixS4_E3$_4NS1_IS5_EEFvNS_6vectorIbNS1_IbEEEEEEEEEE10deallocateB8ue170006ERSC_PSB_m', symObjAddr: 0x1FCF4, symBinAddr: 0x100023D40, symSize: 0x34 }
  - { offsetInCU: 0x3FA21, offset: 0x3FA21, size: 0x8, addend: 0x0, symName: '__ZNSt3__19allocatorINS_10__function6__funcIZ17brouwer_zimmerman7BMatrixS3_E3$_4NS0_IS4_EEFvNS_6vectorIbNS0_IbEEEEEEEE10deallocateB8ue170006EPSA_m', symObjAddr: 0x1FD28, symBinAddr: 0x100023D74, symSize: 0x40 }
  - { offsetInCU: 0x3FA63, offset: 0x3FA63, size: 0x8, addend: 0x0, symName: '__ZNSt3__110__function6__funcIZ17brouwer_zimmerman7BMatrixS2_E3$_4NS_9allocatorIS3_EEFvNS_6vectorIbNS4_IbEEEEEEC1B8ue170006ERKS3_RKS5_', symObjAddr: 0x1FD68, symBinAddr: 0x100023DB4, symSize: 0x3C }
  - { offsetInCU: 0x3FAAB, offset: 0x3FAAB, size: 0x8, addend: 0x0, symName: '__ZNSt3__110__function6__funcIZ17brouwer_zimmerman7BMatrixS2_E3$_4NS_9allocatorIS3_EEFvNS_6vectorIbNS4_IbEEEEEEC2B8ue170006ERKS3_RKS5_', symObjAddr: 0x1FDA4, symBinAddr: 0x100023DF0, symSize: 0x88 }
  - { offsetInCU: 0x3FAF3, offset: 0x3FAF3, size: 0x8, addend: 0x0, symName: '__ZNSt3__110__function12__alloc_funcIZ17brouwer_zimmerman7BMatrixS2_E3$_4NS_9allocatorIS3_EEFvNS_6vectorIbNS4_IbEEEEEEC1B8ue170006ERKS3_RKS5_', symObjAddr: 0x1FE2C, symBinAddr: 0x100023E78, symSize: 0x3C }
  - { offsetInCU: 0x3FB39, offset: 0x3FB39, size: 0x8, addend: 0x0, symName: '__ZNSt3__110__function12__alloc_funcIZ17brouwer_zimmerman7BMatrixS2_E3$_4NS_9allocatorIS3_EEFvNS_6vectorIbNS4_IbEEEEEEC2B8ue170006ERKS3_RKS5_', symObjAddr: 0x1FE68, symBinAddr: 0x100023EB4, symSize: 0x5C }
  - { offsetInCU: 0x3FB7F, offset: 0x3FB7F, size: 0x8, addend: 0x0, symName: '__ZNSt3__117__compressed_pairIZ17brouwer_zimmerman7BMatrixS1_E3$_4NS_9allocatorIS2_EEEC1B8ue170006IJRKS2_EJRKS4_EEENS_21piecewise_construct_tENS_5tupleIJDpT_EEENSC_IJDpT0_EEE', symObjAddr: 0x1FEF0, symBinAddr: 0x100023F3C, symSize: 0x3C }
  - { offsetInCU: 0x3FBE9, offset: 0x3FBE9, size: 0x8, addend: 0x0, symName: '__ZNSt3__15tupleIJRKNS_9allocatorIZ17brouwer_zimmerman7BMatrixS2_E3$_4EEEEC1B8ue170006INS_4_AndELi0EEES6_', symObjAddr: 0x1FF2C, symBinAddr: 0x100023F78, symSize: 0x34 }
  - { offsetInCU: 0x3FC31, offset: 0x3FC31, size: 0x8, addend: 0x0, symName: '__ZNSt3__15tupleIJRKNS_9allocatorIZ17brouwer_zimmerman7BMatrixS2_E3$_4EEEEC2B8ue170006INS_4_AndELi0EEES6_', symObjAddr: 0x1FF60, symBinAddr: 0x100023FAC, symSize: 0x34 }
  - { offsetInCU: 0x3FC79, offset: 0x3FC79, size: 0x8, addend: 0x0, symName: '__ZNSt3__112__tuple_implINS_15__tuple_indicesIJLm0EEEEJRKNS_9allocatorIZ17brouwer_zimmerman7BMatrixS4_E3$_4EEEEC1B8ue170006IJLm0EEJS8_EJEJEJS8_EEENS1_IJXspT_EEEENS_13__tuple_typesIJDpT0_EEENS1_IJXspT1_EEEENSC_IJDpT2_EEEDpOT3_', symObjAddr: 0x1FF94, symBinAddr: 0x100023FE0, symSize: 0x34 }
  - { offsetInCU: 0x3FD0E, offset: 0x3FD0E, size: 0x8, addend: 0x0, symName: '__ZNSt3__112__tuple_implINS_15__tuple_indicesIJLm0EEEEJRKNS_9allocatorIZ17brouwer_zimmerman7BMatrixS4_E3$_4EEEEC2B8ue170006IJLm0EEJS8_EJEJEJS8_EEENS1_IJXspT_EEEENS_13__tuple_typesIJDpT0_EEENS1_IJXspT1_EEEENSC_IJDpT2_EEEDpOT3_', symObjAddr: 0x1FFC8, symBinAddr: 0x100024014, symSize: 0x34 }
  - { offsetInCU: 0x3FDA3, offset: 0x3FDA3, size: 0x8, addend: 0x0, symName: '__ZNSt3__112__tuple_leafILm0ERKNS_9allocatorIZ17brouwer_zimmerman7BMatrixS2_E3$_4EELb0EEC2B8ue170006IS6_vEEOT_', symObjAddr: 0x1FFFC, symBinAddr: 0x100024048, symSize: 0x20 }
  - { offsetInCU: 0x3FDE6, offset: 0x3FDE6, size: 0x8, addend: 0x0, symName: '__ZNSt3__117__compressed_pairIZ17brouwer_zimmerman7BMatrixS1_E3$_4NS_9allocatorIS2_EEEC2B8ue170006IJRKS2_EJRKS4_EEENS_21piecewise_construct_tENS_5tupleIJDpT_EEENSC_IJDpT0_EEE', symObjAddr: 0x2001C, symBinAddr: 0x100024068, symSize: 0x54 }
  - { offsetInCU: 0x3FE50, offset: 0x3FE50, size: 0x8, addend: 0x0, symName: '__ZNSt3__122__compressed_pair_elemINS_9allocatorIZ17brouwer_zimmerman7BMatrixS2_E3$_4EELi1ELb1EEC2B8ue170006IJRKS4_EJLm0EEEENS_21piecewise_construct_tENS_5tupleIJDpT_EEENS_15__tuple_indicesIJXspT0_EEEE', symObjAddr: 0x20070, symBinAddr: 0x1000240BC, symSize: 0x38 }
  - { offsetInCU: 0x3FEB3, offset: 0x3FEB3, size: 0x8, addend: 0x0, symName: '__ZNSt3__112__tuple_leafILm0ERKNS_9allocatorIZ17brouwer_zimmerman7BMatrixS2_E3$_4EELb0EE3getB8ue170006Ev', symObjAddr: 0x200CC, symBinAddr: 0x100024118, symSize: 0x18 }
  - { offsetInCU: 0x3FED9, offset: 0x3FED9, size: 0x8, addend: 0x0, symName: '__ZNSt3__110__function12__alloc_funcIZ17brouwer_zimmerman7BMatrixS2_E3$_4NS_9allocatorIS3_EEFvNS_6vectorIbNS4_IbEEEEEE7destroyB8ue170006Ev', symObjAddr: 0x200E4, symBinAddr: 0x100024130, symSize: 0x10 }
  - { offsetInCU: 0x3FEFF, offset: 0x3FEFF, size: 0x8, addend: 0x0, symName: '__ZNSt3__110__function12__alloc_funcIZ17brouwer_zimmerman7BMatrixS2_E3$_4NS_9allocatorIS3_EEFvNS_6vectorIbNS4_IbEEEEEEclB8ue170006EOS8_', symObjAddr: 0x200F4, symBinAddr: 0x100024140, symSize: 0x30 }
  - { offsetInCU: 0x3FF33, offset: 0x3FF33, size: 0x8, addend: 0x0, symName: '__ZNSt3__128__invoke_void_return_wrapperIvLb1EE6__callB8ue170006IJRZ17brouwer_zimmerman7BMatrixS3_E3$_4NS_6vectorIbNS_9allocatorIbEEEEEEEvDpOT_', symObjAddr: 0x20124, symBinAddr: 0x100024170, symSize: 0x2C }
  - { offsetInCU: 0x3FF76, offset: 0x3FF76, size: 0x8, addend: 0x0, symName: '__ZNSt3__117__compressed_pairIZ17brouwer_zimmerman7BMatrixS1_E3$_4NS_9allocatorIS2_EEE5firstB8ue170006Ev', symObjAddr: 0x20150, symBinAddr: 0x10002419C, symSize: 0x24 }
  - { offsetInCU: 0x3FFA2, offset: 0x3FFA2, size: 0x8, addend: 0x0, symName: '__ZZ17brouwer_zimmerman7BMatrixS_ENK3$_4clENSt3__16vectorIbNS1_9allocatorIbEEEE', symObjAddr: 0x201E4, symBinAddr: 0x100024230, symSize: 0x1A8 }
  - { offsetInCU: 0x3FFFB, offset: 0x3FFFB, size: 0x8, addend: 0x0, symName: '__ZNSt3__122__compressed_pair_elemIZ17brouwer_zimmerman7BMatrixS1_E3$_4Li0ELb0EE5__getB8ue170006Ev', symObjAddr: 0x2038C, symBinAddr: 0x1000243D8, symSize: 0x14 }
  - { offsetInCU: 0x40021, offset: 0x40021, size: 0x8, addend: 0x0, symName: '__ZNSt3__110unique_ptrINS_10__function6__baseIFvNS_6vectorIbNS_9allocatorIbEEEEEEENS_22__allocator_destructorINS4_INS1_6__funcIZ17brouwer_zimmerman7BMatrixSB_E3$_4NS4_ISC_EES7_EEEEEEED2B8ue170006Ev', symObjAddr: 0x203A0, symBinAddr: 0x1000243EC, symSize: 0x30 }
  - { offsetInCU: 0x4004B, offset: 0x4004B, size: 0x8, addend: 0x0, symName: '__ZNSt3__110unique_ptrINS_10__function6__baseIFvNS_6vectorIbNS_9allocatorIbEEEEEEENS_22__allocator_destructorINS4_INS1_6__funcIZ17brouwer_zimmerman7BMatrixSB_E3$_4NS4_ISC_EES7_EEEEEEE5resetB8ue170006EPSE_', symObjAddr: 0x203D0, symBinAddr: 0x10002441C, symSize: 0x78 }
  - { offsetInCU: 0x4008F, offset: 0x4008F, size: 0x8, addend: 0x0, symName: __ZNSt3__112__tuple_leafILm0ER7BMatrixLb0EE3getB8ue170006Ev, symObjAddr: 0x20494, symBinAddr: 0x1000244E0, symSize: 0x18 }
  - { offsetInCU: 0x400B5, offset: 0x400B5, size: 0x8, addend: 0x0, symName: __ZNSt3__112__tuple_leafILm1ER7BMatrixLb0EE3getB8ue170006Ev, symObjAddr: 0x204AC, symBinAddr: 0x1000244F8, symSize: 0x18 }
  - { offsetInCU: 0x400DB, offset: 0x400DB, size: 0x8, addend: 0x0, symName: __ZNKSt3__112basic_stringIcNS_11char_traitsIcEENS_9allocatorIcEEE15__get_long_sizeB8ue170006Ev, symObjAddr: 0x204C4, symBinAddr: 0x100024510, symSize: 0x28 }
  - { offsetInCU: 0x40101, offset: 0x40101, size: 0x8, addend: 0x0, symName: __ZNKSt3__112basic_stringIcNS_11char_traitsIcEENS_9allocatorIcEEE16__get_short_sizeB8ue170006Ev, symObjAddr: 0x204EC, symBinAddr: 0x100024538, symSize: 0x34 }
  - { offsetInCU: 0x40127, offset: 0x40127, size: 0x8, addend: 0x0, symName: __ZNSt3__112basic_stringIcNS_11char_traitsIcEENS_9allocatorIcEEE13__get_pointerB8ue170006Ev, symObjAddr: 0x20520, symBinAddr: 0x10002456C, symSize: 0x54 }
  - { offsetInCU: 0x4014D, offset: 0x4014D, size: 0x8, addend: 0x0, symName: __ZNSt3__112basic_stringIcNS_11char_traitsIcEENS_9allocatorIcEEE18__get_long_pointerB8ue170006Ev, symObjAddr: 0x20574, symBinAddr: 0x1000245C0, symSize: 0x28 }
  - { offsetInCU: 0x40173, offset: 0x40173, size: 0x8, addend: 0x0, symName: __ZNSt3__112basic_stringIcNS_11char_traitsIcEENS_9allocatorIcEEE19__get_short_pointerB8ue170006Ev, symObjAddr: 0x2059C, symBinAddr: 0x1000245E8, symSize: 0x28 }
  - { offsetInCU: 0x40199, offset: 0x40199, size: 0x8, addend: 0x0, symName: __ZNSt3__114pointer_traitsIPcE10pointer_toB8ue170006ERc, symObjAddr: 0x205C4, symBinAddr: 0x100024610, symSize: 0x14 }
  - { offsetInCU: 0x401BC, offset: 0x401BC, size: 0x8, addend: 0x0, symName: __ZNSt3__19basic_iosIcNS_11char_traitsIcEEEC2B8ue170006Ev, symObjAddr: 0x205D8, symBinAddr: 0x100024624, symSize: 0x44 }
  - { offsetInCU: 0x401E6, offset: 0x401E6, size: 0x8, addend: 0x0, symName: __ZNSt3__113basic_istreamIcNS_11char_traitsIcEEEC2B8ue170006EPNS_15basic_streambufIcS2_EE, symObjAddr: 0x2061C, symBinAddr: 0x100024668, symSize: 0x64 }
  - { offsetInCU: 0x4022B, offset: 0x4022B, size: 0x8, addend: 0x0, symName: __ZNSt3__18ios_baseC2B8ue170006Ev, symObjAddr: 0x20680, symBinAddr: 0x1000246CC, symSize: 0x24 }
  - { offsetInCU: 0x40255, offset: 0x40255, size: 0x8, addend: 0x0, symName: __ZNSt3__19basic_iosIcNS_11char_traitsIcEEE4initB8ue170006EPNS_15basic_streambufIcS2_EE, symObjAddr: 0x206A4, symBinAddr: 0x1000246F0, symSize: 0x44 }
  - { offsetInCU: 0x4028C, offset: 0x4028C, size: 0x8, addend: 0x0, symName: __ZNSt3__16vectorI7BMatrixNS_9allocatorIS1_EEEC2B8ue170006Ev, symObjAddr: 0x206E8, symBinAddr: 0x100024734, symSize: 0x4C }
  - { offsetInCU: 0x402B6, offset: 0x402B6, size: 0x8, addend: 0x0, symName: __ZNSt3__117__compressed_pairIP7BMatrixNS_9allocatorIS1_EEEC1B8ue170006IDnNS_18__default_init_tagEEEOT_OT0_, symObjAddr: 0x20734, symBinAddr: 0x100024780, symSize: 0x3C }
  - { offsetInCU: 0x4030E, offset: 0x4030E, size: 0x8, addend: 0x0, symName: __ZNSt3__117__compressed_pairIP7BMatrixNS_9allocatorIS1_EEEC2B8ue170006IDnNS_18__default_init_tagEEEOT_OT0_, symObjAddr: 0x20770, symBinAddr: 0x1000247BC, symSize: 0x40 }
  - { offsetInCU: 0x40366, offset: 0x40366, size: 0x8, addend: 0x0, symName: __ZNSt3__122__compressed_pair_elemIP7BMatrixLi0ELb0EEC2B8ue170006IDnvEEOT_, symObjAddr: 0x207B0, symBinAddr: 0x1000247FC, symSize: 0x1C }
  - { offsetInCU: 0x403A8, offset: 0x403A8, size: 0x8, addend: 0x0, symName: __ZNSt3__122__compressed_pair_elemINS_9allocatorI7BMatrixEELi1ELb1EEC2B8ue170006ENS_18__default_init_tagE, symObjAddr: 0x207CC, symBinAddr: 0x100024818, symSize: 0x2C }
  - { offsetInCU: 0x403DC, offset: 0x403DC, size: 0x8, addend: 0x0, symName: __ZNSt3__19allocatorI7BMatrixEC2B8ue170006Ev, symObjAddr: 0x207F8, symBinAddr: 0x100024844, symSize: 0x2C }
  - { offsetInCU: 0x40406, offset: 0x40406, size: 0x8, addend: 0x0, symName: __ZNSt3__116__non_trivial_ifILb1ENS_9allocatorI7BMatrixEEEC2B8ue170006Ev, symObjAddr: 0x20824, symBinAddr: 0x100024870, symSize: 0x14 }
  - { offsetInCU: 0x40430, offset: 0x40430, size: 0x8, addend: 0x0, symName: __ZNSt3__16vectorI7BMatrixNS_9allocatorIS1_EEED2B8ue170006Ev, symObjAddr: 0x20838, symBinAddr: 0x100024884, symSize: 0x44 }
  - { offsetInCU: 0x4045A, offset: 0x4045A, size: 0x8, addend: 0x0, symName: __ZNSt3__16vectorI7BMatrixNS_9allocatorIS1_EEE16__destroy_vectorC1B8ue170006ERS4_, symObjAddr: 0x2087C, symBinAddr: 0x1000248C8, symSize: 0x34 }
  - { offsetInCU: 0x40493, offset: 0x40493, size: 0x8, addend: 0x0, symName: __ZNSt3__16vectorI7BMatrixNS_9allocatorIS1_EEE16__destroy_vectorclB8ue170006Ev, symObjAddr: 0x208B0, symBinAddr: 0x1000248FC, symSize: 0x90 }
  - { offsetInCU: 0x404B9, offset: 0x404B9, size: 0x8, addend: 0x0, symName: __ZNSt3__16vectorI7BMatrixNS_9allocatorIS1_EEE16__destroy_vectorC2B8ue170006ERS4_, symObjAddr: 0x20940, symBinAddr: 0x10002498C, symSize: 0x20 }
  - { offsetInCU: 0x404F2, offset: 0x404F2, size: 0x8, addend: 0x0, symName: __ZNSt3__16vectorI7BMatrixNS_9allocatorIS1_EEE7__clearB8ue170006Ev, symObjAddr: 0x20960, symBinAddr: 0x1000249AC, symSize: 0x28 }
  - { offsetInCU: 0x40518, offset: 0x40518, size: 0x8, addend: 0x0, symName: __ZNKSt3__16vectorI7BMatrixNS_9allocatorIS1_EEE17__annotate_deleteB8ue170006Ev, symObjAddr: 0x20988, symBinAddr: 0x1000249D4, symSize: 0xB8 }
  - { offsetInCU: 0x4053E, offset: 0x4053E, size: 0x8, addend: 0x0, symName: __ZNSt3__116allocator_traitsINS_9allocatorI7BMatrixEEE10deallocateB8ue170006ERS3_PS2_m, symObjAddr: 0x20A40, symBinAddr: 0x100024A8C, symSize: 0x34 }
  - { offsetInCU: 0x40580, offset: 0x40580, size: 0x8, addend: 0x0, symName: __ZNSt3__16vectorI7BMatrixNS_9allocatorIS1_EEE7__allocB8ue170006Ev, symObjAddr: 0x20A74, symBinAddr: 0x100024AC0, symSize: 0x28 }
  - { offsetInCU: 0x405A6, offset: 0x405A6, size: 0x8, addend: 0x0, symName: __ZNKSt3__16vectorI7BMatrixNS_9allocatorIS1_EEE8capacityB8ue170006Ev, symObjAddr: 0x20A9C, symBinAddr: 0x100024AE8, symSize: 0x40 }
  - { offsetInCU: 0x405CC, offset: 0x405CC, size: 0x8, addend: 0x0, symName: __ZNSt3__16vectorI7BMatrixNS_9allocatorIS1_EEE22__base_destruct_at_endB8ue170006EPS1_, symObjAddr: 0x20ADC, symBinAddr: 0x100024B28, symSize: 0x8C }
  - { offsetInCU: 0x40610, offset: 0x40610, size: 0x8, addend: 0x0, symName: __ZNSt3__116allocator_traitsINS_9allocatorI7BMatrixEEE7destroyB8ue170006IS2_vEEvRS3_PT_, symObjAddr: 0x20B68, symBinAddr: 0x100024BB4, symSize: 0x2C }
  - { offsetInCU: 0x4064D, offset: 0x4064D, size: 0x8, addend: 0x0, symName: __ZNSt3__19allocatorI7BMatrixE7destroyB8ue170006EPS1_, symObjAddr: 0x20BA8, symBinAddr: 0x100024BF4, symSize: 0x28 }
  - { offsetInCU: 0x40681, offset: 0x40681, size: 0x8, addend: 0x0, symName: __ZNKSt3__16vectorI7BMatrixNS_9allocatorIS1_EEE31__annotate_contiguous_containerB8ue170006EPKvS6_S6_S6_, symObjAddr: 0x20BD0, symBinAddr: 0x100024C1C, symSize: 0x20 }
  - { offsetInCU: 0x406D7, offset: 0x406D7, size: 0x8, addend: 0x0, symName: __ZNKSt3__16vectorI7BMatrixNS_9allocatorIS1_EEE4dataB8ue170006Ev, symObjAddr: 0x20BF0, symBinAddr: 0x100024C3C, symSize: 0x28 }
  - { offsetInCU: 0x406FD, offset: 0x406FD, size: 0x8, addend: 0x0, symName: __ZNKSt3__16vectorI7BMatrixNS_9allocatorIS1_EEE4sizeB8ue170006Ev, symObjAddr: 0x20C18, symBinAddr: 0x100024C64, symSize: 0x28 }
  - { offsetInCU: 0x40723, offset: 0x40723, size: 0x8, addend: 0x0, symName: __ZNSt3__19allocatorI7BMatrixE10deallocateB8ue170006EPS1_m, symObjAddr: 0x20C40, symBinAddr: 0x100024C8C, symSize: 0x40 }
  - { offsetInCU: 0x40765, offset: 0x40765, size: 0x8, addend: 0x0, symName: __ZNSt3__117__compressed_pairIP7BMatrixNS_9allocatorIS1_EEE6secondB8ue170006Ev, symObjAddr: 0x20C80, symBinAddr: 0x100024CCC, symSize: 0x24 }
  - { offsetInCU: 0x4078B, offset: 0x4078B, size: 0x8, addend: 0x0, symName: __ZNSt3__122__compressed_pair_elemINS_9allocatorI7BMatrixEELi1ELb1EE5__getB8ue170006Ev, symObjAddr: 0x20CA4, symBinAddr: 0x100024CF0, symSize: 0x14 }
  - { offsetInCU: 0x407B1, offset: 0x407B1, size: 0x8, addend: 0x0, symName: __ZNKSt3__16vectorI7BMatrixNS_9allocatorIS1_EEE9__end_capB8ue170006Ev, symObjAddr: 0x20CB8, symBinAddr: 0x100024D04, symSize: 0x28 }
  - { offsetInCU: 0x407D7, offset: 0x407D7, size: 0x8, addend: 0x0, symName: __ZNKSt3__117__compressed_pairIP7BMatrixNS_9allocatorIS1_EEE5firstB8ue170006Ev, symObjAddr: 0x20CE0, symBinAddr: 0x100024D2C, symSize: 0x24 }
  - { offsetInCU: 0x407FD, offset: 0x407FD, size: 0x8, addend: 0x0, symName: __ZNKSt3__122__compressed_pair_elemIP7BMatrixLi0ELb0EE5__getB8ue170006Ev, symObjAddr: 0x20D04, symBinAddr: 0x100024D50, symSize: 0x14 }
  - { offsetInCU: 0x40823, offset: 0x40823, size: 0x8, addend: 0x0, symName: __ZNSt3__16vectorINS_12basic_stringIcNS_11char_traitsIcEENS_9allocatorIcEEEENS4_IS6_EEEC2B8ue170006Ev, symObjAddr: 0x20D18, symBinAddr: 0x100024D64, symSize: 0x4C }
  - { offsetInCU: 0x4084D, offset: 0x4084D, size: 0x8, addend: 0x0, symName: __ZNSt3__117__compressed_pairIPNS_12basic_stringIcNS_11char_traitsIcEENS_9allocatorIcEEEENS4_IS6_EEEC1B8ue170006IDnNS_18__default_init_tagEEEOT_OT0_, symObjAddr: 0x20D64, symBinAddr: 0x100024DB0, symSize: 0x3C }
  - { offsetInCU: 0x408A5, offset: 0x408A5, size: 0x8, addend: 0x0, symName: __ZNSt3__117__compressed_pairIPNS_12basic_stringIcNS_11char_traitsIcEENS_9allocatorIcEEEENS4_IS6_EEEC2B8ue170006IDnNS_18__default_init_tagEEEOT_OT0_, symObjAddr: 0x20DA0, symBinAddr: 0x100024DEC, symSize: 0x40 }
  - { offsetInCU: 0x408FD, offset: 0x408FD, size: 0x8, addend: 0x0, symName: __ZNSt3__122__compressed_pair_elemIPNS_12basic_stringIcNS_11char_traitsIcEENS_9allocatorIcEEEELi0ELb0EEC2B8ue170006IDnvEEOT_, symObjAddr: 0x20DE0, symBinAddr: 0x100024E2C, symSize: 0x1C }
  - { offsetInCU: 0x4093F, offset: 0x4093F, size: 0x8, addend: 0x0, symName: __ZNSt3__122__compressed_pair_elemINS_9allocatorINS_12basic_stringIcNS_11char_traitsIcEENS1_IcEEEEEELi1ELb1EEC2B8ue170006ENS_18__default_init_tagE, symObjAddr: 0x20DFC, symBinAddr: 0x100024E48, symSize: 0x2C }
  - { offsetInCU: 0x40973, offset: 0x40973, size: 0x8, addend: 0x0, symName: __ZNSt3__19allocatorINS_12basic_stringIcNS_11char_traitsIcEENS0_IcEEEEEC2B8ue170006Ev, symObjAddr: 0x20E28, symBinAddr: 0x100024E74, symSize: 0x2C }
  - { offsetInCU: 0x4099D, offset: 0x4099D, size: 0x8, addend: 0x0, symName: __ZNSt3__116__non_trivial_ifILb1ENS_9allocatorINS_12basic_stringIcNS_11char_traitsIcEENS1_IcEEEEEEEC2B8ue170006Ev, symObjAddr: 0x20E54, symBinAddr: 0x100024EA0, symSize: 0x14 }
  - { offsetInCU: 0x409C7, offset: 0x409C7, size: 0x8, addend: 0x0, symName: __ZNSt3__16vectorINS_12basic_stringIcNS_11char_traitsIcEENS_9allocatorIcEEEENS4_IS6_EEED2B8ue170006Ev, symObjAddr: 0x20E68, symBinAddr: 0x100024EB4, symSize: 0x44 }
  - { offsetInCU: 0x409F1, offset: 0x409F1, size: 0x8, addend: 0x0, symName: __ZNSt3__16vectorINS_12basic_stringIcNS_11char_traitsIcEENS_9allocatorIcEEEENS4_IS6_EEE16__destroy_vectorC1B8ue170006ERS8_, symObjAddr: 0x20EAC, symBinAddr: 0x100024EF8, symSize: 0x34 }
  - { offsetInCU: 0x40A2A, offset: 0x40A2A, size: 0x8, addend: 0x0, symName: __ZNSt3__16vectorINS_12basic_stringIcNS_11char_traitsIcEENS_9allocatorIcEEEENS4_IS6_EEE16__destroy_vectorclB8ue170006Ev, symObjAddr: 0x20EE0, symBinAddr: 0x100024F2C, symSize: 0x90 }
  - { offsetInCU: 0x40A50, offset: 0x40A50, size: 0x8, addend: 0x0, symName: __ZNSt3__16vectorINS_12basic_stringIcNS_11char_traitsIcEENS_9allocatorIcEEEENS4_IS6_EEE16__destroy_vectorC2B8ue170006ERS8_, symObjAddr: 0x20F70, symBinAddr: 0x100024FBC, symSize: 0x20 }
  - { offsetInCU: 0x40A89, offset: 0x40A89, size: 0x8, addend: 0x0, symName: __ZNSt3__16vectorINS_12basic_stringIcNS_11char_traitsIcEENS_9allocatorIcEEEENS4_IS6_EEE7__clearB8ue170006Ev, symObjAddr: 0x20F90, symBinAddr: 0x100024FDC, symSize: 0x28 }
  - { offsetInCU: 0x40AAF, offset: 0x40AAF, size: 0x8, addend: 0x0, symName: __ZNKSt3__16vectorINS_12basic_stringIcNS_11char_traitsIcEENS_9allocatorIcEEEENS4_IS6_EEE17__annotate_deleteB8ue170006Ev, symObjAddr: 0x20FB8, symBinAddr: 0x100025004, symSize: 0xD4 }
  - { offsetInCU: 0x40AD5, offset: 0x40AD5, size: 0x8, addend: 0x0, symName: __ZNSt3__116allocator_traitsINS_9allocatorINS_12basic_stringIcNS_11char_traitsIcEENS1_IcEEEEEEE10deallocateB8ue170006ERS7_PS6_m, symObjAddr: 0x2108C, symBinAddr: 0x1000250D8, symSize: 0x34 }
  - { offsetInCU: 0x40B17, offset: 0x40B17, size: 0x8, addend: 0x0, symName: __ZNSt3__16vectorINS_12basic_stringIcNS_11char_traitsIcEENS_9allocatorIcEEEENS4_IS6_EEE7__allocB8ue170006Ev, symObjAddr: 0x210C0, symBinAddr: 0x10002510C, symSize: 0x28 }
  - { offsetInCU: 0x40B3D, offset: 0x40B3D, size: 0x8, addend: 0x0, symName: __ZNKSt3__16vectorINS_12basic_stringIcNS_11char_traitsIcEENS_9allocatorIcEEEENS4_IS6_EEE8capacityB8ue170006Ev, symObjAddr: 0x210E8, symBinAddr: 0x100025134, symSize: 0x40 }
  - { offsetInCU: 0x40B63, offset: 0x40B63, size: 0x8, addend: 0x0, symName: __ZNSt3__16vectorINS_12basic_stringIcNS_11char_traitsIcEENS_9allocatorIcEEEENS4_IS6_EEE22__base_destruct_at_endB8ue170006EPS6_, symObjAddr: 0x21128, symBinAddr: 0x100025174, symSize: 0x8C }
  - { offsetInCU: 0x40BA7, offset: 0x40BA7, size: 0x8, addend: 0x0, symName: __ZNSt3__116allocator_traitsINS_9allocatorINS_12basic_stringIcNS_11char_traitsIcEENS1_IcEEEEEEE7destroyB8ue170006IS6_vEEvRS7_PT_, symObjAddr: 0x211B4, symBinAddr: 0x100025200, symSize: 0x2C }
  - { offsetInCU: 0x40BE4, offset: 0x40BE4, size: 0x8, addend: 0x0, symName: __ZNSt3__19allocatorINS_12basic_stringIcNS_11char_traitsIcEENS0_IcEEEEE7destroyB8ue170006EPS5_, symObjAddr: 0x211F4, symBinAddr: 0x100025240, symSize: 0x28 }
  - { offsetInCU: 0x40C18, offset: 0x40C18, size: 0x8, addend: 0x0, symName: __ZNKSt3__16vectorINS_12basic_stringIcNS_11char_traitsIcEENS_9allocatorIcEEEENS4_IS6_EEE31__annotate_contiguous_containerB8ue170006EPKvSA_SA_SA_, symObjAddr: 0x2121C, symBinAddr: 0x100025268, symSize: 0x20 }
  - { offsetInCU: 0x40C6E, offset: 0x40C6E, size: 0x8, addend: 0x0, symName: __ZNKSt3__16vectorINS_12basic_stringIcNS_11char_traitsIcEENS_9allocatorIcEEEENS4_IS6_EEE4dataB8ue170006Ev, symObjAddr: 0x2123C, symBinAddr: 0x100025288, symSize: 0x28 }
  - { offsetInCU: 0x40C94, offset: 0x40C94, size: 0x8, addend: 0x0, symName: __ZNSt3__19allocatorINS_12basic_stringIcNS_11char_traitsIcEENS0_IcEEEEE10deallocateB8ue170006EPS5_m, symObjAddr: 0x21264, symBinAddr: 0x1000252B0, symSize: 0x44 }
  - { offsetInCU: 0x40CD6, offset: 0x40CD6, size: 0x8, addend: 0x0, symName: __ZNSt3__117__compressed_pairIPNS_12basic_stringIcNS_11char_traitsIcEENS_9allocatorIcEEEENS4_IS6_EEE6secondB8ue170006Ev, symObjAddr: 0x212A8, symBinAddr: 0x1000252F4, symSize: 0x24 }
  - { offsetInCU: 0x40CFC, offset: 0x40CFC, size: 0x8, addend: 0x0, symName: __ZNSt3__122__compressed_pair_elemINS_9allocatorINS_12basic_stringIcNS_11char_traitsIcEENS1_IcEEEEEELi1ELb1EE5__getB8ue170006Ev, symObjAddr: 0x212CC, symBinAddr: 0x100025318, symSize: 0x14 }
  - { offsetInCU: 0x40D22, offset: 0x40D22, size: 0x8, addend: 0x0, symName: __ZNKSt3__16vectorINS_12basic_stringIcNS_11char_traitsIcEENS_9allocatorIcEEEENS4_IS6_EEE9__end_capB8ue170006Ev, symObjAddr: 0x212E0, symBinAddr: 0x10002532C, symSize: 0x28 }
  - { offsetInCU: 0x40D48, offset: 0x40D48, size: 0x8, addend: 0x0, symName: __ZNKSt3__117__compressed_pairIPNS_12basic_stringIcNS_11char_traitsIcEENS_9allocatorIcEEEENS4_IS6_EEE5firstB8ue170006Ev, symObjAddr: 0x21308, symBinAddr: 0x100025354, symSize: 0x24 }
  - { offsetInCU: 0x40D6E, offset: 0x40D6E, size: 0x8, addend: 0x0, symName: __ZNKSt3__122__compressed_pair_elemIPNS_12basic_stringIcNS_11char_traitsIcEENS_9allocatorIcEEEELi0ELb0EE5__getB8ue170006Ev, symObjAddr: 0x2132C, symBinAddr: 0x100025378, symSize: 0x14 }
  - { offsetInCU: 0x40DB7, offset: 0x40DB7, size: 0x8, addend: 0x0, symName: __ZNKSt3__113basic_istreamIcNS_11char_traitsIcEEE6sentrycvbB8ue170006Ev, symObjAddr: 0x21578, symBinAddr: 0x1000255C4, symSize: 0x1C }
  - { offsetInCU: 0x40DDD, offset: 0x40DDD, size: 0x8, addend: 0x0, symName: __ZNSt3__112basic_stringIcNS_11char_traitsIcEENS_9allocatorIcEEE5clearB8ue170006Ev, symObjAddr: 0x21594, symBinAddr: 0x1000255E0, symSize: 0x78 }
  - { offsetInCU: 0x40E05, offset: 0x40E05, size: 0x8, addend: 0x0, symName: __ZNSt3__115basic_streambufIcNS_11char_traitsIcEEE6sbumpcB8ue170006Ev, symObjAddr: 0x2160C, symBinAddr: 0x100025658, symSize: 0x78 }
  - { offsetInCU: 0x40E2B, offset: 0x40E2B, size: 0x8, addend: 0x0, symName: __ZNSt3__111char_traitsIcE12to_char_typeB8ue170006Ei, symObjAddr: 0x21684, symBinAddr: 0x1000256D0, symSize: 0x18 }
  - { offsetInCU: 0x40E4E, offset: 0x40E4E, size: 0x8, addend: 0x0, symName: __ZNSt3__111char_traitsIcE2eqEcc, symObjAddr: 0x2169C, symBinAddr: 0x1000256E8, symSize: 0x28 }
  - { offsetInCU: 0x40E7F, offset: 0x40E7F, size: 0x8, addend: 0x0, symName: __ZNKSt3__112basic_stringIcNS_11char_traitsIcEENS_9allocatorIcEEE8max_sizeB8ue170006Ev, symObjAddr: 0x216C4, symBinAddr: 0x100025710, symSize: 0xAC }
  - { offsetInCU: 0x40ED1, offset: 0x40ED1, size: 0x8, addend: 0x0, symName: __ZNSt3__18ios_base18__setstate_nothrowB8ue170006Ej, symObjAddr: 0x21770, symBinAddr: 0x1000257BC, symSize: 0x64 }
  - { offsetInCU: 0x40F06, offset: 0x40F06, size: 0x8, addend: 0x0, symName: __ZNKSt3__19basic_iosIcNS_11char_traitsIcEEE10exceptionsB8ue170006Ev, symObjAddr: 0x217D4, symBinAddr: 0x100025820, symSize: 0x24 }
  - { offsetInCU: 0x40F2C, offset: 0x40F2C, size: 0x8, addend: 0x0, symName: __ZNSt3__111char_traitsIcE6assignB8ue170006ERcRKc, symObjAddr: 0x217F8, symBinAddr: 0x100025844, symSize: 0x24 }
  - { offsetInCU: 0x40F5D, offset: 0x40F5D, size: 0x8, addend: 0x0, symName: __ZNSt3__112basic_stringIcNS_11char_traitsIcEENS_9allocatorIcEEE15__set_long_sizeB8ue170006Em, symObjAddr: 0x2181C, symBinAddr: 0x100025868, symSize: 0x38 }
  - { offsetInCU: 0x40F92, offset: 0x40F92, size: 0x8, addend: 0x0, symName: __ZNSt3__112basic_stringIcNS_11char_traitsIcEENS_9allocatorIcEEE16__set_short_sizeB8ue170006Em, symObjAddr: 0x21854, symBinAddr: 0x1000258A0, symSize: 0x78 }
  - { offsetInCU: 0x40FC7, offset: 0x40FC7, size: 0x8, addend: 0x0, symName: __ZNSt3__111char_traitsIcE11to_int_typeB8ue170006Ec, symObjAddr: 0x218CC, symBinAddr: 0x100025918, symSize: 0x14 }
  - { offsetInCU: 0x40FF6, offset: 0x40FF6, size: 0x8, addend: 0x0, symName: __ZNSt3__116allocator_traitsINS_9allocatorIcEEE8max_sizeB8ue170006IS2_vEEmRKS2_, symObjAddr: 0x218E0, symBinAddr: 0x10002592C, symSize: 0x24 }
  - { offsetInCU: 0x41024, offset: 0x41024, size: 0x8, addend: 0x0, symName: __ZNKSt3__112basic_stringIcNS_11char_traitsIcEENS_9allocatorIcEEE7__allocB8ue170006Ev, symObjAddr: 0x21904, symBinAddr: 0x100025950, symSize: 0x24 }
  - { offsetInCU: 0x4104A, offset: 0x4104A, size: 0x8, addend: 0x0, symName: __ZNKSt3__19allocatorIcE8max_sizeB8ue170006Ev, symObjAddr: 0x21928, symBinAddr: 0x100025974, symSize: 0x14 }
  - { offsetInCU: 0x41070, offset: 0x41070, size: 0x8, addend: 0x0, symName: __ZNKSt3__117__compressed_pairINS_12basic_stringIcNS_11char_traitsIcEENS_9allocatorIcEEE5__repES5_E6secondB8ue170006Ev, symObjAddr: 0x2193C, symBinAddr: 0x100025988, symSize: 0x24 }
  - { offsetInCU: 0x41096, offset: 0x41096, size: 0x8, addend: 0x0, symName: __ZNKSt3__122__compressed_pair_elemINS_9allocatorIcEELi1ELb1EE5__getB8ue170006Ev, symObjAddr: 0x21960, symBinAddr: 0x1000259AC, symSize: 0x14 }
  - { offsetInCU: 0x410BC, offset: 0x410BC, size: 0x8, addend: 0x0, symName: __ZNKSt3__18ios_base10exceptionsB8ue170006Ev, symObjAddr: 0x21974, symBinAddr: 0x1000259C0, symSize: 0x18 }
  - { offsetInCU: 0x410E4, offset: 0x410E4, size: 0x8, addend: 0x0, symName: __ZNKSt3__19basic_iosIcNS_11char_traitsIcEEE4failB8ue170006Ev, symObjAddr: 0x2198C, symBinAddr: 0x1000259D8, symSize: 0x28 }
  - { offsetInCU: 0x4110A, offset: 0x4110A, size: 0x8, addend: 0x0, symName: __ZNKSt3__18ios_base4failB8ue170006Ev, symObjAddr: 0x219B4, symBinAddr: 0x100025A00, symSize: 0x28 }
  - { offsetInCU: 0x41132, offset: 0x41132, size: 0x8, addend: 0x0, symName: __ZNSt3__111char_traitsIcE6lengthB8ue170006EPKc, symObjAddr: 0x219DC, symBinAddr: 0x100025A28, symSize: 0x34 }
  - { offsetInCU: 0x41155, offset: 0x41155, size: 0x8, addend: 0x0, symName: __ZNSt3__16vectorINS_12basic_stringIcNS_11char_traitsIcEENS_9allocatorIcEEEENS4_IS6_EEEC2ERKS8_, symObjAddr: 0x21A34, symBinAddr: 0x100025A80, symSize: 0x94 }
  - { offsetInCU: 0x4119B, offset: 0x4119B, size: 0x8, addend: 0x0, symName: __ZNSt3__116allocator_traitsINS_9allocatorINS_12basic_stringIcNS_11char_traitsIcEENS1_IcEEEEEEE37select_on_container_copy_constructionB8ue170006IS7_vvEES7_RKS7_, symObjAddr: 0x21AC8, symBinAddr: 0x100025B14, symSize: 0x10 }
  - { offsetInCU: 0x411CA, offset: 0x411CA, size: 0x8, addend: 0x0, symName: __ZNKSt3__16vectorINS_12basic_stringIcNS_11char_traitsIcEENS_9allocatorIcEEEENS4_IS6_EEE7__allocB8ue170006Ev, symObjAddr: 0x21AD8, symBinAddr: 0x100025B24, symSize: 0x28 }
  - { offsetInCU: 0x411F6, offset: 0x411F6, size: 0x8, addend: 0x0, symName: __ZNSt3__117__compressed_pairIPNS_12basic_stringIcNS_11char_traitsIcEENS_9allocatorIcEEEENS4_IS6_EEEC1B8ue170006IDnS8_EEOT_OT0_, symObjAddr: 0x21B00, symBinAddr: 0x100025B4C, symSize: 0x3C }
  - { offsetInCU: 0x4124E, offset: 0x4124E, size: 0x8, addend: 0x0, symName: __ZNSt3__16vectorINS_12basic_stringIcNS_11char_traitsIcEENS_9allocatorIcEEEENS4_IS6_EEE16__init_with_sizeB8ue170006IPS6_SA_EEvT_T0_m, symObjAddr: 0x21B3C, symBinAddr: 0x100025B88, symSize: 0xB8 }
  - { offsetInCU: 0x412C2, offset: 0x412C2, size: 0x8, addend: 0x0, symName: __ZNKSt3__117__compressed_pairIPNS_12basic_stringIcNS_11char_traitsIcEENS_9allocatorIcEEEENS4_IS6_EEE6secondB8ue170006Ev, symObjAddr: 0x21BF4, symBinAddr: 0x100025C40, symSize: 0x24 }
  - { offsetInCU: 0x412E8, offset: 0x412E8, size: 0x8, addend: 0x0, symName: __ZNKSt3__122__compressed_pair_elemINS_9allocatorINS_12basic_stringIcNS_11char_traitsIcEENS1_IcEEEEEELi1ELb1EE5__getB8ue170006Ev, symObjAddr: 0x21C18, symBinAddr: 0x100025C64, symSize: 0x14 }
  - { offsetInCU: 0x4130E, offset: 0x4130E, size: 0x8, addend: 0x0, symName: __ZNSt3__117__compressed_pairIPNS_12basic_stringIcNS_11char_traitsIcEENS_9allocatorIcEEEENS4_IS6_EEEC2B8ue170006IDnS8_EEOT_OT0_, symObjAddr: 0x21C2C, symBinAddr: 0x100025C78, symSize: 0x44 }
  - { offsetInCU: 0x41366, offset: 0x41366, size: 0x8, addend: 0x0, symName: __ZNSt3__122__compressed_pair_elemINS_9allocatorINS_12basic_stringIcNS_11char_traitsIcEENS1_IcEEEEEELi1ELb1EEC2B8ue170006IS7_vEEOT_, symObjAddr: 0x21C70, symBinAddr: 0x100025CBC, symSize: 0x18 }
  - { offsetInCU: 0x413A8, offset: 0x413A8, size: 0x8, addend: 0x0, symName: __ZNSt3__16vectorINS_12basic_stringIcNS_11char_traitsIcEENS_9allocatorIcEEEENS4_IS6_EEE11__vallocateB8ue170006Em, symObjAddr: 0x21CC8, symBinAddr: 0x100025D14, symSize: 0xB4 }
  - { offsetInCU: 0x413EC, offset: 0x413EC, size: 0x8, addend: 0x0, symName: __ZNSt3__16vectorINS_12basic_stringIcNS_11char_traitsIcEENS_9allocatorIcEEEENS4_IS6_EEE18__construct_at_endIPS6_SA_EEvT_T0_m, symObjAddr: 0x21D7C, symBinAddr: 0x100025DC8, symSize: 0x8C }
  - { offsetInCU: 0x41462, offset: 0x41462, size: 0x8, addend: 0x0, symName: __ZNSt3__128__exception_guard_exceptionsINS_6vectorINS_12basic_stringIcNS_11char_traitsIcEENS_9allocatorIcEEEENS5_IS7_EEE16__destroy_vectorEE10__completeB8ue170006Ev, symObjAddr: 0x21E08, symBinAddr: 0x100025E54, symSize: 0x1C }
  - { offsetInCU: 0x41488, offset: 0x41488, size: 0x8, addend: 0x0, symName: __ZNSt3__128__exception_guard_exceptionsINS_6vectorINS_12basic_stringIcNS_11char_traitsIcEENS_9allocatorIcEEEENS5_IS7_EEE16__destroy_vectorEED1B8ue170006Ev, symObjAddr: 0x21E24, symBinAddr: 0x100025E70, symSize: 0x2C }
  - { offsetInCU: 0x414B2, offset: 0x414B2, size: 0x8, addend: 0x0, symName: __ZNSt3__128__exception_guard_exceptionsINS_6vectorINS_12basic_stringIcNS_11char_traitsIcEENS_9allocatorIcEEEENS5_IS7_EEE16__destroy_vectorEEC1B8ue170006ESA_, symObjAddr: 0x21E50, symBinAddr: 0x100025E9C, symSize: 0x34 }
  - { offsetInCU: 0x414EA, offset: 0x414EA, size: 0x8, addend: 0x0, symName: __ZNSt3__128__exception_guard_exceptionsINS_6vectorINS_12basic_stringIcNS_11char_traitsIcEENS_9allocatorIcEEEENS5_IS7_EEE16__destroy_vectorEEC2B8ue170006ESA_, symObjAddr: 0x21E84, symBinAddr: 0x100025ED0, symSize: 0x24 }
  - { offsetInCU: 0x41522, offset: 0x41522, size: 0x8, addend: 0x0, symName: __ZNKSt3__16vectorINS_12basic_stringIcNS_11char_traitsIcEENS_9allocatorIcEEEENS4_IS6_EEE8max_sizeEv, symObjAddr: 0x21EA8, symBinAddr: 0x100025EF4, symSize: 0x60 }
  - { offsetInCU: 0x4154A, offset: 0x4154A, size: 0x8, addend: 0x0, symName: __ZNKSt3__16vectorINS_12basic_stringIcNS_11char_traitsIcEENS_9allocatorIcEEEENS4_IS6_EEE20__throw_length_errorB8ue170006Ev, symObjAddr: 0x21F08, symBinAddr: 0x100025F54, symSize: 0x1C }
  - { offsetInCU: 0x41570, offset: 0x41570, size: 0x8, addend: 0x0, symName: __ZNSt3__16vectorINS_12basic_stringIcNS_11char_traitsIcEENS_9allocatorIcEEEENS4_IS6_EEE9__end_capB8ue170006Ev, symObjAddr: 0x21F64, symBinAddr: 0x100025FB0, symSize: 0x28 }
  - { offsetInCU: 0x41596, offset: 0x41596, size: 0x8, addend: 0x0, symName: __ZNKSt3__16vectorINS_12basic_stringIcNS_11char_traitsIcEENS_9allocatorIcEEEENS4_IS6_EEE14__annotate_newB8ue170006Em, symObjAddr: 0x21F8C, symBinAddr: 0x100025FD8, symSize: 0xC8 }
  - { offsetInCU: 0x415CB, offset: 0x415CB, size: 0x8, addend: 0x0, symName: __ZNSt3__116allocator_traitsINS_9allocatorINS_12basic_stringIcNS_11char_traitsIcEENS1_IcEEEEEEE8max_sizeB8ue170006IS7_vEEmRKS7_, symObjAddr: 0x22054, symBinAddr: 0x1000260A0, symSize: 0x24 }
  - { offsetInCU: 0x415F9, offset: 0x415F9, size: 0x8, addend: 0x0, symName: __ZNKSt3__19allocatorINS_12basic_stringIcNS_11char_traitsIcEENS0_IcEEEEE8max_sizeB8ue170006Ev, symObjAddr: 0x22078, symBinAddr: 0x1000260C4, symSize: 0x18 }
  - { offsetInCU: 0x4161F, offset: 0x4161F, size: 0x8, addend: 0x0, symName: __ZNSt3__19allocatorINS_12basic_stringIcNS_11char_traitsIcEENS0_IcEEEEE8allocateB8ue170006Em, symObjAddr: 0x22090, symBinAddr: 0x1000260DC, symSize: 0x5C }
  - { offsetInCU: 0x41653, offset: 0x41653, size: 0x8, addend: 0x0, symName: __ZNSt3__117__compressed_pairIPNS_12basic_stringIcNS_11char_traitsIcEENS_9allocatorIcEEEENS4_IS6_EEE5firstB8ue170006Ev, symObjAddr: 0x220EC, symBinAddr: 0x100026138, symSize: 0x24 }
  - { offsetInCU: 0x41679, offset: 0x41679, size: 0x8, addend: 0x0, symName: __ZNSt3__122__compressed_pair_elemIPNS_12basic_stringIcNS_11char_traitsIcEENS_9allocatorIcEEEELi0ELb0EE5__getB8ue170006Ev, symObjAddr: 0x22110, symBinAddr: 0x10002615C, symSize: 0x14 }
  - { offsetInCU: 0x416BB, offset: 0x416BB, size: 0x8, addend: 0x0, symName: __ZNSt3__16vectorINS_12basic_stringIcNS_11char_traitsIcEENS_9allocatorIcEEEENS4_IS6_EEE21_ConstructTransactionC1B8ue170006ERS8_m, symObjAddr: 0x22124, symBinAddr: 0x100026170, symSize: 0x3C }
  - { offsetInCU: 0x41703, offset: 0x41703, size: 0x8, addend: 0x0, symName: __ZNSt3__16vectorINS_12basic_stringIcNS_11char_traitsIcEENS_9allocatorIcEEEENS4_IS6_EEE21_ConstructTransactionD1B8ue170006Ev, symObjAddr: 0x221E0, symBinAddr: 0x10002622C, symSize: 0x2C }
  - { offsetInCU: 0x4172D, offset: 0x4172D, size: 0x8, addend: 0x0, symName: __ZNSt3__16vectorINS_12basic_stringIcNS_11char_traitsIcEENS_9allocatorIcEEEENS4_IS6_EEE21_ConstructTransactionC2B8ue170006ERS8_m, symObjAddr: 0x2220C, symBinAddr: 0x100026258, symSize: 0x4C }
  - { offsetInCU: 0x41798, offset: 0x41798, size: 0x8, addend: 0x0, symName: __ZNSt3__14pairIPNS_12basic_stringIcNS_11char_traitsIcEENS_9allocatorIcEEEES7_EC1B8ue170006IS7_S7_LPv0EEEOT_OT0_, symObjAddr: 0x22444, symBinAddr: 0x100026490, symSize: 0x3C }
  - { offsetInCU: 0x417F6, offset: 0x417F6, size: 0x8, addend: 0x0, symName: __ZNSt3__14pairIPNS_12basic_stringIcNS_11char_traitsIcEENS_9allocatorIcEEEES7_EC2B8ue170006IS7_S7_LPv0EEEOT_OT0_, symObjAddr: 0x22480, symBinAddr: 0x1000264CC, symSize: 0x34 }
  - { offsetInCU: 0x41854, offset: 0x41854, size: 0x8, addend: 0x0, symName: __ZNSt3__129_AllocatorDestroyRangeReverseINS_9allocatorINS_12basic_stringIcNS_11char_traitsIcEENS1_IcEEEEEEPS6_EC1B8ue170006ERS7_RS8_SB_, symObjAddr: 0x22500, symBinAddr: 0x10002654C, symSize: 0x44 }
  - { offsetInCU: 0x418AB, offset: 0x418AB, size: 0x8, addend: 0x0, symName: __ZNSt3__116allocator_traitsINS_9allocatorINS_12basic_stringIcNS_11char_traitsIcEENS1_IcEEEEEEE9constructB8ue170006IS6_JRS6_EvEEvRS7_PT_DpOT0_, symObjAddr: 0x22544, symBinAddr: 0x100026590, symSize: 0x34 }
  - { offsetInCU: 0x41902, offset: 0x41902, size: 0x8, addend: 0x0, symName: __ZNSt3__128__exception_guard_exceptionsINS_29_AllocatorDestroyRangeReverseINS_9allocatorINS_12basic_stringIcNS_11char_traitsIcEENS2_IcEEEEEEPS7_EEE10__completeB8ue170006Ev, symObjAddr: 0x22578, symBinAddr: 0x1000265C4, symSize: 0x1C }
  - { offsetInCU: 0x41928, offset: 0x41928, size: 0x8, addend: 0x0, symName: __ZNSt3__128__exception_guard_exceptionsINS_29_AllocatorDestroyRangeReverseINS_9allocatorINS_12basic_stringIcNS_11char_traitsIcEENS2_IcEEEEEEPS7_EEED1B8ue170006Ev, symObjAddr: 0x22594, symBinAddr: 0x1000265E0, symSize: 0x2C }
  - { offsetInCU: 0x41952, offset: 0x41952, size: 0x8, addend: 0x0, symName: __ZNSt3__128__exception_guard_exceptionsINS_29_AllocatorDestroyRangeReverseINS_9allocatorINS_12basic_stringIcNS_11char_traitsIcEENS2_IcEEEEEEPS7_EEEC1B8ue170006ESA_, symObjAddr: 0x225C0, symBinAddr: 0x10002660C, symSize: 0x34 }
  - { offsetInCU: 0x4198B, offset: 0x4198B, size: 0x8, addend: 0x0, symName: __ZNSt3__128__exception_guard_exceptionsINS_29_AllocatorDestroyRangeReverseINS_9allocatorINS_12basic_stringIcNS_11char_traitsIcEENS2_IcEEEEEEPS7_EEEC2B8ue170006ESA_, symObjAddr: 0x225F4, symBinAddr: 0x100026640, symSize: 0x30 }
  - { offsetInCU: 0x419C4, offset: 0x419C4, size: 0x8, addend: 0x0, symName: __ZNSt3__129_AllocatorDestroyRangeReverseINS_9allocatorINS_12basic_stringIcNS_11char_traitsIcEENS1_IcEEEEEEPS6_EC2B8ue170006ERS7_RS8_SB_, symObjAddr: 0x22624, symBinAddr: 0x100026670, symSize: 0x38 }
  - { offsetInCU: 0x41A1B, offset: 0x41A1B, size: 0x8, addend: 0x0, symName: __ZNSt3__19allocatorINS_12basic_stringIcNS_11char_traitsIcEENS0_IcEEEEE9constructB8ue170006IS5_JRS5_EEEvPT_DpOT0_, symObjAddr: 0x2265C, symBinAddr: 0x1000266A8, symSize: 0x30 }
  - { offsetInCU: 0x41A71, offset: 0x41A71, size: 0x8, addend: 0x0, symName: __ZNSt3__128__exception_guard_exceptionsINS_29_AllocatorDestroyRangeReverseINS_9allocatorINS_12basic_stringIcNS_11char_traitsIcEENS2_IcEEEEEEPS7_EEED2B8ue170006Ev, symObjAddr: 0x2268C, symBinAddr: 0x1000266D8, symSize: 0x50 }
  - { offsetInCU: 0x41A9B, offset: 0x41A9B, size: 0x8, addend: 0x0, symName: __ZNKSt3__129_AllocatorDestroyRangeReverseINS_9allocatorINS_12basic_stringIcNS_11char_traitsIcEENS1_IcEEEEEEPS6_EclB8ue170006Ev, symObjAddr: 0x226DC, symBinAddr: 0x100026728, symSize: 0x68 }
  - { offsetInCU: 0x41AC1, offset: 0x41AC1, size: 0x8, addend: 0x0, symName: __ZNSt3__116reverse_iteratorIPNS_12basic_stringIcNS_11char_traitsIcEENS_9allocatorIcEEEEEC1B8ue170006ES7_, symObjAddr: 0x227B4, symBinAddr: 0x100026800, symSize: 0x34 }
  - { offsetInCU: 0x41AF9, offset: 0x41AF9, size: 0x8, addend: 0x0, symName: __ZNSt3__116reverse_iteratorIPNS_12basic_stringIcNS_11char_traitsIcEENS_9allocatorIcEEEEEppB8ue170006Ev, symObjAddr: 0x22854, symBinAddr: 0x1000268A0, symSize: 0x20 }
  - { offsetInCU: 0x41B1F, offset: 0x41B1F, size: 0x8, addend: 0x0, symName: __ZNKSt3__116reverse_iteratorIPNS_12basic_stringIcNS_11char_traitsIcEENS_9allocatorIcEEEEE4baseB8ue170006Ev, symObjAddr: 0x22874, symBinAddr: 0x1000268C0, symSize: 0x18 }
  - { offsetInCU: 0x41B4B, offset: 0x41B4B, size: 0x8, addend: 0x0, symName: __ZNSt3__119__to_address_helperINS_16reverse_iteratorIPNS_12basic_stringIcNS_11char_traitsIcEENS_9allocatorIcEEEEEEvE6__callB8ue170006ERKS9_, symObjAddr: 0x2288C, symBinAddr: 0x1000268D8, symSize: 0x38 }
  - { offsetInCU: 0x41B6E, offset: 0x41B6E, size: 0x8, addend: 0x0, symName: __ZNKSt3__116reverse_iteratorIPNS_12basic_stringIcNS_11char_traitsIcEENS_9allocatorIcEEEEEptB8ue170006Ev, symObjAddr: 0x228C4, symBinAddr: 0x100026910, symSize: 0x24 }
  - { offsetInCU: 0x41B94, offset: 0x41B94, size: 0x8, addend: 0x0, symName: __ZNKSt3__116reverse_iteratorIPNS_12basic_stringIcNS_11char_traitsIcEENS_9allocatorIcEEEEEdeB8ue170006Ev, symObjAddr: 0x228E8, symBinAddr: 0x100026934, symSize: 0x28 }
  - { offsetInCU: 0x41BC8, offset: 0x41BC8, size: 0x8, addend: 0x0, symName: __ZNSt3__116reverse_iteratorIPNS_12basic_stringIcNS_11char_traitsIcEENS_9allocatorIcEEEEEC2B8ue170006ES7_, symObjAddr: 0x22910, symBinAddr: 0x10002695C, symSize: 0x28 }
  - { offsetInCU: 0x41C00, offset: 0x41C00, size: 0x8, addend: 0x0, symName: __ZNSt3__118__unwrap_iter_implIPNS_12basic_stringIcNS_11char_traitsIcEENS_9allocatorIcEEEELb1EE8__unwrapB8ue170006ES7_, symObjAddr: 0x22938, symBinAddr: 0x100026984, symSize: 0x24 }
  - { offsetInCU: 0x41C23, offset: 0x41C23, size: 0x8, addend: 0x0, symName: __ZNSt3__118__unwrap_iter_implIPNS_12basic_stringIcNS_11char_traitsIcEENS_9allocatorIcEEEELb1EE8__rewrapB8ue170006ES7_S7_, symObjAddr: 0x2295C, symBinAddr: 0x1000269A8, symSize: 0x58 }
  - { offsetInCU: 0x41C54, offset: 0x41C54, size: 0x8, addend: 0x0, symName: __ZNSt3__16vectorINS_12basic_stringIcNS_11char_traitsIcEENS_9allocatorIcEEEENS4_IS6_EEE21_ConstructTransactionD2B8ue170006Ev, symObjAddr: 0x229B4, symBinAddr: 0x100026A00, symSize: 0x20 }
  - { offsetInCU: 0x41C7E, offset: 0x41C7E, size: 0x8, addend: 0x0, symName: __ZNSt3__128__exception_guard_exceptionsINS_6vectorINS_12basic_stringIcNS_11char_traitsIcEENS_9allocatorIcEEEENS5_IS7_EEE16__destroy_vectorEED2B8ue170006Ev, symObjAddr: 0x229D4, symBinAddr: 0x100026A20, symSize: 0x48 }
  - { offsetInCU: 0x41CA8, offset: 0x41CA8, size: 0x8, addend: 0x0, symName: __ZNSt3__16vectorI7BMatrixNS_9allocatorIS1_EEE9__end_capB8ue170006Ev, symObjAddr: 0x22A1C, symBinAddr: 0x100026A68, symSize: 0x28 }
  - { offsetInCU: 0x41CCE, offset: 0x41CCE, size: 0x8, addend: 0x0, symName: __ZNSt3__16vectorI7BMatrixNS_9allocatorIS1_EEE22__construct_one_at_endB8ue170006IJS1_EEEvDpOT_, symObjAddr: 0x22A44, symBinAddr: 0x100026A90, symSize: 0x90 }
  - { offsetInCU: 0x41D1D, offset: 0x41D1D, size: 0x8, addend: 0x0, symName: __ZNSt3__16vectorI7BMatrixNS_9allocatorIS1_EEE21__push_back_slow_pathIS1_EEvOT_, symObjAddr: 0x22AD4, symBinAddr: 0x100026B20, symSize: 0xD8 }
  - { offsetInCU: 0x41D7B, offset: 0x41D7B, size: 0x8, addend: 0x0, symName: __ZNSt3__117__compressed_pairIP7BMatrixNS_9allocatorIS1_EEE5firstB8ue170006Ev, symObjAddr: 0x22BAC, symBinAddr: 0x100026BF8, symSize: 0x24 }
  - { offsetInCU: 0x41DA1, offset: 0x41DA1, size: 0x8, addend: 0x0, symName: __ZNSt3__122__compressed_pair_elemIP7BMatrixLi0ELb0EE5__getB8ue170006Ev, symObjAddr: 0x22BD0, symBinAddr: 0x100026C1C, symSize: 0x14 }
  - { offsetInCU: 0x41DE3, offset: 0x41DE3, size: 0x8, addend: 0x0, symName: __ZNSt3__16vectorI7BMatrixNS_9allocatorIS1_EEE21_ConstructTransactionC1B8ue170006ERS4_m, symObjAddr: 0x22BE4, symBinAddr: 0x100026C30, symSize: 0x3C }
  - { offsetInCU: 0x41E2B, offset: 0x41E2B, size: 0x8, addend: 0x0, symName: __ZNSt3__116allocator_traitsINS_9allocatorI7BMatrixEEE9constructB8ue170006IS2_JS2_EvEEvRS3_PT_DpOT0_, symObjAddr: 0x22C20, symBinAddr: 0x100026C6C, symSize: 0x34 }
  - { offsetInCU: 0x41E82, offset: 0x41E82, size: 0x8, addend: 0x0, symName: __ZNSt3__16vectorI7BMatrixNS_9allocatorIS1_EEE21_ConstructTransactionD1B8ue170006Ev, symObjAddr: 0x22C54, symBinAddr: 0x100026CA0, symSize: 0x2C }
  - { offsetInCU: 0x41EAC, offset: 0x41EAC, size: 0x8, addend: 0x0, symName: __ZNSt3__16vectorI7BMatrixNS_9allocatorIS1_EEE21_ConstructTransactionC2B8ue170006ERS4_m, symObjAddr: 0x22C80, symBinAddr: 0x100026CCC, symSize: 0x44 }
  - { offsetInCU: 0x41EF4, offset: 0x41EF4, size: 0x8, addend: 0x0, symName: __ZNSt3__19allocatorI7BMatrixE9constructB8ue170006IS1_JS1_EEEvPT_DpOT0_, symObjAddr: 0x22CC4, symBinAddr: 0x100026D10, symSize: 0x30 }
  - { offsetInCU: 0x41F4A, offset: 0x41F4A, size: 0x8, addend: 0x0, symName: __ZNSt3__16vectorI7BMatrixNS_9allocatorIS1_EEE21_ConstructTransactionD2B8ue170006Ev, symObjAddr: 0x22CF4, symBinAddr: 0x100026D40, symSize: 0x20 }
  - { offsetInCU: 0x41F74, offset: 0x41F74, size: 0x8, addend: 0x0, symName: __ZNKSt3__16vectorI7BMatrixNS_9allocatorIS1_EEE11__recommendB8ue170006Em, symObjAddr: 0x22D14, symBinAddr: 0x100026D60, symSize: 0xB4 }
  - { offsetInCU: 0x41FC9, offset: 0x41FC9, size: 0x8, addend: 0x0, symName: __ZNSt3__114__split_bufferI7BMatrixRNS_9allocatorIS1_EEEC1EmmS4_, symObjAddr: 0x22DC8, symBinAddr: 0x100026E14, symSize: 0x44 }
  - { offsetInCU: 0x4201F, offset: 0x4201F, size: 0x8, addend: 0x0, symName: __ZNSt3__114__split_bufferI7BMatrixRNS_9allocatorIS1_EEED1Ev, symObjAddr: 0x22F1C, symBinAddr: 0x100026F68, symSize: 0x2C }
  - { offsetInCU: 0x4204B, offset: 0x4204B, size: 0x8, addend: 0x0, symName: __ZNKSt3__16vectorI7BMatrixNS_9allocatorIS1_EEE8max_sizeEv, symObjAddr: 0x22F48, symBinAddr: 0x100026F94, symSize: 0x60 }
  - { offsetInCU: 0x42073, offset: 0x42073, size: 0x8, addend: 0x0, symName: __ZNKSt3__16vectorI7BMatrixNS_9allocatorIS1_EEE20__throw_length_errorB8ue170006Ev, symObjAddr: 0x22FA8, symBinAddr: 0x100026FF4, symSize: 0x1C }
  - { offsetInCU: 0x420A4, offset: 0x420A4, size: 0x8, addend: 0x0, symName: __ZNSt3__116allocator_traitsINS_9allocatorI7BMatrixEEE8max_sizeB8ue170006IS3_vEEmRKS3_, symObjAddr: 0x22FC4, symBinAddr: 0x100027010, symSize: 0x24 }
  - { offsetInCU: 0x420D2, offset: 0x420D2, size: 0x8, addend: 0x0, symName: __ZNKSt3__16vectorI7BMatrixNS_9allocatorIS1_EEE7__allocB8ue170006Ev, symObjAddr: 0x22FE8, symBinAddr: 0x100027034, symSize: 0x28 }
  - { offsetInCU: 0x420F8, offset: 0x420F8, size: 0x8, addend: 0x0, symName: __ZNKSt3__19allocatorI7BMatrixE8max_sizeB8ue170006Ev, symObjAddr: 0x23010, symBinAddr: 0x10002705C, symSize: 0x14 }
  - { offsetInCU: 0x4211E, offset: 0x4211E, size: 0x8, addend: 0x0, symName: __ZNKSt3__117__compressed_pairIP7BMatrixNS_9allocatorIS1_EEE6secondB8ue170006Ev, symObjAddr: 0x23024, symBinAddr: 0x100027070, symSize: 0x24 }
  - { offsetInCU: 0x42144, offset: 0x42144, size: 0x8, addend: 0x0, symName: __ZNKSt3__122__compressed_pair_elemINS_9allocatorI7BMatrixEELi1ELb1EE5__getB8ue170006Ev, symObjAddr: 0x23048, symBinAddr: 0x100027094, symSize: 0x14 }
  - { offsetInCU: 0x4216A, offset: 0x4216A, size: 0x8, addend: 0x0, symName: __ZNSt3__114__split_bufferI7BMatrixRNS_9allocatorIS1_EEEC2EmmS4_, symObjAddr: 0x2305C, symBinAddr: 0x1000270A8, symSize: 0xD4 }
  - { offsetInCU: 0x421DD, offset: 0x421DD, size: 0x8, addend: 0x0, symName: __ZNSt3__117__compressed_pairIP7BMatrixRNS_9allocatorIS1_EEEC1B8ue170006IDnS5_EEOT_OT0_, symObjAddr: 0x23130, symBinAddr: 0x10002717C, symSize: 0x3C }
  - { offsetInCU: 0x42235, offset: 0x42235, size: 0x8, addend: 0x0, symName: __ZNSt3__114__split_bufferI7BMatrixRNS_9allocatorIS1_EEE7__allocB8ue170006Ev, symObjAddr: 0x231AC, symBinAddr: 0x1000271F8, symSize: 0x28 }
  - { offsetInCU: 0x4225B, offset: 0x4225B, size: 0x8, addend: 0x0, symName: __ZNSt3__114__split_bufferI7BMatrixRNS_9allocatorIS1_EEE9__end_capB8ue170006Ev, symObjAddr: 0x231D4, symBinAddr: 0x100027220, symSize: 0x28 }
  - { offsetInCU: 0x42281, offset: 0x42281, size: 0x8, addend: 0x0, symName: __ZNSt3__117__compressed_pairIP7BMatrixRNS_9allocatorIS1_EEEC2B8ue170006IDnS5_EEOT_OT0_, symObjAddr: 0x231FC, symBinAddr: 0x100027248, symSize: 0x48 }
  - { offsetInCU: 0x422D9, offset: 0x422D9, size: 0x8, addend: 0x0, symName: __ZNSt3__122__compressed_pair_elemIRNS_9allocatorI7BMatrixEELi1ELb0EEC2B8ue170006IS4_vEEOT_, symObjAddr: 0x23244, symBinAddr: 0x100027290, symSize: 0x20 }
  - { offsetInCU: 0x4231B, offset: 0x4231B, size: 0x8, addend: 0x0, symName: __ZNSt3__19allocatorI7BMatrixE8allocateB8ue170006Em, symObjAddr: 0x23264, symBinAddr: 0x1000272B0, symSize: 0x58 }
  - { offsetInCU: 0x4234F, offset: 0x4234F, size: 0x8, addend: 0x0, symName: __ZNSt3__117__compressed_pairIP7BMatrixRNS_9allocatorIS1_EEE6secondB8ue170006Ev, symObjAddr: 0x232BC, symBinAddr: 0x100027308, symSize: 0x28 }
  - { offsetInCU: 0x42375, offset: 0x42375, size: 0x8, addend: 0x0, symName: __ZNSt3__122__compressed_pair_elemIRNS_9allocatorI7BMatrixEELi1ELb0EE5__getB8ue170006Ev, symObjAddr: 0x232E4, symBinAddr: 0x100027330, symSize: 0x18 }
  - { offsetInCU: 0x4239B, offset: 0x4239B, size: 0x8, addend: 0x0, symName: __ZNSt3__117__compressed_pairIP7BMatrixRNS_9allocatorIS1_EEE5firstB8ue170006Ev, symObjAddr: 0x232FC, symBinAddr: 0x100027348, symSize: 0x24 }
  - { offsetInCU: 0x423C1, offset: 0x423C1, size: 0x8, addend: 0x0, symName: __ZNSt3__116reverse_iteratorIP7BMatrixEC1B8ue170006ES2_, symObjAddr: 0x2344C, symBinAddr: 0x100027498, symSize: 0x34 }
  - { offsetInCU: 0x423F9, offset: 0x423F9, size: 0x8, addend: 0x0, symName: __ZNKSt3__116reverse_iteratorIP7BMatrixE4baseB8ue170006Ev, symObjAddr: 0x23480, symBinAddr: 0x1000274CC, symSize: 0x18 }
  - { offsetInCU: 0x4241F, offset: 0x4241F, size: 0x8, addend: 0x0, symName: __ZNKSt3__16vectorI7BMatrixNS_9allocatorIS1_EEE14__annotate_newB8ue170006Em, symObjAddr: 0x234D4, symBinAddr: 0x100027520, symSize: 0xAC }
  - { offsetInCU: 0x42454, offset: 0x42454, size: 0x8, addend: 0x0, symName: __ZNSt3__129_AllocatorDestroyRangeReverseINS_9allocatorI7BMatrixEENS_16reverse_iteratorIPS2_EEEC1B8ue170006ERS3_RS6_S9_, symObjAddr: 0x235CC, symBinAddr: 0x100027618, symSize: 0x44 }
  - { offsetInCU: 0x424AB, offset: 0x424AB, size: 0x8, addend: 0x0, symName: __ZNKSt3__116reverse_iteratorIP7BMatrixEdeB8ue170006Ev, symObjAddr: 0x2367C, symBinAddr: 0x1000276C8, symSize: 0x28 }
  - { offsetInCU: 0x424DF, offset: 0x424DF, size: 0x8, addend: 0x0, symName: __ZNSt3__116reverse_iteratorIP7BMatrixEppB8ue170006Ev, symObjAddr: 0x236A4, symBinAddr: 0x1000276F0, symSize: 0x20 }
  - { offsetInCU: 0x42505, offset: 0x42505, size: 0x8, addend: 0x0, symName: __ZNSt3__128__exception_guard_exceptionsINS_29_AllocatorDestroyRangeReverseINS_9allocatorI7BMatrixEENS_16reverse_iteratorIPS3_EEEEE10__completeB8ue170006Ev, symObjAddr: 0x236C4, symBinAddr: 0x100027710, symSize: 0x1C }
  - { offsetInCU: 0x4252B, offset: 0x4252B, size: 0x8, addend: 0x0, symName: __ZNSt3__128__exception_guard_exceptionsINS_29_AllocatorDestroyRangeReverseINS_9allocatorI7BMatrixEENS_16reverse_iteratorIPS3_EEEEED1B8ue170006Ev, symObjAddr: 0x236E0, symBinAddr: 0x10002772C, symSize: 0x2C }
  - { offsetInCU: 0x42555, offset: 0x42555, size: 0x8, addend: 0x0, symName: __ZNSt3__128__exception_guard_exceptionsINS_29_AllocatorDestroyRangeReverseINS_9allocatorI7BMatrixEENS_16reverse_iteratorIPS3_EEEEEC1B8ue170006ES8_, symObjAddr: 0x2370C, symBinAddr: 0x100027758, symSize: 0x34 }
  - { offsetInCU: 0x4258E, offset: 0x4258E, size: 0x8, addend: 0x0, symName: __ZNSt3__128__exception_guard_exceptionsINS_29_AllocatorDestroyRangeReverseINS_9allocatorI7BMatrixEENS_16reverse_iteratorIPS3_EEEEEC2B8ue170006ES8_, symObjAddr: 0x23740, symBinAddr: 0x10002778C, symSize: 0x30 }
  - { offsetInCU: 0x425C7, offset: 0x425C7, size: 0x8, addend: 0x0, symName: __ZNSt3__129_AllocatorDestroyRangeReverseINS_9allocatorI7BMatrixEENS_16reverse_iteratorIPS2_EEEC2B8ue170006ERS3_RS6_S9_, symObjAddr: 0x23770, symBinAddr: 0x1000277BC, symSize: 0x38 }
  - { offsetInCU: 0x42624, offset: 0x42624, size: 0x8, addend: 0x0, symName: __ZNSt3__119__to_address_helperINS_16reverse_iteratorIP7BMatrixEEvE6__callB8ue170006ERKS4_, symObjAddr: 0x237A8, symBinAddr: 0x1000277F4, symSize: 0x38 }
  - { offsetInCU: 0x42647, offset: 0x42647, size: 0x8, addend: 0x0, symName: __ZNKSt3__116reverse_iteratorIP7BMatrixEptB8ue170006Ev, symObjAddr: 0x237E0, symBinAddr: 0x10002782C, symSize: 0x24 }
  - { offsetInCU: 0x4266D, offset: 0x4266D, size: 0x8, addend: 0x0, symName: __ZNSt3__128__exception_guard_exceptionsINS_29_AllocatorDestroyRangeReverseINS_9allocatorI7BMatrixEENS_16reverse_iteratorIPS3_EEEEED2B8ue170006Ev, symObjAddr: 0x23804, symBinAddr: 0x100027850, symSize: 0x50 }
  - { offsetInCU: 0x42697, offset: 0x42697, size: 0x8, addend: 0x0, symName: __ZNKSt3__129_AllocatorDestroyRangeReverseINS_9allocatorI7BMatrixEENS_16reverse_iteratorIPS2_EEEclB8ue170006Ev, symObjAddr: 0x23854, symBinAddr: 0x1000278A0, symSize: 0xB4 }
  - { offsetInCU: 0x426BE, offset: 0x426BE, size: 0x8, addend: 0x0, symName: __ZNSt3__116reverse_iteratorINS0_IP7BMatrixEEEC1B8ue170006ES3_, symObjAddr: 0x23978, symBinAddr: 0x1000279C4, symSize: 0x3C }
  - { offsetInCU: 0x426F6, offset: 0x426F6, size: 0x8, addend: 0x0, symName: __ZNSt3__116reverse_iteratorINS0_IP7BMatrixEEEppB8ue170006Ev, symObjAddr: 0x23A38, symBinAddr: 0x100027A84, symSize: 0x30 }
  - { offsetInCU: 0x4271C, offset: 0x4271C, size: 0x8, addend: 0x0, symName: __ZNKSt3__116reverse_iteratorINS0_IP7BMatrixEEE4baseB8ue170006Ev, symObjAddr: 0x23A68, symBinAddr: 0x100027AB4, symSize: 0x24 }
  - { offsetInCU: 0x42748, offset: 0x42748, size: 0x8, addend: 0x0, symName: __ZNSt3__119__to_address_helperINS_16reverse_iteratorINS1_IP7BMatrixEEEEvE6__callB8ue170006ERKS5_, symObjAddr: 0x23A8C, symBinAddr: 0x100027AD8, symSize: 0x38 }
  - { offsetInCU: 0x4276B, offset: 0x4276B, size: 0x8, addend: 0x0, symName: __ZNKSt3__116reverse_iteratorINS0_IP7BMatrixEEEptB8ue170006Ev, symObjAddr: 0x23AC4, symBinAddr: 0x100027B10, symSize: 0x24 }
  - { offsetInCU: 0x42791, offset: 0x42791, size: 0x8, addend: 0x0, symName: __ZNKSt3__116reverse_iteratorINS0_IP7BMatrixEEEdeB8ue170006Ev, symObjAddr: 0x23AE8, symBinAddr: 0x100027B34, symSize: 0x34 }
  - { offsetInCU: 0x427C5, offset: 0x427C5, size: 0x8, addend: 0x0, symName: __ZNSt3__116reverse_iteratorIP7BMatrixEmmB8ue170006Ev, symObjAddr: 0x23B1C, symBinAddr: 0x100027B68, symSize: 0x20 }
  - { offsetInCU: 0x427EB, offset: 0x427EB, size: 0x8, addend: 0x0, symName: __ZNSt3__116reverse_iteratorINS0_IP7BMatrixEEEC2B8ue170006ES3_, symObjAddr: 0x23B3C, symBinAddr: 0x100027B88, symSize: 0x2C }
  - { offsetInCU: 0x42823, offset: 0x42823, size: 0x8, addend: 0x0, symName: __ZNSt3__116reverse_iteratorIP7BMatrixEC2B8ue170006ES2_, symObjAddr: 0x23B68, symBinAddr: 0x100027BB4, symSize: 0x28 }
  - { offsetInCU: 0x4285B, offset: 0x4285B, size: 0x8, addend: 0x0, symName: __ZNSt3__114__split_bufferI7BMatrixRNS_9allocatorIS1_EEED2Ev, symObjAddr: 0x23B90, symBinAddr: 0x100027BDC, symSize: 0x8C }
  - { offsetInCU: 0x42887, offset: 0x42887, size: 0x8, addend: 0x0, symName: __ZNSt3__114__split_bufferI7BMatrixRNS_9allocatorIS1_EEE5clearB8ue170006Ev, symObjAddr: 0x23C1C, symBinAddr: 0x100027C68, symSize: 0x28 }
  - { offsetInCU: 0x428AD, offset: 0x428AD, size: 0x8, addend: 0x0, symName: __ZNKSt3__114__split_bufferI7BMatrixRNS_9allocatorIS1_EEE8capacityB8ue170006Ev, symObjAddr: 0x23C44, symBinAddr: 0x100027C90, symSize: 0x40 }
  - { offsetInCU: 0x428D3, offset: 0x428D3, size: 0x8, addend: 0x0, symName: __ZNSt3__114__split_bufferI7BMatrixRNS_9allocatorIS1_EEE17__destruct_at_endB8ue170006EPS1_, symObjAddr: 0x23C84, symBinAddr: 0x100027CD0, symSize: 0x2C }
  - { offsetInCU: 0x42907, offset: 0x42907, size: 0x8, addend: 0x0, symName: __ZNSt3__114__split_bufferI7BMatrixRNS_9allocatorIS1_EEE17__destruct_at_endB8ue170006EPS1_NS_17integral_constantIbLb0EEE, symObjAddr: 0x23CB0, symBinAddr: 0x100027CFC, symSize: 0x80 }
  - { offsetInCU: 0x42947, offset: 0x42947, size: 0x8, addend: 0x0, symName: __ZNKSt3__114__split_bufferI7BMatrixRNS_9allocatorIS1_EEE9__end_capB8ue170006Ev, symObjAddr: 0x23D30, symBinAddr: 0x100027D7C, symSize: 0x28 }
  - { offsetInCU: 0x4296D, offset: 0x4296D, size: 0x8, addend: 0x0, symName: __ZNKSt3__117__compressed_pairIP7BMatrixRNS_9allocatorIS1_EEE5firstB8ue170006Ev, symObjAddr: 0x23D58, symBinAddr: 0x100027DA4, symSize: 0x24 }
  - { offsetInCU: 0x42993, offset: 0x42993, size: 0x8, addend: 0x0, symName: __ZNKSt3__16vectorINS_12basic_stringIcNS_11char_traitsIcEENS_9allocatorIcEEEENS4_IS6_EEE17__annotate_shrinkB8ue170006Em, symObjAddr: 0x23D7C, symBinAddr: 0x100027DC8, symSize: 0xD0 }
  - { offsetInCU: 0x429C8, offset: 0x429C8, size: 0x8, addend: 0x0, symName: __ZNSt3__16vectorINS_12basic_stringIcNS_11char_traitsIcEENS_9allocatorIcEEEENS4_IS6_EEE22__construct_one_at_endB8ue170006IJRKS6_EEEvDpOT_, symObjAddr: 0x23E4C, symBinAddr: 0x100027E98, symSize: 0x90 }
  - { offsetInCU: 0x42A17, offset: 0x42A17, size: 0x8, addend: 0x0, symName: __ZNSt3__16vectorINS_12basic_stringIcNS_11char_traitsIcEENS_9allocatorIcEEEENS4_IS6_EEE21__push_back_slow_pathIRKS6_EEvOT_, symObjAddr: 0x23EDC, symBinAddr: 0x100027F28, symSize: 0xD8 }
  - { offsetInCU: 0x42A75, offset: 0x42A75, size: 0x8, addend: 0x0, symName: __ZNSt3__116allocator_traitsINS_9allocatorINS_12basic_stringIcNS_11char_traitsIcEENS1_IcEEEEEEE9constructB8ue170006IS6_JRKS6_EvEEvRS7_PT_DpOT0_, symObjAddr: 0x23FB4, symBinAddr: 0x100028000, symSize: 0x34 }
  - { offsetInCU: 0x42ACC, offset: 0x42ACC, size: 0x8, addend: 0x0, symName: __ZNSt3__19allocatorINS_12basic_stringIcNS_11char_traitsIcEENS0_IcEEEEE9constructB8ue170006IS5_JRKS5_EEEvPT_DpOT0_, symObjAddr: 0x23FE8, symBinAddr: 0x100028034, symSize: 0x30 }
  - { offsetInCU: 0x42B22, offset: 0x42B22, size: 0x8, addend: 0x0, symName: __ZNKSt3__16vectorINS_12basic_stringIcNS_11char_traitsIcEENS_9allocatorIcEEEENS4_IS6_EEE11__recommendB8ue170006Em, symObjAddr: 0x24018, symBinAddr: 0x100028064, symSize: 0xB4 }
  - { offsetInCU: 0x42B77, offset: 0x42B77, size: 0x8, addend: 0x0, symName: __ZNSt3__114__split_bufferINS_12basic_stringIcNS_11char_traitsIcEENS_9allocatorIcEEEERNS4_IS6_EEEC1EmmS8_, symObjAddr: 0x240CC, symBinAddr: 0x100028118, symSize: 0x44 }
  - { offsetInCU: 0x42BCD, offset: 0x42BCD, size: 0x8, addend: 0x0, symName: __ZNSt3__114__split_bufferINS_12basic_stringIcNS_11char_traitsIcEENS_9allocatorIcEEEERNS4_IS6_EEED1Ev, symObjAddr: 0x24220, symBinAddr: 0x10002826C, symSize: 0x2C }
  - { offsetInCU: 0x42BF9, offset: 0x42BF9, size: 0x8, addend: 0x0, symName: __ZNSt3__114__split_bufferINS_12basic_stringIcNS_11char_traitsIcEENS_9allocatorIcEEEERNS4_IS6_EEEC2EmmS8_, symObjAddr: 0x2424C, symBinAddr: 0x100028298, symSize: 0xE0 }
  - { offsetInCU: 0x42C6C, offset: 0x42C6C, size: 0x8, addend: 0x0, symName: __ZNSt3__117__compressed_pairIPNS_12basic_stringIcNS_11char_traitsIcEENS_9allocatorIcEEEERNS4_IS6_EEEC1B8ue170006IDnS9_EEOT_OT0_, symObjAddr: 0x2432C, symBinAddr: 0x100028378, symSize: 0x3C }
  - { offsetInCU: 0x42CC4, offset: 0x42CC4, size: 0x8, addend: 0x0, symName: __ZNSt3__114__split_bufferINS_12basic_stringIcNS_11char_traitsIcEENS_9allocatorIcEEEERNS4_IS6_EEE7__allocB8ue170006Ev, symObjAddr: 0x24368, symBinAddr: 0x1000283B4, symSize: 0x28 }
  - { offsetInCU: 0x42CEA, offset: 0x42CEA, size: 0x8, addend: 0x0, symName: __ZNSt3__114__split_bufferINS_12basic_stringIcNS_11char_traitsIcEENS_9allocatorIcEEEERNS4_IS6_EEE9__end_capB8ue170006Ev, symObjAddr: 0x24390, symBinAddr: 0x1000283DC, symSize: 0x28 }
  - { offsetInCU: 0x42D10, offset: 0x42D10, size: 0x8, addend: 0x0, symName: __ZNSt3__117__compressed_pairIPNS_12basic_stringIcNS_11char_traitsIcEENS_9allocatorIcEEEERNS4_IS6_EEEC2B8ue170006IDnS9_EEOT_OT0_, symObjAddr: 0x243B8, symBinAddr: 0x100028404, symSize: 0x48 }
  - { offsetInCU: 0x42D68, offset: 0x42D68, size: 0x8, addend: 0x0, symName: __ZNSt3__122__compressed_pair_elemIRNS_9allocatorINS_12basic_stringIcNS_11char_traitsIcEENS1_IcEEEEEELi1ELb0EEC2B8ue170006IS8_vEEOT_, symObjAddr: 0x24400, symBinAddr: 0x10002844C, symSize: 0x20 }
  - { offsetInCU: 0x42DAA, offset: 0x42DAA, size: 0x8, addend: 0x0, symName: __ZNSt3__117__compressed_pairIPNS_12basic_stringIcNS_11char_traitsIcEENS_9allocatorIcEEEERNS4_IS6_EEE6secondB8ue170006Ev, symObjAddr: 0x24420, symBinAddr: 0x10002846C, symSize: 0x28 }
  - { offsetInCU: 0x42DD0, offset: 0x42DD0, size: 0x8, addend: 0x0, symName: __ZNSt3__122__compressed_pair_elemIRNS_9allocatorINS_12basic_stringIcNS_11char_traitsIcEENS1_IcEEEEEELi1ELb0EE5__getB8ue170006Ev, symObjAddr: 0x24448, symBinAddr: 0x100028494, symSize: 0x18 }
  - { offsetInCU: 0x42DF6, offset: 0x42DF6, size: 0x8, addend: 0x0, symName: __ZNSt3__117__compressed_pairIPNS_12basic_stringIcNS_11char_traitsIcEENS_9allocatorIcEEEERNS4_IS6_EEE5firstB8ue170006Ev, symObjAddr: 0x24460, symBinAddr: 0x1000284AC, symSize: 0x24 }
  - { offsetInCU: 0x42E1C, offset: 0x42E1C, size: 0x8, addend: 0x0, symName: __ZNSt3__129_AllocatorDestroyRangeReverseINS_9allocatorINS_12basic_stringIcNS_11char_traitsIcEENS1_IcEEEEEENS_16reverse_iteratorIPS6_EEEC1B8ue170006ERS7_RSA_SD_, symObjAddr: 0x24628, symBinAddr: 0x100028674, symSize: 0x44 }
  - { offsetInCU: 0x42E79, offset: 0x42E79, size: 0x8, addend: 0x0, symName: __ZNSt3__116allocator_traitsINS_9allocatorINS_12basic_stringIcNS_11char_traitsIcEENS1_IcEEEEEEE9constructB8ue170006IS6_JS6_EvEEvRS7_PT_DpOT0_, symObjAddr: 0x2466C, symBinAddr: 0x1000286B8, symSize: 0x34 }
  - { offsetInCU: 0x42ED0, offset: 0x42ED0, size: 0x8, addend: 0x0, symName: __ZNSt3__128__exception_guard_exceptionsINS_29_AllocatorDestroyRangeReverseINS_9allocatorINS_12basic_stringIcNS_11char_traitsIcEENS2_IcEEEEEENS_16reverse_iteratorIPS7_EEEEE10__completeB8ue170006Ev, symObjAddr: 0x246A0, symBinAddr: 0x1000286EC, symSize: 0x1C }
  - { offsetInCU: 0x42EF6, offset: 0x42EF6, size: 0x8, addend: 0x0, symName: __ZNSt3__128__exception_guard_exceptionsINS_29_AllocatorDestroyRangeReverseINS_9allocatorINS_12basic_stringIcNS_11char_traitsIcEENS2_IcEEEEEENS_16reverse_iteratorIPS7_EEEEED1B8ue170006Ev, symObjAddr: 0x246BC, symBinAddr: 0x100028708, symSize: 0x2C }
  - { offsetInCU: 0x42F20, offset: 0x42F20, size: 0x8, addend: 0x0, symName: __ZNSt3__128__exception_guard_exceptionsINS_29_AllocatorDestroyRangeReverseINS_9allocatorINS_12basic_stringIcNS_11char_traitsIcEENS2_IcEEEEEENS_16reverse_iteratorIPS7_EEEEEC1B8ue170006ESC_, symObjAddr: 0x246E8, symBinAddr: 0x100028734, symSize: 0x34 }
  - { offsetInCU: 0x42F59, offset: 0x42F59, size: 0x8, addend: 0x0, symName: __ZNSt3__128__exception_guard_exceptionsINS_29_AllocatorDestroyRangeReverseINS_9allocatorINS_12basic_stringIcNS_11char_traitsIcEENS2_IcEEEEEENS_16reverse_iteratorIPS7_EEEEEC2B8ue170006ESC_, symObjAddr: 0x2471C, symBinAddr: 0x100028768, symSize: 0x30 }
  - { offsetInCU: 0x42F92, offset: 0x42F92, size: 0x8, addend: 0x0, symName: __ZNSt3__129_AllocatorDestroyRangeReverseINS_9allocatorINS_12basic_stringIcNS_11char_traitsIcEENS1_IcEEEEEENS_16reverse_iteratorIPS6_EEEC2B8ue170006ERS7_RSA_SD_, symObjAddr: 0x2474C, symBinAddr: 0x100028798, symSize: 0x38 }
  - { offsetInCU: 0x42FE9, offset: 0x42FE9, size: 0x8, addend: 0x0, symName: __ZNSt3__19allocatorINS_12basic_stringIcNS_11char_traitsIcEENS0_IcEEEEE9constructB8ue170006IS5_JS5_EEEvPT_DpOT0_, symObjAddr: 0x24784, symBinAddr: 0x1000287D0, symSize: 0x30 }
  - { offsetInCU: 0x4303F, offset: 0x4303F, size: 0x8, addend: 0x0, symName: __ZNSt3__112basic_stringIcNS_11char_traitsIcEENS_9allocatorIcEEEC1B8ue170006EOS5_, symObjAddr: 0x247B4, symBinAddr: 0x100028800, symSize: 0x34 }
  - { offsetInCU: 0x43078, offset: 0x43078, size: 0x8, addend: 0x0, symName: __ZNSt3__112basic_stringIcNS_11char_traitsIcEENS_9allocatorIcEEEC2B8ue170006EOS5_, symObjAddr: 0x247E8, symBinAddr: 0x100028834, symSize: 0x48 }
  - { offsetInCU: 0x430B1, offset: 0x430B1, size: 0x8, addend: 0x0, symName: __ZNSt3__128__exception_guard_exceptionsINS_29_AllocatorDestroyRangeReverseINS_9allocatorINS_12basic_stringIcNS_11char_traitsIcEENS2_IcEEEEEENS_16reverse_iteratorIPS7_EEEEED2B8ue170006Ev, symObjAddr: 0x24830, symBinAddr: 0x10002887C, symSize: 0x50 }
  - { offsetInCU: 0x430DB, offset: 0x430DB, size: 0x8, addend: 0x0, symName: __ZNKSt3__129_AllocatorDestroyRangeReverseINS_9allocatorINS_12basic_stringIcNS_11char_traitsIcEENS1_IcEEEEEENS_16reverse_iteratorIPS6_EEEclB8ue170006Ev, symObjAddr: 0x24880, symBinAddr: 0x1000288CC, symSize: 0xB4 }
  - { offsetInCU: 0x43102, offset: 0x43102, size: 0x8, addend: 0x0, symName: __ZNSt3__116reverse_iteratorINS0_IPNS_12basic_stringIcNS_11char_traitsIcEENS_9allocatorIcEEEEEEEC1B8ue170006ES8_, symObjAddr: 0x249A4, symBinAddr: 0x1000289F0, symSize: 0x3C }
  - { offsetInCU: 0x4313A, offset: 0x4313A, size: 0x8, addend: 0x0, symName: __ZNSt3__116reverse_iteratorINS0_IPNS_12basic_stringIcNS_11char_traitsIcEENS_9allocatorIcEEEEEEEppB8ue170006Ev, symObjAddr: 0x24A64, symBinAddr: 0x100028AB0, symSize: 0x30 }
  - { offsetInCU: 0x43160, offset: 0x43160, size: 0x8, addend: 0x0, symName: __ZNKSt3__116reverse_iteratorINS0_IPNS_12basic_stringIcNS_11char_traitsIcEENS_9allocatorIcEEEEEEE4baseB8ue170006Ev, symObjAddr: 0x24A94, symBinAddr: 0x100028AE0, symSize: 0x24 }
  - { offsetInCU: 0x4318C, offset: 0x4318C, size: 0x8, addend: 0x0, symName: __ZNSt3__119__to_address_helperINS_16reverse_iteratorINS1_IPNS_12basic_stringIcNS_11char_traitsIcEENS_9allocatorIcEEEEEEEEvE6__callB8ue170006ERKSA_, symObjAddr: 0x24AB8, symBinAddr: 0x100028B04, symSize: 0x38 }
  - { offsetInCU: 0x431AF, offset: 0x431AF, size: 0x8, addend: 0x0, symName: __ZNKSt3__116reverse_iteratorINS0_IPNS_12basic_stringIcNS_11char_traitsIcEENS_9allocatorIcEEEEEEEptB8ue170006Ev, symObjAddr: 0x24AF0, symBinAddr: 0x100028B3C, symSize: 0x24 }
  - { offsetInCU: 0x431D5, offset: 0x431D5, size: 0x8, addend: 0x0, symName: __ZNKSt3__116reverse_iteratorINS0_IPNS_12basic_stringIcNS_11char_traitsIcEENS_9allocatorIcEEEEEEEdeB8ue170006Ev, symObjAddr: 0x24B14, symBinAddr: 0x100028B60, symSize: 0x34 }
  - { offsetInCU: 0x43209, offset: 0x43209, size: 0x8, addend: 0x0, symName: __ZNSt3__116reverse_iteratorIPNS_12basic_stringIcNS_11char_traitsIcEENS_9allocatorIcEEEEEmmB8ue170006Ev, symObjAddr: 0x24B48, symBinAddr: 0x100028B94, symSize: 0x20 }
  - { offsetInCU: 0x4322F, offset: 0x4322F, size: 0x8, addend: 0x0, symName: __ZNSt3__116reverse_iteratorINS0_IPNS_12basic_stringIcNS_11char_traitsIcEENS_9allocatorIcEEEEEEEC2B8ue170006ES8_, symObjAddr: 0x24B68, symBinAddr: 0x100028BB4, symSize: 0x2C }
  - { offsetInCU: 0x43267, offset: 0x43267, size: 0x8, addend: 0x0, symName: __ZNSt3__114__split_bufferINS_12basic_stringIcNS_11char_traitsIcEENS_9allocatorIcEEEERNS4_IS6_EEED2Ev, symObjAddr: 0x24B94, symBinAddr: 0x100028BE0, symSize: 0x8C }
  - { offsetInCU: 0x43293, offset: 0x43293, size: 0x8, addend: 0x0, symName: __ZNSt3__114__split_bufferINS_12basic_stringIcNS_11char_traitsIcEENS_9allocatorIcEEEERNS4_IS6_EEE5clearB8ue170006Ev, symObjAddr: 0x24C20, symBinAddr: 0x100028C6C, symSize: 0x28 }
  - { offsetInCU: 0x432B9, offset: 0x432B9, size: 0x8, addend: 0x0, symName: __ZNKSt3__114__split_bufferINS_12basic_stringIcNS_11char_traitsIcEENS_9allocatorIcEEEERNS4_IS6_EEE8capacityB8ue170006Ev, symObjAddr: 0x24C48, symBinAddr: 0x100028C94, symSize: 0x40 }
  - { offsetInCU: 0x432DF, offset: 0x432DF, size: 0x8, addend: 0x0, symName: __ZNSt3__114__split_bufferINS_12basic_stringIcNS_11char_traitsIcEENS_9allocatorIcEEEERNS4_IS6_EEE17__destruct_at_endB8ue170006EPS6_, symObjAddr: 0x24C88, symBinAddr: 0x100028CD4, symSize: 0x2C }
  - { offsetInCU: 0x43313, offset: 0x43313, size: 0x8, addend: 0x0, symName: __ZNSt3__114__split_bufferINS_12basic_stringIcNS_11char_traitsIcEENS_9allocatorIcEEEERNS4_IS6_EEE17__destruct_at_endB8ue170006EPS6_NS_17integral_constantIbLb0EEE, symObjAddr: 0x24CB4, symBinAddr: 0x100028D00, symSize: 0x80 }
  - { offsetInCU: 0x43353, offset: 0x43353, size: 0x8, addend: 0x0, symName: __ZNKSt3__114__split_bufferINS_12basic_stringIcNS_11char_traitsIcEENS_9allocatorIcEEEERNS4_IS6_EEE9__end_capB8ue170006Ev, symObjAddr: 0x24D34, symBinAddr: 0x100028D80, symSize: 0x28 }
  - { offsetInCU: 0x43379, offset: 0x43379, size: 0x8, addend: 0x0, symName: __ZNKSt3__117__compressed_pairIPNS_12basic_stringIcNS_11char_traitsIcEENS_9allocatorIcEEEERNS4_IS6_EEE5firstB8ue170006Ev, symObjAddr: 0x24D5C, symBinAddr: 0x100028DA8, symSize: 0x24 }
...
